 GameBot_release

 Timestamp is 688330ed (Fri Jul 25 15:23:25 2025)

 Preferred load address is 00400000

 Start         Length     Name                   Class
 0001:00000000 000500faH .text                   CODE
 0001:00050100 00007eedH .text$x                 CODE
 0001:00057ff0 00001331H .text$yc                CODE
 0001:00059330 00000071H .text$yd                CODE
 0002:00000000 000008a4H .idata$5                DATA
 0002:000008a4 00000004H .CRT$XCA                DATA
 0002:000008a8 00000004H .CRT$XCAA               DATA
 0002:000008ac 0000000cH .CRT$XCC                DATA
 0002:000008b8 00000070H .CRT$XCL                DATA
 0002:00000928 00000018H .CRT$XCU                DATA
 0002:00000940 00000004H .CRT$XCZ                DATA
 0002:00000944 00000004H .CRT$XIA                DATA
 0002:00000948 00000004H .CRT$XIAA               DATA
 0002:0000094c 00000004H .CRT$XIY                DATA
 0002:00000950 00000004H .CRT$XIZ                DATA
 0002:00000960 00026bc0H .rdata                  DATA
 0002:00027520 00000052H .rdata$debug            DATA
 0002:00027574 00001a94H .rdata$r                DATA
 0002:00029010 00000830H .rdata$sxdata           DATA
 0002:00029840 00000004H .rtc$IAA                DATA
 0002:00029844 00000004H .rtc$IZZ                DATA
 0002:00029848 00000004H .rtc$TAA                DATA
 0002:0002984c 00000004H .rtc$TZZ                DATA
 0002:00029850 000076ecH .xdata$x                DATA
 0002:00030f3c 00000004H ATL$__a                 DATA
 0002:00030f40 00000004H ATL$__z                 DATA
 0002:00030f44 000000dcH .idata$2                DATA
 0002:00031020 00000014H .idata$3                DATA
 0002:00031034 000008a4H .idata$4                DATA
 0002:000318d8 00001e7eH .idata$6                DATA
 0002:00033756 00000000H .edata                  DATA
 0003:00000000 00001198H .data                   DATA
 0003:00001198 000007b0H .bss                    DATA
 0004:00000000 00000970H .rsrc$01                DATA
 0004:00000970 0003daf8H .rsrc$02                DATA

  Address         Publics by Value              Rva+Base       Lib:Object

 0000:0000020c       ___safe_se_handler_count   0000020c     <absolute>
 0000:00000000       ___ImageBase               00400000     <linker-defined>
 0001:00000000       ?one@Thank_you@Define_the_symbol__ATL_MIXED@@UAEXXZ 00401000 f i HookHelper.obj
 0001:00000010       ??0Thank_you@Define_the_symbol__ATL_MIXED@@QAE@XZ 00401010 f i HookHelper.obj
 0001:00000020       ?SetPlayer@CHookHelper@@QAEXPAVCPlayer@@@Z 00401020 f i HookHelper.obj
 0001:00000030       ?IsMainSocketValid@CHookHelper@@QAE_NXZ 00401030 f i HookHelper.obj
 0001:00000040       ?GetMainServerIp@CHookHelper@@QAE?AV?$basic_string@DU?$char_traits@D@std@@V?$allocator@D@2@@std@@XZ 00401040 f i HookHelper.obj
 0001:00000060       ?GetMainServerPort@CHookHelper@@QAEGXZ 00401060 f i HookHelper.obj
 0001:00000070       ?GetCrossServerIp@CHookHelper@@QAE?AV?$basic_string@DU?$char_traits@D@std@@V?$allocator@D@2@@std@@XZ 00401070 f i HookHelper.obj
 0001:00000090       ?SetMainServerSocket@CHookHelper@@QAEXI@Z 00401090 f i HookHelper.obj
 0001:000000a0       ?GetMainServerSocket@CHookHelper@@QAEIXZ 004010a0 f i HookHelper.obj
 0001:000000b0       ?SetCrossServerSocket@CHookHelper@@QAEXI@Z 004010b0 f i HookHelper.obj
 0001:000000c0       ?GetCrossServerSocket@CHookHelper@@QAEIXZ 004010c0 f i HookHelper.obj
 0001:000000d0       ?SetHooked@CHookHelper@@QAEX_N@Z 004010d0 f i HookHelper.obj
 0001:000000e0       ?SetDisconnectReason@CPlayer@@QAEXW4E_DISCONNECT_ERROR_REASON@@@Z 004010e0 f i HookHelper.obj
 0001:000000f0       ?GetSocketHelper@CPlayer@@QAEPAVCSocketHelper@@XZ 004010f0 f i HookHelper.obj
 0001:00000100       ?GetStreamBufRead@CSocketHelper@@QAEPAVCStreamReadWrite@@XZ 00401100 f i HookHelper.obj
 0001:00000110       ?SetSocket@CSocketHelper@@QAEXI@Z 00401110 f i HookHelper.obj
 0001:00000120       ?TestWriteFileTest@@YA_NPB_WPADH@Z 00401120 f   HookHelper.obj
 0001:00000210       ??0CHookHelper@@QAE@XZ     00401210 f   HookHelper.obj
 0001:00000360       ??1CHookHelper@@QAE@XZ     00401360 f   HookHelper.obj
 0001:00000440       ??_GCStreamReadWrite@@QAEPAXI@Z 00401440 f i HookHelper.obj
 0001:00000460       ?GetInstance@CHookHelper@@SAPAV1@XZ 00401460 f   HookHelper.obj
 0001:000004e0       ?DeleteInstance@CHookHelper@@SAXXZ 004014e0 f   HookHelper.obj
 0001:00000510       ??_GCHookHelper@@QAEPAXI@Z 00401510 f i HookHelper.obj
 0001:00000530       ?CheckAndSetSocket@CHookHelper@@QAEXIPBDG@Z 00401530 f   HookHelper.obj
 0001:00000650       ?Reset@CHookHelper@@QAEXXZ 00401650 f   HookHelper.obj
 0001:000006a0       ?ResetSocketAndStreamBuf@CHookHelper@@QAEXXZ 004016a0 f   HookHelper.obj
 0001:00000700       ?ResetCrossServerStreamBuffer@CHookHelper@@QAEXXZ 00401700 f   HookHelper.obj
 0001:00000710       ?ResetCrossServerSocket@CHookHelper@@QAEXXZ 00401710 f   HookHelper.obj
 0001:00000730       ?IsInGameServer@CHookHelper@@QAE_NXZ 00401730 f   HookHelper.obj
 0001:00000750       ?CheckSocketState@CHookHelper@@QAEXI@Z 00401750 f   HookHelper.obj
 0001:000007b0       ?HandleRecv@CHookHelper@@QAEHIPADHHPAPADAA_N@Z 004017b0 f   HookHelper.obj
 0001:00000970       ?HandleSend@CHookHelper@@QAEHIPADHPAPADAA_N@Z 00401970 f   HookHelper.obj
 0001:00000bb0       ?IsSameMainGameSocket@CHookHelper@@QAE_NI@Z 00401bb0 f   HookHelper.obj
 0001:00000bd0       ?CheckIsSendLoginMessage@CHookHelper@@QAE_NPBDH@Z 00401bd0 f   HookHelper.obj
 0001:00000c90       ??0_Has_debug_it@?$basic_string@DU?$char_traits@D@std@@V?$allocator@D@2@@std@@QAE@_N@Z 00401c90 f i HookHelper.obj
 0001:00000ca0       ?SetPlayer@CGameOperation@@QAEXPAVCPlayer@@@Z 00401ca0 f i GameOperation.obj
 0001:00000cb0       ?SetResCode@CGameOperation@@QAEXH@Z 00401cb0 f i GameOperation.obj
 0001:00000cc0       ?ResetConnectToGameServer@CGameOperation@@QAEXXZ 00401cc0 f i GameOperation.obj
 0001:00000cd0       ?SetConnectToGameServer@CGameOperation@@QAEX_N@Z 00401cd0 f i GameOperation.obj
 0001:00000ce0       ?InterruptCurrentOperation@CGameOperation@@QAEHXZ 00401ce0 f i GameOperation.obj
 0001:00000cf0       ?SetEmergencyLevel@CGameOperation@@QAEXW4E_EMERGENCY_LEVEL@@@Z 00401cf0 f i GameOperation.obj
 0001:00000d00       ?GetEmergencyLevel@CGameOperation@@QAE?AW4E_EMERGENCY_LEVEL@@XZ 00401d00 f i GameOperation.obj
 0001:00000d10       ?ResetEmergencyLevel@CGameOperation@@QAEXXZ 00401d10 f i GameOperation.obj
 0001:00000d20       ?GetPkMode@CPlayer@@QAEHXZ 00401d20 f i GameOperation.obj
 0001:00000d30       ??0CGameOperation@@QAE@XZ  00401d30 f   GameOperation.obj
 0001:00000d60       ??1CGameOperation@@QAE@XZ  00401d60 f   GameOperation.obj
 0001:00000d80       ?ResetResCode@CGameOperation@@QAEXXZ 00401d80 f   GameOperation.obj
 0001:00000d90       ?Init@CGameOperation@@QAEXXZ 00401d90 f   GameOperation.obj
 0001:00000dc0       ?InterruptOperationByEmergencyLevel@CGameOperation@@QAE_NW4E_EMERGENCY_LEVEL@@@Z 00401dc0 f   GameOperation.obj
 0001:00000de0       ?RecvPacketAndUpdateInfo@CGameOperation@@AAE_NHPAVCSocketHelper@@@Z 00401de0 f   GameOperation.obj
 0001:00000e00       ?SetPkMode@CGameOperation@@QAE?AW4E_OPERATION_RESULT@@HPAVCSocketHelper@@@Z 00401e00 f   GameOperation.obj
 0001:00000e70       ??0bad_alloc@std@@QAE@PBD@Z 00401e70 f i Client.obj
 0001:00000e90       ??1bad_alloc@std@@UAE@XZ   00401e90 f i Client.obj
 0001:00000ea0       ??_Gbad_alloc@std@@UAEPAXI@Z 00401ea0 f i Client.obj
 0001:00000ea0       ??_Ebad_alloc@std@@UAEPAXI@Z 00401ea0 f i  CIL library: CIL module
 0001:00000ed0       ??0_Iterator_base@std@@QAE@XZ 00401ed0 f i Client.obj
 0001:00000ee0       ??0_Iterator_base@std@@QAE@ABV01@@Z 00401ee0 f i Client.obj
 0001:00000f00       ??4_Iterator_base@std@@QAEAAV01@ABV01@@Z 00401f00 f i Client.obj
 0001:00000f80       ??1_Iterator_base@std@@QAE@XZ 00401f80 f i Client.obj
 0001:00000ff0       ?_Adopt@_Iterator_base@std@@QAEXPBV_Container_base_secure@2@@Z 00401ff0 f i Client.obj
 0001:00001070       ?_Orphan_me@_Iterator_base@std@@QAEXXZ 00402070 f i Client.obj
 0001:000010c0       ??0logic_error@std@@QAE@ABV?$basic_string@DU?$char_traits@D@std@@V?$allocator@D@2@@1@@Z 004020c0 f i Client.obj
 0001:00001120       ??1logic_error@std@@UAE@XZ 00402120 f i Client.obj
 0001:00001140       ?what@logic_error@std@@UBEPBDXZ 00402140 f i Client.obj
 0001:00001150       ??_Elogic_error@std@@UAEPAXI@Z 00402150 f i  CIL library: CIL module
 0001:00001150       ??_Glogic_error@std@@UAEPAXI@Z 00402150 f i Client.obj
 0001:00001180       ??0length_error@std@@QAE@ABV?$basic_string@DU?$char_traits@D@std@@V?$allocator@D@2@@1@@Z 00402180 f i Client.obj
 0001:000011a0       ??1length_error@std@@UAE@XZ 004021a0 f i Client.obj
 0001:000011c0       ??_Glength_error@std@@UAEPAXI@Z 004021c0 f i Client.obj
 0001:000011c0       ??_Elength_error@std@@UAEPAXI@Z 004021c0 f i  CIL library: CIL module
 0001:000011f0       ??0logic_error@std@@QAE@ABV01@@Z 004021f0 f i Client.obj
 0001:00001260       ?GetJob@CInfoPlayerInfoStatus@@QAEHXZ 00402260 f i Client.obj
 0001:00001270       ?SetX@CInfoPlayerInfoStatus@@QAEXH@Z 00402270 f i Client.obj
 0001:00001280       ?SetY@CInfoPlayerInfoStatus@@QAEXH@Z 00402280 f i Client.obj
 0001:00001290       ?SetRoleId@CInfoPlayerInfoStatus@@QAEX_K@Z 00402290 f i Client.obj
 0001:000012b0       ?SetPlayer@CClient@@QAEXPAVCPlayer@@@Z 004022b0 f i Client.obj
 0001:000012c0       ?GetPlayer@CClient@@QAEPAVCPlayer@@XZ 004022c0 f i Client.obj
 0001:000012d0       ?SetMainWindow@CClient@@QAEXPAUHWND__@@@Z 004022d0 f i Client.obj
 0001:000012e0       ?SetSelfWindow@CClient@@QAEXPAUHWND__@@@Z 004022e0 f i Client.obj
 0001:000012f0       ?SetIndex@CClient@@QAEXH@Z 004022f0 f i Client.obj
 0001:00001300       ?SetCmd@CClient@@AAEXH@Z   00402300 f i Client.obj
 0001:00001310       ?GetCmd@CClient@@AAEHXZ    00402310 f i Client.obj
 0001:00001320       ?SetMessageThreadId@CClient@@AAEXK@Z 00402320 f i Client.obj
 0001:00001330       ?GetRoleId@CPlayer@@QAE_KXZ 00402330 f i Client.obj
 0001:00001340       ?IsQuit@CPlayer@@QAE_NXZ   00402340 f i Client.obj
 0001:00001350       ?GetRoleName@CPlayer@@QAE?AV?$basic_string@_WU?$char_traits@_W@std@@V?$allocator@_W@2@@std@@XZ 00402350 f i Client.obj
 0001:00001370       ?GetX@CPlayer@@QAEHXZ      00402370 f i Client.obj
 0001:00001380       ?GetY@CPlayer@@QAEHXZ      00402380 f i Client.obj
 0001:00001390       ?GetAsuramName@CPlayer@@QAE?AV?$basic_string@_WU?$char_traits@_W@std@@V?$allocator@_W@2@@std@@XZ 00402390 f i Client.obj
 0001:000013b0       ?SetCareer@CPlayer@@QAEXH@Z 004023b0 f i Client.obj
 0001:000013c0       ?GetCareer@CPlayer@@QAEHXZ 004023c0 f i Client.obj
 0001:000013d0       ?GetLevel@CPlayer@@QAEHXZ  004023d0 f i Client.obj
 0001:000013e0       ?GetGameLogicHelper@CPlayer@@QAEPAVCGameLogicHelper@@XZ 004023e0 f i Client.obj
 0001:000013f0       ??0CClient@@QAE@XZ         004023f0 f   Client.obj
 0001:000014f0       ??1CClient@@QAE@XZ         004024f0 f   Client.obj
 0001:00001600       ?IsPlayerQuit@CClient@@QAE_NXZ 00402600 f   Client.obj
 0001:00001620       ?IncLiveTime@CClient@@QAEXXZ 00402620 f   Client.obj
 0001:00001630       ?DecLiveTime@CClient@@QAEXXZ 00402630 f   Client.obj
 0001:00001640       ?CreateMessageThread@CClient@@AAE_NXZ 00402640 f   Client.obj
 0001:00001680       ?CreateTimerThread@CClient@@AAE_NXZ 00402680 f   Client.obj
 0001:000016b0       ?DoReadyWork@CClient@@QAE_NXZ 004026b0 f   Client.obj
 0001:00001730       ?DoActionByCmd@CClient@@AAEXH@Z 00402730 f   Client.obj
 0001:00001760       ?UpdatePlayerInfoStatus@CClient@@QAEXPAVCInfoPlayerInfoStatus@@@Z 00402760 f   Client.obj
 0001:00001790       ??4CInfoPlayerInfoStatus@@QAEAAV0@ABV0@@Z 00402790 f i Client.obj
 0001:00001840       ??4CBaseMessage@@QAEAAV0@ABV0@@Z 00402840 f i Client.obj
 0001:00001860       ?UpdatePlayerInfoToPlayerInfoStatus@CClient@@QAEXXZ 00402860 f   Client.obj
 0001:00001960       ?ThreadMessage@CClient@@CGKPAX@Z 00402960 f   Client.obj
 0001:000019e0       ?ThredTimer@CClient@@CGKPAX@Z 004029e0 f   Client.obj
 0001:00001a90       ??4?$vector@HV?$allocator@H@std@@@std@@QAEAAV01@ABV01@@Z 00402a90 f i Client.obj
 0001:00001ba0       ??0_Has_debug_it@?$basic_string@_WU?$char_traits@_W@std@@V?$allocator@_W@2@@std@@QAE@_N@Z 00402ba0 f i Client.obj
 0001:00001bb0       ?capacity@?$vector@HV?$allocator@H@std@@@std@@QBEIXZ 00402bb0 f i Client.obj
 0001:00001bd0       ?size@?$vector@HV?$allocator@H@std@@@std@@QBEIXZ 00402bd0 f i Client.obj
 0001:00001be0       ?clear@?$vector@HV?$allocator@H@std@@@std@@QAEXXZ 00402be0 f i Client.obj
 0001:00001cc0       ?_Buy@?$vector@HV?$allocator@H@std@@@std@@IAE_NI@Z 00402cc0 f i Client.obj
 0001:00001d10       ?_Destroy@?$vector@HV?$allocator@H@std@@@std@@IAEXPAH0@Z 00402d10 f i Client.obj
 0001:00001d20       ?deallocate@?$allocator@H@std@@QAEXPAHI@Z 00402d20 f i Client.obj
 0001:00001d30       ??1?$_Vector_iterator@HV?$allocator@H@std@@@std@@QAE@XZ 00402d30 f i Client.obj
 0001:00001d40       ??0?$_Vector_const_iterator@HV?$allocator@H@std@@@std@@QAE@ABV01@@Z 00402d40 f i Client.obj
 0001:00001d70       ??1?$_Vector_const_iterator@HV?$allocator@H@std@@@std@@QAE@XZ 00402d70 f i Client.obj
 0001:00001d80       ??0?$_Ranit@HHPBHABH@std@@QAE@ABU01@@Z 00402d80 f i Client.obj
 0001:00001da0       ??1?$_Ranit@HHPBHABH@std@@QAE@XZ 00402da0 f i Client.obj
 0001:00001db0       ??0?$_Iterator_with_base@Urandom_access_iterator_tag@std@@HHPBHABHV_Iterator_base@2@@std@@QAE@ABU01@@Z 00402db0 f i Client.obj
 0001:00001dd0       ??1?$_Iterator_with_base@Urandom_access_iterator_tag@std@@HHPBHABHV_Iterator_base@2@@std@@QAE@XZ 00402dd0 f i Client.obj
 0001:00001de0       ?begin@?$vector@HV?$allocator@H@std@@@std@@QAE?AV?$_Vector_iterator@HV?$allocator@H@std@@@2@XZ 00402de0 f i Client.obj
 0001:00001e10       ?end@?$vector@HV?$allocator@H@std@@@std@@QAE?AV?$_Vector_iterator@HV?$allocator@H@std@@@2@XZ 00402e10 f i Client.obj
 0001:00001e40       ?max_size@?$vector@HV?$allocator@H@std@@@std@@QBEIXZ 00402e40 f i Client.obj
 0001:00001e50       ?erase@?$vector@HV?$allocator@H@std@@@std@@QAE?AV?$_Vector_iterator@HV?$allocator@H@std@@@2@V?$_Vector_const_iterator@HV?$allocator@H@std@@@2@0@Z 00402e50 f i Client.obj
 0001:00001ff0       ?_Xlen@?$vector@HV?$allocator@H@std@@@std@@KAXXZ 00402ff0 f i Client.obj
 0001:00002080       ?allocate@?$allocator@H@std@@QAEPAHI@Z 00403080 f i Client.obj
 0001:000020e0       ??0length_error@std@@QAE@ABV01@@Z 004030e0 f i Client.obj
 0001:00002100       ?_Make_iter@?$vector@HV?$allocator@H@std@@@std@@QBE?AV?$_Vector_iterator@HV?$allocator@H@std@@@2@V?$_Vector_const_iterator@HV?$allocator@H@std@@@2@@Z 00403100 f i Client.obj
 0001:00002170       ?_Orphan_range@?$vector@HV?$allocator@H@std@@@std@@IBEXPAH0@Z 00403170 f i Client.obj
 0001:000021d0       ?max_size@?$allocator@H@std@@QBEIXZ 004031d0 f i Client.obj
 0001:000021e0       ??0?$_Vector_iterator@HV?$allocator@H@std@@@std@@QAE@PAHPBV_Container_base_secure@1@@Z 004031e0 f i Client.obj
 0001:00002200       ??9?$_Vector_const_iterator@HV?$allocator@H@std@@@std@@QBE_NABV01@@Z 00403200 f i Client.obj
 0001:00002220       ??M?$_Vector_const_iterator@HV?$allocator@H@std@@@std@@QBE_NABV01@@Z 00403220 f i Client.obj
 0001:00002240       ??0?$_Vector_const_iterator@HV?$allocator@H@std@@@std@@QAE@PAHPBV_Container_base_secure@1@@Z 00403240 f i Client.obj
 0001:00002300       ??8?$_Vector_const_iterator@HV?$allocator@H@std@@@std@@QBE_NABV01@@Z 00403300 f i Client.obj
 0001:00002320       ?_Compat@?$_Vector_const_iterator@HV?$allocator@H@std@@@std@@QBEXABV12@@Z 00403320 f i Client.obj
 0001:00002390       ??0bad_alloc@std@@QAE@ABV01@@Z 00403390 f i Client.obj
 0001:000023b0       ??0?$_Ranit@HHPBHABH@std@@QAE@XZ 004033b0 f i Client.obj
 0001:000023c0       ??0?$_Iterator_with_base@Urandom_access_iterator_tag@std@@HHPBHABHV_Iterator_base@2@@std@@QAE@XZ 004033c0 f i Client.obj
 0001:000023d0       ??$unchecked_copy@PAHPAH@stdext@@YAPAHPAH00@Z 004033d0 f i Client.obj
 0001:00002400       ??$_Ucopy@PAH@?$vector@HV?$allocator@H@std@@@std@@IAEPAHPAH00@Z 00403400 f i Client.obj
 0001:00002430       ??$_Destroy_range@V?$allocator@H@std@@@std@@YAXPAH0AAV?$allocator@H@0@@Z 00403430 f i Client.obj
 0001:00002440       ??$_Allocate@H@std@@YAPAHIPAH@Z 00403440 f i Client.obj
 0001:000024a0       ??$_Checked_base@PAH@std@@YAPAHAAPAH@Z 004034a0 f i Client.obj
 0001:000024b0       ??$_Iter_random@PAHPAH@std@@YA?AUrandom_access_iterator_tag@0@ABQAH0@Z 004034b0 f i Client.obj
 0001:000024c0       ??$_Ptr_cat@PAHPAH@std@@YA?AU_Scalar_ptr_iterator_tag@0@AAPAH0@Z 004034c0 f i Client.obj
 0001:000024d0       ??$_Copy_opt@PAHPAHUrandom_access_iterator_tag@std@@@std@@YAPAHPAH00Urandom_access_iterator_tag@0@U_Scalar_ptr_iterator_tag@0@U_Range_checked_iterator_tag@0@@Z 004034d0 f i Client.obj
 0001:00002580       ??$unchecked_uninitialized_copy@PAHPAHV?$allocator@H@std@@@stdext@@YAPAHPAH00AAV?$allocator@H@std@@@Z 00403580 f i Client.obj
 0001:000025b0       ??$_Destroy_range@V?$allocator@H@std@@@std@@YAXPAH0AAV?$allocator@H@0@U_Scalar_ptr_iterator_tag@0@@Z 004035b0 f i Client.obj
 0001:000025c0       ??$_Checked_base@PAH@std@@YAPAHAAPAHU_Unchanged_checked_iterator_base_type_tag@0@@Z 004035c0 f i Client.obj
 0001:000025d0       ??$_Debug_range@PAH@std@@YAXPAH0PB_WI@Z 004035d0 f i Client.obj
 0001:00002630       ??$_Debug_pointer@H@std@@YAXPAHPB_WI@Z 00403630 f i Client.obj
 0001:00002650       ??$_Uninit_copy@PAHPAHV?$allocator@H@std@@@std@@YAPAHPAH00AAV?$allocator@H@0@U_Scalar_ptr_iterator_tag@0@U_Range_checked_iterator_tag@0@@Z 00403650 f i Client.obj
 0001:00002700       ??$_Iter_cat@PAH@std@@YA?AUrandom_access_iterator_tag@0@ABQAH@Z 00403700 f i Client.obj
 0001:00002710       ??$_Debug_range2@PAH@std@@YAXPAH0PB_WIUrandom_access_iterator_tag@0@@Z 00403710 f i Client.obj
 0001:00002770       ??2@YAPAXIPAX@Z            00403770 f i Player.obj
 0001:00002780       ?SetClient@CPlayer@@QAEXPAVCClient@@@Z 00403780 f i Player.obj
 0001:00002790       ?SetAttackerId@CPlayer@@QAEX_K@Z 00403790 f i Player.obj
 0001:000027a0       ?ResetAttackerId@CPlayer@@QAEXXZ 004037a0 f i Player.obj
 0001:000027b0       ?SetQuit@CPlayer@@QAEX_N@Z 004037b0 f i Player.obj
 0001:000027c0       ?SetStop@CPlayer@@QAEX_N@Z 004037c0 f i Player.obj
 0001:000027d0       ?SetPlayerIndex@CPlayer@@QAEXH@Z 004037d0 f i Player.obj
 0001:000027e0       ?SetX@CPlayer@@QAEXH@Z     004037e0 f i Player.obj
 0001:000027f0       ?SetY@CPlayer@@QAEXH@Z     004037f0 f i Player.obj
 0001:00002800       ?SetCurHp@CPlayer@@QAEX_J@Z 00403800 f i Player.obj
 0001:00002810       ?SetMaxHp@CPlayer@@QAEX_J@Z 00403810 f i Player.obj
 0001:00002820       ?SetCurMp@CPlayer@@QAEXH@Z 00403820 f i Player.obj
 0001:00002830       ?SetMaxMp@CPlayer@@QAEXH@Z 00403830 f i Player.obj
 0001:00002840       ?SetCurShield@CPlayer@@QAEX_J@Z 00403840 f i Player.obj
 0001:00002850       ?SetMaxShield@CPlayer@@QAEX_J@Z 00403850 f i Player.obj
 0001:00002860       ?SetCurComboValue@CPlayer@@QAEX_J@Z 00403860 f i Player.obj
 0001:00002870       ?SetMaxComboValue@CPlayer@@QAEX_J@Z 00403870 f i Player.obj
 0001:00002880       ?SetTotalBattleScore@CPlayer@@QAEX_J@Z 00403880 f i Player.obj
 0001:000028a0       ?SetLevel@CPlayer@@QAEXH@Z 004038a0 f i Player.obj
 0001:000028b0       ?SetVipLevel@CPlayer@@QAEXH@Z 004038b0 f i Player.obj
 0001:000028c0       ?SetPkMode@CPlayer@@QAEXH@Z 004038c0 f i Player.obj
 0001:000028d0       ?ResetPkMode@CPlayer@@QAEXXZ 004038d0 f i Player.obj
 0001:000028e0       ?SetValidAttributePoint@CPlayer@@QAEXH@Z 004038e0 f i Player.obj
 0001:000028f0       ?SetPlayer@CSocketHelper@@QAEXPAVCPlayer@@@Z 004038f0 f i Player.obj
 0001:00002900       ?GetResCode@CGameOperation@@QAEHXZ 00403900 f i Player.obj
 0001:00002910       ?SetMoveSucc@CGameOperation@@QAEX_N@Z 00403910 f i Player.obj
 0001:00002920       ?SetResCode@CGameLogicHelper@@QAEXH@Z 00403920 f i Player.obj
 0001:00002930       ?GetResCode@CGameLogicHelper@@QAEHXZ 00403930 f i Player.obj
 0001:00002940       ?ResetResCode@CGameLogicHelper@@QAEXXZ 00403940 f i Player.obj
 0001:00002950       ?SetMoveSucc@CGameLogicHelper@@QAEX_N@Z 00403950 f i Player.obj
 0001:00002960       ?ResetTaskEmergencyLevel@CGameLogicHelper@@QAEXXZ 00403960 f i Player.obj
 0001:00002970       ??0CPlayer@@QAE@XZ         00403970 f   Player.obj
 0001:00002a80       ??_GCPlayer@@UAEPAXI@Z     00403a80 f i Player.obj
 0001:00002a80       ??_ECPlayer@@UAEPAXI@Z     00403a80 f i  CIL library: CIL module
 0001:00002aa0       ??1?$map@H_JU?$less@H@std@@V?$allocator@U?$pair@$$CBH_J@std@@@2@@std@@QAE@XZ 00403aa0 f i Player.obj
 0001:00002b00       ??1?$map@HHU?$less@H@std@@V?$allocator@U?$pair@$$CBHH@std@@@2@@std@@QAE@XZ 00403b00 f i Player.obj
 0001:00002b60       ??1CPlayer@@UAE@XZ         00403b60 f   Player.obj
 0001:00002c60       ?Init@CPlayer@@QAEXXZ      00403c60 f   Player.obj
 0001:00002e00       ?CloseObjectWhenQuit@CPlayer@@QAEXXZ 00403e00 f   Player.obj
 0001:00002e10       ?GetAccountName@CPlayer@@QAE?AV?$basic_string@_WU?$char_traits@_W@std@@V?$allocator@_W@2@@std@@XZ 00403e10 f   Player.obj
 0001:00002f00       ?ResetStates@CPlayer@@QAEXXZ 00403f00 f   Player.obj
 0001:00002f50       ?SetLoginAlready@CPlayer@@QAEX_N@Z 00403f50 f   Player.obj
 0001:00002f80       ?SetInGameAlready@CPlayer@@QAEX_N@Z 00403f80 f   Player.obj
 0001:00002fb0       ?SetChooseRoleAlreay@CPlayer@@QAEX_N@Z 00403fb0 f   Player.obj
 0001:00002fe0       ?IsLoginAlready@CPlayer@@QAE_NXZ 00403fe0 f   Player.obj
 0001:00002ff0       ?IsInGameAlready@CPlayer@@QAE_NXZ 00403ff0 f   Player.obj
 0001:00003000       ?IsRoleChosenAlready@CPlayer@@QAE_NXZ 00404000 f   Player.obj
 0001:00003010       ?ReadyForPlaying@CPlayer@@QAE_NXZ 00404010 f   Player.obj
 0001:00003050       ?CreatePlayThread@CPlayer@@QAE_NXZ 00404050 f   Player.obj
 0001:00003090       ?InitSkillFromConfig@CPlayer@@QAEXXZ 00404090 f   Player.obj
 0001:000030a0       ?InterruptTaskByEmergencyLevel@CPlayer@@QAE_NXZ 004040a0 f   Player.obj
 0001:000030b0       ?ResetTaskEmergencyLevel@CPlayer@@QAEXXZ 004040b0 f   Player.obj
 0001:000030c0       ?SetResCode@CPlayer@@QAEXH@Z 004040c0 f   Player.obj
 0001:000030d0       ?GetResCode@CPlayer@@QAEHXZ 004040d0 f   Player.obj
 0001:000030e0       ?ResetResCode@CPlayer@@QAEXXZ 004040e0 f   Player.obj
 0001:000030f0       ?SetMoveSucc@CPlayer@@QAEX_N@Z 004040f0 f   Player.obj
 0001:00003100       ?ThreadProcessTask@CPlayer@@SGKPAX@Z 00404100 f   Player.obj
 0001:00003150       ??0?$map@H_JU?$less@H@std@@V?$allocator@U?$pair@$$CBH_J@std@@@2@@std@@QAE@XZ 00404150 f i Player.obj
 0001:00003170       ??1?$_Tree@V?$_Tmap_traits@H_JU?$less@H@std@@V?$allocator@U?$pair@$$CBH_J@std@@@2@$0A@@std@@@std@@QAE@XZ 00404170 f i Player.obj
 0001:000031d0       ??0?$vector@V?$basic_string@_WU?$char_traits@_W@std@@V?$allocator@_W@2@@std@@V?$allocator@V?$basic_string@_WU?$char_traits@_W@std@@V?$allocator@_W@2@@std@@@2@@std@@QAE@XZ 004041d0 f i Player.obj
 0001:00003210       ??1?$vector@V?$basic_string@_WU?$char_traits@_W@std@@V?$allocator@_W@2@@std@@V?$allocator@V?$basic_string@_WU?$char_traits@_W@std@@V?$allocator@_W@2@@std@@@2@@std@@QAE@XZ 00404210 f i Player.obj
 0001:00003270       ??0?$vector@HV?$allocator@H@std@@@std@@QAE@XZ 00404270 f i Player.obj
 0001:000032b0       ??1?$vector@HV?$allocator@H@std@@@std@@QAE@XZ 004042b0 f i Player.obj
 0001:00003330       ??0?$map@HHU?$less@H@std@@V?$allocator@U?$pair@$$CBHH@std@@@2@@std@@QAE@XZ 00404330 f i Player.obj
 0001:00003340       ??1?$_Tree@V?$_Tmap_traits@HHU?$less@H@std@@V?$allocator@U?$pair@$$CBHH@std@@@2@$0A@@std@@@std@@QAE@XZ 00404340 f i Player.obj
 0001:000033a0       ??1iterator@?$_Tree@V?$_Tmap_traits@H_JU?$less@H@std@@V?$allocator@U?$pair@$$CBH_J@std@@@2@$0A@@std@@@std@@QAE@XZ 004043a0 f i Player.obj
 0001:000033b0       ??0const_iterator@?$_Tree@V?$_Tmap_traits@H_JU?$less@H@std@@V?$allocator@U?$pair@$$CBH_J@std@@@2@$0A@@std@@@std@@QAE@ABV012@@Z 004043b0 f i Player.obj
 0001:000033e0       ??1const_iterator@?$_Tree@V?$_Tmap_traits@H_JU?$less@H@std@@V?$allocator@U?$pair@$$CBH_J@std@@@2@$0A@@std@@@std@@QAE@XZ 004043e0 f i Player.obj
 0001:000033f0       ??1?$_Tree_val@V?$_Tmap_traits@H_JU?$less@H@std@@V?$allocator@U?$pair@$$CBH_J@std@@@2@$0A@@std@@@std@@QAE@XZ 004043f0 f i Player.obj
 0001:00003400       ??1?$_Vector_val@V?$basic_string@_WU?$char_traits@_W@std@@V?$allocator@_W@2@@std@@V?$allocator@V?$basic_string@_WU?$char_traits@_W@std@@V?$allocator@_W@2@@std@@@2@@std@@QAE@XZ 00404400 f i Player.obj
 0001:00003410       ??1?$_Vector_val@HV?$allocator@H@std@@@std@@QAE@XZ 00404410 f i Player.obj
 0001:00003420       ??1?$_Tree_val@V?$_Tmap_traits@HHU?$less@H@std@@V?$allocator@U?$pair@$$CBHH@std@@@2@$0A@@std@@@std@@QAE@XZ 00404420 f i Player.obj
 0001:00003430       ??1iterator@?$_Tree@V?$_Tmap_traits@HHU?$less@H@std@@V?$allocator@U?$pair@$$CBHH@std@@@2@$0A@@std@@@std@@QAE@XZ 00404430 f i Player.obj
 0001:00003440       ??0const_iterator@?$_Tree@V?$_Tmap_traits@HHU?$less@H@std@@V?$allocator@U?$pair@$$CBHH@std@@@2@$0A@@std@@@std@@QAE@ABV012@@Z 00404440 f i Player.obj
 0001:00003460       ??1const_iterator@?$_Tree@V?$_Tmap_traits@HHU?$less@H@std@@V?$allocator@U?$pair@$$CBHH@std@@@2@$0A@@std@@@std@@QAE@XZ 00404460 f i Player.obj
 0001:00003470       ??0?$_Bidit@U?$pair@$$CBH_J@std@@HPBU12@ABU12@@std@@QAE@ABU01@@Z 00404470 f i Player.obj
 0001:00003490       ??1?$_Bidit@U?$pair@$$CBH_J@std@@HPBU12@ABU12@@std@@QAE@XZ 00404490 f i Player.obj
 0001:000034a0       ??1?$_Tree_ptr@V?$_Tmap_traits@H_JU?$less@H@std@@V?$allocator@U?$pair@$$CBH_J@std@@@2@$0A@@std@@@std@@QAE@XZ 004044a0 f i Player.obj
 0001:000034b0       ??1?$_Tree_ptr@V?$_Tmap_traits@HHU?$less@H@std@@V?$allocator@U?$pair@$$CBHH@std@@@2@$0A@@std@@@std@@QAE@XZ 004044b0 f i Player.obj
 0001:000034c0       ??0?$_Bidit@U?$pair@$$CBHH@std@@HPBU12@ABU12@@std@@QAE@ABU01@@Z 004044c0 f i Player.obj
 0001:000034e0       ??1?$_Bidit@U?$pair@$$CBHH@std@@HPBU12@ABU12@@std@@QAE@XZ 004044e0 f i Player.obj
 0001:000034f0       ??0?$_Iterator_with_base@Ubidirectional_iterator_tag@std@@U?$pair@$$CBH_J@2@HPBU32@ABU32@V_Iterator_base@2@@std@@QAE@ABU01@@Z 004044f0 f i Player.obj
 0001:00003510       ??1?$_Iterator_with_base@Ubidirectional_iterator_tag@std@@U?$pair@$$CBH_J@2@HPBU32@ABU32@V_Iterator_base@2@@std@@QAE@XZ 00404510 f i Player.obj
 0001:00003520       ??1?$_Tree_nod@V?$_Tmap_traits@H_JU?$less@H@std@@V?$allocator@U?$pair@$$CBH_J@std@@@2@$0A@@std@@@std@@QAE@XZ 00404520 f i Player.obj
 0001:00003530       ??1?$_Tree_nod@V?$_Tmap_traits@HHU?$less@H@std@@V?$allocator@U?$pair@$$CBHH@std@@@2@$0A@@std@@@std@@QAE@XZ 00404530 f i Player.obj
 0001:00003540       ??0?$_Iterator_with_base@Ubidirectional_iterator_tag@std@@U?$pair@$$CBHH@2@HPBU32@ABU32@V_Iterator_base@2@@std@@QAE@ABU01@@Z 00404540 f i Player.obj
 0001:00003560       ??1?$_Iterator_with_base@Ubidirectional_iterator_tag@std@@U?$pair@$$CBHH@2@HPBU32@ABU32@V_Iterator_base@2@@std@@QAE@XZ 00404560 f i Player.obj
 0001:00003570       ??1?$_Tmap_traits@H_JU?$less@H@std@@V?$allocator@U?$pair@$$CBH_J@std@@@2@$0A@@std@@QAE@XZ 00404570 f i Player.obj
 0001:00003580       ??1?$_Tmap_traits@HHU?$less@H@std@@V?$allocator@U?$pair@$$CBHH@std@@@2@$0A@@std@@QAE@XZ 00404580 f i Player.obj
 0001:00003590       ??0?$_Tree@V?$_Tmap_traits@H_JU?$less@H@std@@V?$allocator@U?$pair@$$CBH_J@std@@@2@$0A@@std@@@std@@QAE@ABU?$less@H@1@ABV?$allocator@U?$pair@$$CBH_J@std@@@1@@Z 00404590 f i Player.obj
 0001:00003600       ?begin@?$_Tree@V?$_Tmap_traits@H_JU?$less@H@std@@V?$allocator@U?$pair@$$CBH_J@std@@@2@$0A@@std@@@std@@QAE?AViterator@12@XZ 00404600 f i Player.obj
 0001:00003660       ?end@?$_Tree@V?$_Tmap_traits@H_JU?$less@H@std@@V?$allocator@U?$pair@$$CBH_J@std@@@2@$0A@@std@@@std@@QAE?AViterator@12@XZ 00404660 f i Player.obj
 0001:000036c0       ?erase@?$_Tree@V?$_Tmap_traits@H_JU?$less@H@std@@V?$allocator@U?$pair@$$CBH_J@std@@@2@$0A@@std@@@std@@QAE?AViterator@12@Vconst_iterator@12@0@Z 004046c0 f i Player.obj
 0001:00003920       ?_Tidy@?$_Tree@V?$_Tmap_traits@H_JU?$less@H@std@@V?$allocator@U?$pair@$$CBH_J@std@@@2@$0A@@std@@@std@@IAEXXZ 00404920 f i Player.obj
 0001:00003a10       ??1?$_Container_base_aux_alloc_empty@V?$allocator@U?$pair@$$CBH_J@std@@@std@@@std@@IAE@XZ 00404a10 f i Player.obj
 0001:00003a20       ??0?$allocator@U?$pair@$$CBH_J@std@@@std@@QAE@XZ 00404a20 f i Player.obj
 0001:00003a30       ??0?$allocator@H@std@@QAE@XZ 00404a30 f i Player.obj
 0001:00003a40       ?_Buy@?$vector@V?$basic_string@_WU?$char_traits@_W@std@@V?$allocator@_W@2@@std@@V?$allocator@V?$basic_string@_WU?$char_traits@_W@std@@V?$allocator@_W@2@@std@@@2@@std@@IAE_NI@Z 00404a40 f i Player.obj
 0001:00003a90       ?_Tidy@?$vector@V?$basic_string@_WU?$char_traits@_W@std@@V?$allocator@_W@2@@std@@V?$allocator@V?$basic_string@_WU?$char_traits@_W@std@@V?$allocator@_W@2@@std@@@2@@std@@IAEXXZ 00404a90 f i Player.obj
 0001:00003af0       ??0?$_Vector_val@V?$basic_string@_WU?$char_traits@_W@std@@V?$allocator@_W@2@@std@@V?$allocator@V?$basic_string@_WU?$char_traits@_W@std@@V?$allocator@_W@2@@std@@@2@@std@@IAE@V?$allocator@V?$basic_string@_WU?$char_traits@_W@std@@V?$allocator@_W@2@@std@@@1@@Z 00404af0 f i Player.obj
 0001:00003b00       ??1?$_Container_base_aux_alloc_empty@V?$allocator@V?$basic_string@_WU?$char_traits@_W@std@@V?$allocator@_W@2@@std@@@std@@@std@@IAE@XZ 00404b00 f i Player.obj
 0001:00003b10       ??0?$allocator@V?$basic_string@_WU?$char_traits@_W@std@@V?$allocator@_W@2@@std@@@std@@QAE@XZ 00404b10 f i Player.obj
 0001:00003b20       ?_Tidy@?$vector@HV?$allocator@H@std@@@std@@IAEXXZ 00404b20 f i Player.obj
 0001:00003b60       ??0?$_Vector_val@HV?$allocator@H@std@@@std@@IAE@V?$allocator@H@1@@Z 00404b60 f i Player.obj
 0001:00003b70       ??1?$_Container_base_aux_alloc_empty@V?$allocator@H@std@@@std@@IAE@XZ 00404b70 f i Player.obj
 0001:00003b80       ??0?$_Tree@V?$_Tmap_traits@HHU?$less@H@std@@V?$allocator@U?$pair@$$CBHH@std@@@2@$0A@@std@@@std@@QAE@ABU?$less@H@1@ABV?$allocator@U?$pair@$$CBHH@std@@@1@@Z 00404b80 f i Player.obj
 0001:00003bf0       ?begin@?$_Tree@V?$_Tmap_traits@HHU?$less@H@std@@V?$allocator@U?$pair@$$CBHH@std@@@2@$0A@@std@@@std@@QAE?AViterator@12@XZ 00404bf0 f i Player.obj
 0001:00003c50       ?end@?$_Tree@V?$_Tmap_traits@HHU?$less@H@std@@V?$allocator@U?$pair@$$CBHH@std@@@2@$0A@@std@@@std@@QAE?AViterator@12@XZ 00404c50 f i Player.obj
 0001:00003cb0       ?erase@?$_Tree@V?$_Tmap_traits@HHU?$less@H@std@@V?$allocator@U?$pair@$$CBHH@std@@@2@$0A@@std@@@std@@QAE?AViterator@12@Vconst_iterator@12@0@Z 00404cb0 f i Player.obj
 0001:00003f00       ?_Tidy@?$_Tree@V?$_Tmap_traits@HHU?$less@H@std@@V?$allocator@U?$pair@$$CBHH@std@@@2@$0A@@std@@@std@@IAEXXZ 00404f00 f i Player.obj
 0001:00003ff0       ??1?$_Container_base_aux_alloc_empty@V?$allocator@U?$pair@$$CBHH@std@@@std@@@std@@IAE@XZ 00404ff0 f i Player.obj
 0001:00004000       ??0?$allocator@U?$pair@$$CBHH@std@@@std@@QAE@XZ 00405000 f i Player.obj
 0001:00004010       ??8const_iterator@?$_Tree@V?$_Tmap_traits@H_JU?$less@H@std@@V?$allocator@U?$pair@$$CBH_J@std@@@2@$0A@@std@@@std@@QBE_NABV012@@Z 00405010 f i Player.obj
 0001:00004090       ?_Mynode@const_iterator@?$_Tree@V?$_Tmap_traits@H_JU?$less@H@std@@V?$allocator@U?$pair@$$CBH_J@std@@@2@$0A@@std@@@std@@QBEPAU_Node@?$_Tree_nod@V?$_Tmap_traits@H_JU?$less@H@std@@V?$allocator@U?$pair@$$CBH_J@std@@@2@$0A@@std@@@3@XZ 00405090 f i Player.obj
 0001:000040a0       ??0iterator@?$_Tree@V?$_Tmap_traits@H_JU?$less@H@std@@V?$allocator@U?$pair@$$CBH_J@std@@@2@$0A@@std@@@std@@QAE@ABV012@@Z 004050a0 f i Player.obj
 0001:000040d0       ?_Isnil@?$_Tree@V?$_Tmap_traits@H_JU?$less@H@std@@V?$allocator@U?$pair@$$CBH_J@std@@@2@$0A@@std@@@std@@KAAADPAU_Node@?$_Tree_nod@V?$_Tmap_traits@H_JU?$less@H@std@@V?$allocator@U?$pair@$$CBH_J@std@@@2@$0A@@std@@@2@@Z 004050d0 f i Player.obj
 0001:000040e0       ?_Left@?$_Tree@V?$_Tmap_traits@H_JU?$less@H@std@@V?$allocator@U?$pair@$$CBH_J@std@@@2@$0A@@std@@@std@@KAAAPAU_Node@?$_Tree_nod@V?$_Tmap_traits@H_JU?$less@H@std@@V?$allocator@U?$pair@$$CBH_J@std@@@2@$0A@@std@@@2@PAU342@@Z 004050e0 f i Player.obj
 0001:000040f0       ?_Parent@?$_Tree@V?$_Tmap_traits@H_JU?$less@H@std@@V?$allocator@U?$pair@$$CBH_J@std@@@2@$0A@@std@@@std@@KAAAPAU_Node@?$_Tree_nod@V?$_Tmap_traits@H_JU?$less@H@std@@V?$allocator@U?$pair@$$CBH_J@std@@@2@$0A@@std@@@2@PAU342@@Z 004050f0 f i Player.obj
 0001:00004100       ?_Right@?$_Tree@V?$_Tmap_traits@H_JU?$less@H@std@@V?$allocator@U?$pair@$$CBH_J@std@@@2@$0A@@std@@@std@@KAAAPAU_Node@?$_Tree_nod@V?$_Tmap_traits@H_JU?$less@H@std@@V?$allocator@U?$pair@$$CBH_J@std@@@2@$0A@@std@@@2@PAU342@@Z 00405100 f i Player.obj
 0001:00004110       ?_Make_iter@?$_Tree@V?$_Tmap_traits@H_JU?$less@H@std@@V?$allocator@U?$pair@$$CBH_J@std@@@2@$0A@@std@@@std@@QBE?AViterator@12@Vconst_iterator@12@@Z 00405110 f i Player.obj
 0001:000041c0       ?erase@?$_Tree@V?$_Tmap_traits@H_JU?$less@H@std@@V?$allocator@U?$pair@$$CBH_J@std@@@2@$0A@@std@@@std@@QAE?AViterator@12@Vconst_iterator@12@@Z 004051c0 f i Player.obj
 0001:000045a0       ?clear@?$_Tree@V?$_Tmap_traits@H_JU?$less@H@std@@V?$allocator@U?$pair@$$CBH_J@std@@@2@$0A@@std@@@std@@QAEXXZ 004055a0 f i Player.obj
 0001:00004640       ?_Init@?$_Tree@V?$_Tmap_traits@H_JU?$less@H@std@@V?$allocator@U?$pair@$$CBH_J@std@@@2@$0A@@std@@@std@@IAEXXZ 00405640 f i Player.obj
 0001:00004670       ?_Lmost@?$_Tree@V?$_Tmap_traits@H_JU?$less@H@std@@V?$allocator@U?$pair@$$CBH_J@std@@@2@$0A@@std@@@std@@IBEAAPAU_Node@?$_Tree_nod@V?$_Tmap_traits@H_JU?$less@H@std@@V?$allocator@U?$pair@$$CBH_J@std@@@2@$0A@@std@@@2@XZ 00405670 f i Player.obj
 0001:00004680       ?_Max@?$_Tree@V?$_Tmap_traits@H_JU?$less@H@std@@V?$allocator@U?$pair@$$CBH_J@std@@@2@$0A@@std@@@std@@KAPAU_Node@?$_Tree_nod@V?$_Tmap_traits@H_JU?$less@H@std@@V?$allocator@U?$pair@$$CBH_J@std@@@2@$0A@@std@@@2@PAU342@@Z 00405680 f i Player.obj
 0001:000046a0       ?_Min@?$_Tree@V?$_Tmap_traits@H_JU?$less@H@std@@V?$allocator@U?$pair@$$CBH_J@std@@@2@$0A@@std@@@std@@KAPAU_Node@?$_Tree_nod@V?$_Tmap_traits@H_JU?$less@H@std@@V?$allocator@U?$pair@$$CBH_J@std@@@2@$0A@@std@@@2@PAU342@@Z 004056a0 f i Player.obj
 0001:000046c0       ?_Rmost@?$_Tree@V?$_Tmap_traits@H_JU?$less@H@std@@V?$allocator@U?$pair@$$CBH_J@std@@@2@$0A@@std@@@std@@IBEAAPAU_Node@?$_Tree_nod@V?$_Tmap_traits@H_JU?$less@H@std@@V?$allocator@U?$pair@$$CBH_J@std@@@2@$0A@@std@@@2@XZ 004056c0 f i Player.obj
 0001:000046d0       ?_Root@?$_Tree@V?$_Tmap_traits@H_JU?$less@H@std@@V?$allocator@U?$pair@$$CBH_J@std@@@2@$0A@@std@@@std@@IBEAAPAU_Node@?$_Tree_nod@V?$_Tmap_traits@H_JU?$less@H@std@@V?$allocator@U?$pair@$$CBH_J@std@@@2@$0A@@std@@@2@XZ 004056d0 f i Player.obj
 0001:000046e0       ??0?$_Tree_val@V?$_Tmap_traits@H_JU?$less@H@std@@V?$allocator@U?$pair@$$CBH_J@std@@@2@$0A@@std@@@std@@IAE@ABU?$less@H@1@V?$allocator@U?$pair@$$CBH_J@std@@@1@@Z 004056e0 f i Player.obj
 0001:000046f0       ??0?$allocator@U?$pair@$$CBH_J@std@@@std@@QAE@ABV01@@Z 004056f0 f i Player.obj
 0001:00004700       ?deallocate@?$allocator@U_Node@?$_Tree_nod@V?$_Tmap_traits@H_JU?$less@H@std@@V?$allocator@U?$pair@$$CBH_J@std@@@2@$0A@@std@@@std@@@std@@QAEXPAU_Node@?$_Tree_nod@V?$_Tmap_traits@H_JU?$less@H@std@@V?$allocator@U?$pair@$$CBH_J@std@@@2@$0A@@std@@@2@I@Z 00405700 f i Player.obj
 0001:00004710       ?destroy@?$allocator@PAU_Node@?$_Tree_nod@V?$_Tmap_traits@H_JU?$less@H@std@@V?$allocator@U?$pair@$$CBH_J@std@@@2@$0A@@std@@@std@@@std@@QAEXPAPAU_Node@?$_Tree_nod@V?$_Tmap_traits@H_JU?$less@H@std@@V?$allocator@U?$pair@$$CBH_J@std@@@2@$0A@@std@@@2@@Z 00405710 f i Player.obj
 0001:00004720       ??0?$allocator@H@std@@QAE@ABV01@@Z 00405720 f i Player.obj
 0001:00004730       ?max_size@?$vector@V?$basic_string@_WU?$char_traits@_W@std@@V?$allocator@_W@2@@std@@V?$allocator@V?$basic_string@_WU?$char_traits@_W@std@@V?$allocator@_W@2@@std@@@2@@std@@QBEIXZ 00405730 f i Player.obj
 0001:00004740       ?_Destroy@?$vector@V?$basic_string@_WU?$char_traits@_W@std@@V?$allocator@_W@2@@std@@V?$allocator@V?$basic_string@_WU?$char_traits@_W@std@@V?$allocator@_W@2@@std@@@2@@std@@IAEXPAV?$basic_string@_WU?$char_traits@_W@std@@V?$allocator@_W@2@@2@0@Z 00405740 f i Player.obj
 0001:00004770       ?_Xlen@?$vector@V?$basic_string@_WU?$char_traits@_W@std@@V?$allocator@_W@2@@std@@V?$allocator@V?$basic_string@_WU?$char_traits@_W@std@@V?$allocator@_W@2@@std@@@2@@std@@KAXXZ 00405770 f i Player.obj
 0001:00004800       ??0?$_Container_base_aux_alloc_empty@V?$allocator@V?$basic_string@_WU?$char_traits@_W@std@@V?$allocator@_W@2@@std@@@std@@@std@@IAE@V?$allocator@V?$basic_string@_WU?$char_traits@_W@std@@V?$allocator@_W@2@@std@@@1@@Z 00405800 f i Player.obj
 0001:00004810       ??0?$allocator@V?$basic_string@_WU?$char_traits@_W@std@@V?$allocator@_W@2@@std@@@std@@QAE@ABV01@@Z 00405810 f i Player.obj
 0001:00004820       ?deallocate@?$allocator@V?$basic_string@_WU?$char_traits@_W@std@@V?$allocator@_W@2@@std@@@std@@QAEXPAV?$basic_string@_WU?$char_traits@_W@std@@V?$allocator@_W@2@@2@I@Z 00405820 f i Player.obj
 0001:00004830       ?allocate@?$allocator@V?$basic_string@_WU?$char_traits@_W@std@@V?$allocator@_W@2@@std@@@std@@QAEPAV?$basic_string@_WU?$char_traits@_W@std@@V?$allocator@_W@2@@2@I@Z 00405830 f i Player.obj
 0001:00004890       ??0?$_Container_base_aux_alloc_empty@V?$allocator@H@std@@@std@@IAE@V?$allocator@H@1@@Z 00405890 f i Player.obj
 0001:000048a0       ?_Isnil@?$_Tree@V?$_Tmap_traits@HHU?$less@H@std@@V?$allocator@U?$pair@$$CBHH@std@@@2@$0A@@std@@@std@@KAAADPAU_Node@?$_Tree_nod@V?$_Tmap_traits@HHU?$less@H@std@@V?$allocator@U?$pair@$$CBHH@std@@@2@$0A@@std@@@2@@Z 004058a0 f i Player.obj
 0001:000048b0       ?_Left@?$_Tree@V?$_Tmap_traits@HHU?$less@H@std@@V?$allocator@U?$pair@$$CBHH@std@@@2@$0A@@std@@@std@@KAAAPAU_Node@?$_Tree_nod@V?$_Tmap_traits@HHU?$less@H@std@@V?$allocator@U?$pair@$$CBHH@std@@@2@$0A@@std@@@2@PAU342@@Z 004058b0 f i Player.obj
 0001:000048c0       ?_Parent@?$_Tree@V?$_Tmap_traits@HHU?$less@H@std@@V?$allocator@U?$pair@$$CBHH@std@@@2@$0A@@std@@@std@@KAAAPAU_Node@?$_Tree_nod@V?$_Tmap_traits@HHU?$less@H@std@@V?$allocator@U?$pair@$$CBHH@std@@@2@$0A@@std@@@2@PAU342@@Z 004058c0 f i Player.obj
 0001:000048d0       ?_Right@?$_Tree@V?$_Tmap_traits@HHU?$less@H@std@@V?$allocator@U?$pair@$$CBHH@std@@@2@$0A@@std@@@std@@KAAAPAU_Node@?$_Tree_nod@V?$_Tmap_traits@HHU?$less@H@std@@V?$allocator@U?$pair@$$CBHH@std@@@2@$0A@@std@@@2@PAU342@@Z 004058d0 f i Player.obj
 0001:000048e0       ?_Make_iter@?$_Tree@V?$_Tmap_traits@HHU?$less@H@std@@V?$allocator@U?$pair@$$CBHH@std@@@2@$0A@@std@@@std@@QBE?AViterator@12@Vconst_iterator@12@@Z 004058e0 f i Player.obj
 0001:00004990       ?erase@?$_Tree@V?$_Tmap_traits@HHU?$less@H@std@@V?$allocator@U?$pair@$$CBHH@std@@@2@$0A@@std@@@std@@QAE?AViterator@12@Vconst_iterator@12@@Z 00405990 f i Player.obj
 0001:00004d60       ?clear@?$_Tree@V?$_Tmap_traits@HHU?$less@H@std@@V?$allocator@U?$pair@$$CBHH@std@@@2@$0A@@std@@@std@@QAEXXZ 00405d60 f i Player.obj
 0001:00004e00       ?_Init@?$_Tree@V?$_Tmap_traits@HHU?$less@H@std@@V?$allocator@U?$pair@$$CBHH@std@@@2@$0A@@std@@@std@@IAEXXZ 00405e00 f i Player.obj
 0001:00004e30       ?_Lmost@?$_Tree@V?$_Tmap_traits@HHU?$less@H@std@@V?$allocator@U?$pair@$$CBHH@std@@@2@$0A@@std@@@std@@IBEAAPAU_Node@?$_Tree_nod@V?$_Tmap_traits@HHU?$less@H@std@@V?$allocator@U?$pair@$$CBHH@std@@@2@$0A@@std@@@2@XZ 00405e30 f i Player.obj
 0001:00004e40       ?_Max@?$_Tree@V?$_Tmap_traits@HHU?$less@H@std@@V?$allocator@U?$pair@$$CBHH@std@@@2@$0A@@std@@@std@@KAPAU_Node@?$_Tree_nod@V?$_Tmap_traits@HHU?$less@H@std@@V?$allocator@U?$pair@$$CBHH@std@@@2@$0A@@std@@@2@PAU342@@Z 00405e40 f i Player.obj
 0001:00004e60       ?_Min@?$_Tree@V?$_Tmap_traits@HHU?$less@H@std@@V?$allocator@U?$pair@$$CBHH@std@@@2@$0A@@std@@@std@@KAPAU_Node@?$_Tree_nod@V?$_Tmap_traits@HHU?$less@H@std@@V?$allocator@U?$pair@$$CBHH@std@@@2@$0A@@std@@@2@PAU342@@Z 00405e60 f i Player.obj
 0001:00004e80       ?_Rmost@?$_Tree@V?$_Tmap_traits@HHU?$less@H@std@@V?$allocator@U?$pair@$$CBHH@std@@@2@$0A@@std@@@std@@IBEAAPAU_Node@?$_Tree_nod@V?$_Tmap_traits@HHU?$less@H@std@@V?$allocator@U?$pair@$$CBHH@std@@@2@$0A@@std@@@2@XZ 00405e80 f i Player.obj
 0001:00004e90       ?_Root@?$_Tree@V?$_Tmap_traits@HHU?$less@H@std@@V?$allocator@U?$pair@$$CBHH@std@@@2@$0A@@std@@@std@@IBEAAPAU_Node@?$_Tree_nod@V?$_Tmap_traits@HHU?$less@H@std@@V?$allocator@U?$pair@$$CBHH@std@@@2@$0A@@std@@@2@XZ 00405e90 f i Player.obj
 0001:00004ea0       ??0?$_Tree_val@V?$_Tmap_traits@HHU?$less@H@std@@V?$allocator@U?$pair@$$CBHH@std@@@2@$0A@@std@@@std@@IAE@ABU?$less@H@1@V?$allocator@U?$pair@$$CBHH@std@@@1@@Z 00405ea0 f i Player.obj
 0001:00004eb0       ??0?$allocator@U?$pair@$$CBHH@std@@@std@@QAE@ABV01@@Z 00405eb0 f i Player.obj
 0001:00004ec0       ?deallocate@?$allocator@U_Node@?$_Tree_nod@V?$_Tmap_traits@HHU?$less@H@std@@V?$allocator@U?$pair@$$CBHH@std@@@2@$0A@@std@@@std@@@std@@QAEXPAU_Node@?$_Tree_nod@V?$_Tmap_traits@HHU?$less@H@std@@V?$allocator@U?$pair@$$CBHH@std@@@2@$0A@@std@@@2@I@Z 00405ec0 f i Player.obj
 0001:00004ed0       ?destroy@?$allocator@PAU_Node@?$_Tree_nod@V?$_Tmap_traits@HHU?$less@H@std@@V?$allocator@U?$pair@$$CBHH@std@@@2@$0A@@std@@@std@@@std@@QAEXPAPAU_Node@?$_Tree_nod@V?$_Tmap_traits@HHU?$less@H@std@@V?$allocator@U?$pair@$$CBHH@std@@@2@$0A@@std@@@2@@Z 00405ed0 f i Player.obj
 0001:00004ee0       ??0iterator@?$_Tree@V?$_Tmap_traits@H_JU?$less@H@std@@V?$allocator@U?$pair@$$CBH_J@std@@@2@$0A@@std@@@std@@QAE@PAU_Node@?$_Tree_nod@V?$_Tmap_traits@H_JU?$less@H@std@@V?$allocator@U?$pair@$$CBH_J@std@@@2@$0A@@std@@@2@PBV12@@Z 00405ee0 f i Player.obj
 0001:00004f40       ??Econst_iterator@?$_Tree@V?$_Tmap_traits@H_JU?$less@H@std@@V?$allocator@U?$pair@$$CBH_J@std@@@2@$0A@@std@@@std@@QAEAAV012@XZ 00405f40 f i Player.obj
 0001:00004f50       ??Econst_iterator@?$_Tree@V?$_Tmap_traits@H_JU?$less@H@std@@V?$allocator@U?$pair@$$CBH_J@std@@@2@$0A@@std@@@std@@QAE?AV012@H@Z 00405f50 f i Player.obj
 0001:00004fd0       ??9const_iterator@?$_Tree@V?$_Tmap_traits@H_JU?$less@H@std@@V?$allocator@U?$pair@$$CBH_J@std@@@2@$0A@@std@@@std@@QBE_NABV012@@Z 00405fd0 f i Player.obj
 0001:00004ff0       ??0iterator@?$_Tree@V?$_Tmap_traits@HHU?$less@H@std@@V?$allocator@U?$pair@$$CBHH@std@@@2@$0A@@std@@@std@@QAE@PAU_Node@?$_Tree_nod@V?$_Tmap_traits@HHU?$less@H@std@@V?$allocator@U?$pair@$$CBHH@std@@@2@$0A@@std@@@2@PBV12@@Z 00405ff0 f i Player.obj
 0001:00005050       ??Econst_iterator@?$_Tree@V?$_Tmap_traits@HHU?$less@H@std@@V?$allocator@U?$pair@$$CBHH@std@@@2@$0A@@std@@@std@@QAE?AV012@H@Z 00406050 f i Player.obj
 0001:000050c0       ??8const_iterator@?$_Tree@V?$_Tmap_traits@HHU?$less@H@std@@V?$allocator@U?$pair@$$CBHH@std@@@2@$0A@@std@@@std@@QBE_NABV012@@Z 004060c0 f i Player.obj
 0001:00005130       ??9const_iterator@?$_Tree@V?$_Tmap_traits@HHU?$less@H@std@@V?$allocator@U?$pair@$$CBHH@std@@@2@$0A@@std@@@std@@QBE_NABV012@@Z 00406130 f i Player.obj
 0001:00005140       ??0iterator@?$_Tree@V?$_Tmap_traits@HHU?$less@H@std@@V?$allocator@U?$pair@$$CBHH@std@@@2@$0A@@std@@@std@@QAE@ABV012@@Z 00406140 f i Player.obj
 0001:00005160       ??0?$_Bidit@U?$pair@$$CBH_J@std@@HPBU12@ABU12@@std@@QAE@XZ 00406160 f i Player.obj
 0001:00005170       ??0?$_Iterator_with_base@Ubidirectional_iterator_tag@std@@U?$pair@$$CBH_J@2@HPBU32@ABU32@V_Iterator_base@2@@std@@QAE@XZ 00406170 f i Player.obj
 0001:00005180       ?_Color@?$_Tree@V?$_Tmap_traits@H_JU?$less@H@std@@V?$allocator@U?$pair@$$CBH_J@std@@@2@$0A@@std@@@std@@KAAADPAU_Node@?$_Tree_nod@V?$_Tmap_traits@H_JU?$less@H@std@@V?$allocator@U?$pair@$$CBH_J@std@@@2@$0A@@std@@@2@@Z 00406180 f i Player.obj
 0001:00005190       ?_Erase@?$_Tree@V?$_Tmap_traits@H_JU?$less@H@std@@V?$allocator@U?$pair@$$CBH_J@std@@@2@$0A@@std@@@std@@IAEXPAU_Node@?$_Tree_nod@V?$_Tmap_traits@H_JU?$less@H@std@@V?$allocator@U?$pair@$$CBH_J@std@@@2@$0A@@std@@@2@@Z 00406190 f i Player.obj
 0001:000051d0       ?_Lrotate@?$_Tree@V?$_Tmap_traits@H_JU?$less@H@std@@V?$allocator@U?$pair@$$CBH_J@std@@@2@$0A@@std@@@std@@IAEXPAU_Node@?$_Tree_nod@V?$_Tmap_traits@H_JU?$less@H@std@@V?$allocator@U?$pair@$$CBH_J@std@@@2@$0A@@std@@@2@@Z 004061d0 f i Player.obj
 0001:00005220       ?_Rrotate@?$_Tree@V?$_Tmap_traits@H_JU?$less@H@std@@V?$allocator@U?$pair@$$CBH_J@std@@@2@$0A@@std@@@std@@IAEXPAU_Node@?$_Tree_nod@V?$_Tmap_traits@H_JU?$less@H@std@@V?$allocator@U?$pair@$$CBH_J@std@@@2@$0A@@std@@@2@@Z 00406220 f i Player.obj
 0001:00005280       ?_Orphan_ptr@?$_Tree@V?$_Tmap_traits@H_JU?$less@H@std@@V?$allocator@U?$pair@$$CBH_J@std@@@2@$0A@@std@@@std@@IBEXAAV12@PAU_Node@?$_Tree_nod@V?$_Tmap_traits@H_JU?$less@H@std@@V?$allocator@U?$pair@$$CBH_J@std@@@2@$0A@@std@@@2@@Z 00406280 f i Player.obj
 0001:000052e0       ?_Buynode@?$_Tree@V?$_Tmap_traits@H_JU?$less@H@std@@V?$allocator@U?$pair@$$CBH_J@std@@@2@$0A@@std@@@std@@IAEPAU_Node@?$_Tree_nod@V?$_Tmap_traits@H_JU?$less@H@std@@V?$allocator@U?$pair@$$CBH_J@std@@@2@$0A@@std@@@2@XZ 004062e0 f i Player.obj
 0001:00005320       ??0?$_Tree_ptr@V?$_Tmap_traits@H_JU?$less@H@std@@V?$allocator@U?$pair@$$CBH_J@std@@@2@$0A@@std@@@std@@QAE@ABU?$less@H@1@V?$allocator@U?$pair@$$CBH_J@std@@@1@@Z 00406320 f i Player.obj
 0001:00005330       ?destroy@?$allocator@U_Node@?$_Tree_nod@V?$_Tmap_traits@H_JU?$less@H@std@@V?$allocator@U?$pair@$$CBH_J@std@@@2@$0A@@std@@@std@@@std@@QAEXPAU_Node@?$_Tree_nod@V?$_Tmap_traits@H_JU?$less@H@std@@V?$allocator@U?$pair@$$CBH_J@std@@@2@$0A@@std@@@2@@Z 00406330 f i Player.obj
 0001:00005340       ?max_size@?$allocator@V?$basic_string@_WU?$char_traits@_W@std@@V?$allocator@_W@2@@std@@@std@@QBEIXZ 00406340 f i Player.obj
 0001:00005350       ?_Color@?$_Tree@V?$_Tmap_traits@HHU?$less@H@std@@V?$allocator@U?$pair@$$CBHH@std@@@2@$0A@@std@@@std@@KAAADPAU_Node@?$_Tree_nod@V?$_Tmap_traits@HHU?$less@H@std@@V?$allocator@U?$pair@$$CBHH@std@@@2@$0A@@std@@@2@@Z 00406350 f i Player.obj
 0001:00005360       ?_Erase@?$_Tree@V?$_Tmap_traits@HHU?$less@H@std@@V?$allocator@U?$pair@$$CBHH@std@@@2@$0A@@std@@@std@@IAEXPAU_Node@?$_Tree_nod@V?$_Tmap_traits@HHU?$less@H@std@@V?$allocator@U?$pair@$$CBHH@std@@@2@$0A@@std@@@2@@Z 00406360 f i Player.obj
 0001:000053a0       ?_Lrotate@?$_Tree@V?$_Tmap_traits@HHU?$less@H@std@@V?$allocator@U?$pair@$$CBHH@std@@@2@$0A@@std@@@std@@IAEXPAU_Node@?$_Tree_nod@V?$_Tmap_traits@HHU?$less@H@std@@V?$allocator@U?$pair@$$CBHH@std@@@2@$0A@@std@@@2@@Z 004063a0 f i Player.obj
 0001:000053f0       ?_Rrotate@?$_Tree@V?$_Tmap_traits@HHU?$less@H@std@@V?$allocator@U?$pair@$$CBHH@std@@@2@$0A@@std@@@std@@IAEXPAU_Node@?$_Tree_nod@V?$_Tmap_traits@HHU?$less@H@std@@V?$allocator@U?$pair@$$CBHH@std@@@2@$0A@@std@@@2@@Z 004063f0 f i Player.obj
 0001:00005440       ?_Orphan_ptr@?$_Tree@V?$_Tmap_traits@HHU?$less@H@std@@V?$allocator@U?$pair@$$CBHH@std@@@2@$0A@@std@@@std@@IBEXAAV12@PAU_Node@?$_Tree_nod@V?$_Tmap_traits@HHU?$less@H@std@@V?$allocator@U?$pair@$$CBHH@std@@@2@$0A@@std@@@2@@Z 00406440 f i Player.obj
 0001:00005490       ?_Buynode@?$_Tree@V?$_Tmap_traits@HHU?$less@H@std@@V?$allocator@U?$pair@$$CBHH@std@@@2@$0A@@std@@@std@@IAEPAU_Node@?$_Tree_nod@V?$_Tmap_traits@HHU?$less@H@std@@V?$allocator@U?$pair@$$CBHH@std@@@2@$0A@@std@@@2@XZ 00406490 f i Player.obj
 0001:000054d0       ??0?$_Tree_ptr@V?$_Tmap_traits@HHU?$less@H@std@@V?$allocator@U?$pair@$$CBHH@std@@@2@$0A@@std@@@std@@QAE@ABU?$less@H@1@V?$allocator@U?$pair@$$CBHH@std@@@1@@Z 004064d0 f i Player.obj
 0001:000054e0       ?destroy@?$allocator@U_Node@?$_Tree_nod@V?$_Tmap_traits@HHU?$less@H@std@@V?$allocator@U?$pair@$$CBHH@std@@@2@$0A@@std@@@std@@@std@@QAEXPAU_Node@?$_Tree_nod@V?$_Tmap_traits@HHU?$less@H@std@@V?$allocator@U?$pair@$$CBHH@std@@@2@$0A@@std@@@2@@Z 004064e0 f i Player.obj
 0001:000054f0       ??0const_iterator@?$_Tree@V?$_Tmap_traits@H_JU?$less@H@std@@V?$allocator@U?$pair@$$CBH_J@std@@@2@$0A@@std@@@std@@QAE@PAU_Node@?$_Tree_nod@V?$_Tmap_traits@H_JU?$less@H@std@@V?$allocator@U?$pair@$$CBH_J@std@@@2@$0A@@std@@@2@PBV12@@Z 004064f0 f i Player.obj
 0001:00005550       ?_Inc@const_iterator@?$_Tree@V?$_Tmap_traits@H_JU?$less@H@std@@V?$allocator@U?$pair@$$CBH_J@std@@@2@$0A@@std@@@std@@QAEXXZ 00406550 f i Player.obj
 0001:00005600       ??0const_iterator@?$_Tree@V?$_Tmap_traits@HHU?$less@H@std@@V?$allocator@U?$pair@$$CBHH@std@@@2@$0A@@std@@@std@@QAE@PAU_Node@?$_Tree_nod@V?$_Tmap_traits@HHU?$less@H@std@@V?$allocator@U?$pair@$$CBHH@std@@@2@$0A@@std@@@2@PBV12@@Z 00406600 f i Player.obj
 0001:00005660       ??Econst_iterator@?$_Tree@V?$_Tmap_traits@HHU?$less@H@std@@V?$allocator@U?$pair@$$CBHH@std@@@2@$0A@@std@@@std@@QAEAAV012@XZ 00406660 f i Player.obj
 0001:00005670       ?_Mynode@const_iterator@?$_Tree@V?$_Tmap_traits@HHU?$less@H@std@@V?$allocator@U?$pair@$$CBHH@std@@@2@$0A@@std@@@std@@QBEPAU_Node@?$_Tree_nod@V?$_Tmap_traits@HHU?$less@H@std@@V?$allocator@U?$pair@$$CBHH@std@@@2@$0A@@std@@@3@XZ 00406670 f i Player.obj
 0001:00005680       ??0?$_Bidit@U?$pair@$$CBHH@std@@HPBU12@ABU12@@std@@QAE@XZ 00406680 f i Player.obj
 0001:00005690       ??0?$_Iterator_with_base@Ubidirectional_iterator_tag@std@@U?$pair@$$CBHH@2@HPBU32@ABU32@V_Iterator_base@2@@std@@QAE@XZ 00406690 f i Player.obj
 0001:000056a0       ??0?$_Tree_nod@V?$_Tmap_traits@H_JU?$less@H@std@@V?$allocator@U?$pair@$$CBH_J@std@@@2@$0A@@std@@@std@@IAE@ABU?$less@H@1@V?$allocator@U?$pair@$$CBH_J@std@@@1@@Z 004066a0 f i Player.obj
 0001:000056b0       ?allocate@?$allocator@U_Node@?$_Tree_nod@V?$_Tmap_traits@H_JU?$less@H@std@@V?$allocator@U?$pair@$$CBH_J@std@@@2@$0A@@std@@@std@@@std@@QAEPAU_Node@?$_Tree_nod@V?$_Tmap_traits@H_JU?$less@H@std@@V?$allocator@U?$pair@$$CBH_J@std@@@2@$0A@@std@@@2@I@Z 004066b0 f i Player.obj
 0001:00005710       ?construct@?$allocator@PAU_Node@?$_Tree_nod@V?$_Tmap_traits@H_JU?$less@H@std@@V?$allocator@U?$pair@$$CBH_J@std@@@2@$0A@@std@@@std@@@std@@QAEXPAPAU_Node@?$_Tree_nod@V?$_Tmap_traits@H_JU?$less@H@std@@V?$allocator@U?$pair@$$CBH_J@std@@@2@$0A@@std@@@2@ABQAU342@@Z 00406710 f i Player.obj
 0001:00005730       ??0?$_Tree_nod@V?$_Tmap_traits@HHU?$less@H@std@@V?$allocator@U?$pair@$$CBHH@std@@@2@$0A@@std@@@std@@IAE@ABU?$less@H@1@V?$allocator@U?$pair@$$CBHH@std@@@1@@Z 00406730 f i Player.obj
 0001:00005740       ?allocate@?$allocator@U_Node@?$_Tree_nod@V?$_Tmap_traits@HHU?$less@H@std@@V?$allocator@U?$pair@$$CBHH@std@@@2@$0A@@std@@@std@@@std@@QAEPAU_Node@?$_Tree_nod@V?$_Tmap_traits@HHU?$less@H@std@@V?$allocator@U?$pair@$$CBHH@std@@@2@$0A@@std@@@2@I@Z 00406740 f i Player.obj
 0001:00005750       ?construct@?$allocator@PAU_Node@?$_Tree_nod@V?$_Tmap_traits@HHU?$less@H@std@@V?$allocator@U?$pair@$$CBHH@std@@@2@$0A@@std@@@std@@@std@@QAEXPAPAU_Node@?$_Tree_nod@V?$_Tmap_traits@HHU?$less@H@std@@V?$allocator@U?$pair@$$CBHH@std@@@2@$0A@@std@@@2@ABQAU342@@Z 00406750 f i Player.obj
 0001:00005760       ?_Inc@const_iterator@?$_Tree@V?$_Tmap_traits@HHU?$less@H@std@@V?$allocator@U?$pair@$$CBHH@std@@@2@$0A@@std@@@std@@QAEXXZ 00406760 f i Player.obj
 0001:00005810       ??0?$_Tmap_traits@H_JU?$less@H@std@@V?$allocator@U?$pair@$$CBH_J@std@@@2@$0A@@std@@QAE@U?$less@H@1@V?$allocator@U?$pair@$$CBH_J@std@@@1@@Z 00406810 f i Player.obj
 0001:00005820       ??0?$_Tmap_traits@HHU?$less@H@std@@V?$allocator@U?$pair@$$CBHH@std@@@2@$0A@@std@@QAE@U?$less@H@1@V?$allocator@U?$pair@$$CBHH@std@@@1@@Z 00406820 f i Player.obj
 0001:00005830       ??0?$_Container_base_aux_alloc_empty@V?$allocator@U?$pair@$$CBH_J@std@@@std@@@std@@IAE@V?$allocator@U?$pair@$$CBH_J@std@@@1@@Z 00406830 f i Player.obj
 0001:00005840       ??0?$_Container_base_aux_alloc_empty@V?$allocator@U?$pair@$$CBHH@std@@@std@@@std@@IAE@V?$allocator@U?$pair@$$CBHH@std@@@1@@Z 00406840 f i Player.obj
 0001:00005850       ??$swap@D@std@@YAXAAD0@Z   00406850 f i Player.obj
 0001:00005870       ??$_Destroy@PAU_Node@?$_Tree_nod@V?$_Tmap_traits@H_JU?$less@H@std@@V?$allocator@U?$pair@$$CBH_J@std@@@2@$0A@@std@@@std@@@std@@YAXPAPAU_Node@?$_Tree_nod@V?$_Tmap_traits@H_JU?$less@H@std@@V?$allocator@U?$pair@$$CBH_J@std@@@2@$0A@@std@@@0@@Z 00406870 f i Player.obj
 0001:00005880       ??$_Destroy_range@V?$allocator@V?$basic_string@_WU?$char_traits@_W@std@@V?$allocator@_W@2@@std@@@std@@@std@@YAXPAV?$basic_string@_WU?$char_traits@_W@std@@V?$allocator@_W@2@@0@0AAV?$allocator@V?$basic_string@_WU?$char_traits@_W@std@@V?$allocator@_W@2@@std@@@0@@Z 00406880 f i Player.obj
 0001:000058b0       ??$_Allocate@V?$basic_string@_WU?$char_traits@_W@std@@V?$allocator@_W@2@@std@@@std@@YAPAV?$basic_string@_WU?$char_traits@_W@std@@V?$allocator@_W@2@@0@IPAV10@@Z 004068b0 f i Player.obj
 0001:00005910       ??$_Destroy@PAU_Node@?$_Tree_nod@V?$_Tmap_traits@HHU?$less@H@std@@V?$allocator@U?$pair@$$CBHH@std@@@2@$0A@@std@@@std@@@std@@YAXPAPAU_Node@?$_Tree_nod@V?$_Tmap_traits@HHU?$less@H@std@@V?$allocator@U?$pair@$$CBHH@std@@@2@$0A@@std@@@0@@Z 00406910 f i Player.obj
 0001:00005920       ??$?0U?$pair@$$CBH_J@std@@@?$allocator@PAU_Node@?$_Tree_nod@V?$_Tmap_traits@H_JU?$less@H@std@@V?$allocator@U?$pair@$$CBH_J@std@@@2@$0A@@std@@@std@@@std@@QAE@ABV?$allocator@U?$pair@$$CBH_J@std@@@1@@Z 00406920 f i Player.obj
 0001:00005930       ??$_Destroy@U_Node@?$_Tree_nod@V?$_Tmap_traits@H_JU?$less@H@std@@V?$allocator@U?$pair@$$CBH_J@std@@@2@$0A@@std@@@std@@@std@@YAXPAU_Node@?$_Tree_nod@V?$_Tmap_traits@H_JU?$less@H@std@@V?$allocator@U?$pair@$$CBH_J@std@@@2@$0A@@std@@@0@@Z 00406930 f i Player.obj
 0001:00005940       ??$?0U?$pair@$$CBHH@std@@@?$allocator@PAU_Node@?$_Tree_nod@V?$_Tmap_traits@HHU?$less@H@std@@V?$allocator@U?$pair@$$CBHH@std@@@2@$0A@@std@@@std@@@std@@QAE@ABV?$allocator@U?$pair@$$CBHH@std@@@1@@Z 00406940 f i Player.obj
 0001:00005950       ??$_Destroy@U_Node@?$_Tree_nod@V?$_Tmap_traits@HHU?$less@H@std@@V?$allocator@U?$pair@$$CBHH@std@@@2@$0A@@std@@@std@@@std@@YAXPAU_Node@?$_Tree_nod@V?$_Tmap_traits@HHU?$less@H@std@@V?$allocator@U?$pair@$$CBHH@std@@@2@$0A@@std@@@0@@Z 00406950 f i Player.obj
 0001:00005960       ??$?0U?$pair@$$CBH_J@std@@@?$allocator@U_Node@?$_Tree_nod@V?$_Tmap_traits@H_JU?$less@H@std@@V?$allocator@U?$pair@$$CBH_J@std@@@2@$0A@@std@@@std@@@std@@QAE@ABV?$allocator@U?$pair@$$CBH_J@std@@@1@@Z 00406960 f i Player.obj
 0001:00005970       ??$_Allocate@U_Node@?$_Tree_nod@V?$_Tmap_traits@H_JU?$less@H@std@@V?$allocator@U?$pair@$$CBH_J@std@@@2@$0A@@std@@@std@@@std@@YAPAU_Node@?$_Tree_nod@V?$_Tmap_traits@H_JU?$less@H@std@@V?$allocator@U?$pair@$$CBH_J@std@@@2@$0A@@std@@@0@IPAU120@@Z 00406970 f i Player.obj
 0001:000059d0       ??$_Construct@PAU_Node@?$_Tree_nod@V?$_Tmap_traits@H_JU?$less@H@std@@V?$allocator@U?$pair@$$CBH_J@std@@@2@$0A@@std@@@std@@PAU123@@std@@YAXPAPAU_Node@?$_Tree_nod@V?$_Tmap_traits@H_JU?$less@H@std@@V?$allocator@U?$pair@$$CBH_J@std@@@2@$0A@@std@@@0@ABQAU120@@Z 004069d0 f i Player.obj
 0001:000059f0       ??$?0U?$pair@$$CBHH@std@@@?$allocator@U_Node@?$_Tree_nod@V?$_Tmap_traits@HHU?$less@H@std@@V?$allocator@U?$pair@$$CBHH@std@@@2@$0A@@std@@@std@@@std@@QAE@ABV?$allocator@U?$pair@$$CBHH@std@@@1@@Z 004069f0 f i Player.obj
 0001:00005a00       ??$_Allocate@U_Node@?$_Tree_nod@V?$_Tmap_traits@HHU?$less@H@std@@V?$allocator@U?$pair@$$CBHH@std@@@2@$0A@@std@@@std@@@std@@YAPAU_Node@?$_Tree_nod@V?$_Tmap_traits@HHU?$less@H@std@@V?$allocator@U?$pair@$$CBHH@std@@@2@$0A@@std@@@0@IPAU120@@Z 00406a00 f i Player.obj
 0001:00005a60       ??$_Construct@PAU_Node@?$_Tree_nod@V?$_Tmap_traits@HHU?$less@H@std@@V?$allocator@U?$pair@$$CBHH@std@@@2@$0A@@std@@@std@@PAU123@@std@@YAXPAPAU_Node@?$_Tree_nod@V?$_Tmap_traits@HHU?$less@H@std@@V?$allocator@U?$pair@$$CBHH@std@@@2@$0A@@std@@@0@ABQAU120@@Z 00406a60 f i Player.obj
 0001:00005a70       ??$_Ptr_cat@PAV?$basic_string@_WU?$char_traits@_W@std@@V?$allocator@_W@2@@std@@PAV12@@std@@YA?AU_Nonscalar_ptr_iterator_tag@0@AAPAV?$basic_string@_WU?$char_traits@_W@std@@V?$allocator@_W@2@@0@0@Z 00406a70 f i Player.obj
 0001:00005a80       ??$_Destroy_range@V?$allocator@V?$basic_string@_WU?$char_traits@_W@std@@V?$allocator@_W@2@@std@@@std@@@std@@YAXPAV?$basic_string@_WU?$char_traits@_W@std@@V?$allocator@_W@2@@0@0AAV?$allocator@V?$basic_string@_WU?$char_traits@_W@std@@V?$allocator@_W@2@@std@@@0@U_Nonscalar_ptr_iterator_tag@0@@Z 00406a80 f i Player.obj
 0001:00005ab0       ?destroy@?$allocator@V?$basic_string@_WU?$char_traits@_W@std@@V?$allocator@_W@2@@std@@@std@@QAEXPAV?$basic_string@_WU?$char_traits@_W@std@@V?$allocator@_W@2@@2@@Z 00406ab0 f i Player.obj
 0001:00005ac0       ??$_Destroy@V?$basic_string@_WU?$char_traits@_W@std@@V?$allocator@_W@2@@std@@@std@@YAXPAV?$basic_string@_WU?$char_traits@_W@std@@V?$allocator@_W@2@@0@@Z 00406ac0 f i Player.obj
 0001:00005ad0       ??_G?$basic_string@_WU?$char_traits@_W@std@@V?$allocator@_W@2@@std@@QAEPAXI@Z 00406ad0 f i Player.obj
 0001:00005af0       ?SetIsFirstRunning@CGameLogicHelper@@QAEX_N@Z 00406af0 f i GameLogicHelper.obj
 0001:00005b00       ?ResetIsFirstRunning@CGameLogicHelper@@QAEXXZ 00406b00 f i GameLogicHelper.obj
 0001:00005b10       ?GetConfigSecretary1@CGameConfig@@QAEPAVCConfigSecretary1@@XZ 00406b10 f i GameLogicHelper.obj
 0001:00005b20       ??0CGameLogicHelper@@QAE@XZ 00406b20 f   GameLogicHelper.obj
 0001:00005b60       ??1CGameLogicHelper@@QAE@XZ 00406b60 f   GameLogicHelper.obj
 0001:00005b80       ?Init@CGameLogicHelper@@QAEXXZ 00406b80 f   GameLogicHelper.obj
 0001:00005ba0       ?SetPlayer@CGameLogicHelper@@QAEXPAVCPlayer@@@Z 00406ba0 f   GameLogicHelper.obj
 0001:00005bb0       ?InterruptTaskByEmergencyLevel@CGameLogicHelper@@QAE_NXZ 00406bb0 f   GameLogicHelper.obj
 0001:00005bc0       ?DoTimerTask@CGameLogicHelper@@QAEXPAVCSocketHelper@@@Z 00406bc0 f   GameLogicHelper.obj
 0001:00005bd0       ?DoSetPkModeTask@CGameLogicHelper@@QAEXPAVCGameConfig@@PAVCSocketHelper@@@Z 00406bd0 f   GameLogicHelper.obj
 0001:00005bf0       ?DoGameOperaion@CGameLogicHelper@@QAEXHHPADPAVCSocketHelper@@@Z 00406bf0 f   GameLogicHelper.obj
 0001:00005cc0       ?Test@CGameLogicHelper@@AAEXPAVCSocketHelper@@@Z 00406cc0 f   GameLogicHelper.obj
 0001:00005cd0       ?GetProtocolBuf@CProtocol@@QAEPAEXZ 00406cd0 f i SocketHelper.obj
 0001:00005ce0       ?GetProtocolBufLength@CProtocol@@QAEHXZ 00406ce0 f i SocketHelper.obj
 0001:00005cf0       ?GetProtocolIdReq@CProtocol@@QAEKXZ 00406cf0 f i SocketHelper.obj
 0001:00005d00       ?SetCaptureNow@CSocketHelper@@QAEX_N@Z 00406d00 f i SocketHelper.obj
 0001:00005d10       ?TestWriteFile@@YA_NPB_WPADH@Z 00406d10 f   SocketHelper.obj
 0001:00005e00       ??0CSocketHelper@@QAE@XZ   00406e00 f   SocketHelper.obj
 0001:00005e10       ??1CSocketHelper@@QAE@XZ   00406e10 f   SocketHelper.obj
 0001:00005e20       ?CloseAllObjects@CSocketHelper@@QAEXXZ 00406e20 f   SocketHelper.obj
 0001:00005eb0       ?Init@CSocketHelper@@QAEXXZ 00406eb0 f   SocketHelper.obj
 0001:00005f60       ?IsPlayerQuit@CSocketHelper@@QAE_NXZ 00406f60 f   SocketHelper.obj
 0001:00005f80       ?CompactData@CSocketHelper@@QAEPADPAVCProtocol@@AAH@Z 00406f80 f   SocketHelper.obj
 0001:00006070       ?SendData@CSocketHelper@@QAE_NPADH@Z 00407070 f   SocketHelper.obj
 0001:00006090       ?SendSetPkMode@CSocketHelper@@QAE_NH@Z 00407090 f   SocketHelper.obj
 0001:00006140       ?_AfxInitManaged@@YAHXZ    00407140 f i HyperLink.obj
 0001:00006150       ?_GetBaseClass@CHyperLink@@KGPAUCRuntimeClass@@XZ 00407150 f   HyperLink.obj
 0001:00006160       ?GetThisClass@CHyperLink@@SGPAUCRuntimeClass@@XZ 00407160 f   HyperLink.obj
 0001:00006170       ?GetRuntimeClass@CHyperLink@@UBEPAUCRuntimeClass@@XZ 00407170 f   HyperLink.obj
 0001:00006180       ??0CHyperLink@@QAE@XZ      00407180 f   HyperLink.obj
 0001:000061e0       ??_ECHyperLink@@UAEPAXI@Z  004071e0 f i HyperLink.obj
 0001:000061e0       ??_GCHyperLink@@UAEPAXI@Z  004071e0 f i HyperLink.obj
 0001:00006210       ??1CHyperLink@@UAE@XZ      00407210 f   HyperLink.obj
 0001:00006240       ?GetMessageMap@CHyperLink@@MBEPBUAFX_MSGMAP@@XZ 00407240 f   HyperLink.obj
 0001:00006250       ?GetThisMessageMap@CHyperLink@@KGPBUAFX_MSGMAP@@XZ 00407250 f   HyperLink.obj
 0001:00006260       ?PreSubclassWindow@CHyperLink@@MAEXXZ 00407260 f   HyperLink.obj
 0001:000062a0       ?OnMouseMove@CHyperLink@@IAEXIVCPoint@@@Z 004072a0 f   HyperLink.obj
 0001:000062e0       ?OnMouseHover@CHyperLink@@IAEJIJ@Z 004072e0 f   HyperLink.obj
 0001:00006310       ?OnMouseLeave@CHyperLink@@IAEJIJ@Z 00407310 f   HyperLink.obj
 0001:00006340       ?OnLButtonUp@CHyperLink@@IAEXIVCPoint@@@Z 00407340 f   HyperLink.obj
 0001:00006390       ?SetURL@CHyperLink@@QAEXV?$CStringT@_WV?$StrTraitMFC_DLL@_WV?$ChTraitsCRT@_W@ATL@@@@@ATL@@@Z 00407390 f   HyperLink.obj
 0001:000063f0       ?GetURL@CHyperLink@@QBE?AV?$CStringT@_WV?$StrTraitMFC_DLL@_WV?$ChTraitsCRT@_W@ATL@@@@@ATL@@XZ 004073f0 f   HyperLink.obj
 0001:00006430       ?GotoURL@CHyperLink@@IAEHPB_WH@Z 00407430 f   HyperLink.obj
 0001:00006460       ?OnPaint@CHyperLink@@IAEXXZ 00407460 f   HyperLink.obj
 0001:000066d0       ?OnSetCursor@CHyperLink@@IAEHPAVCWnd@@II@Z 004076d0 f   HyperLink.obj
 0001:00006720       ??0CEncrypt@@QAE@XZ        00407720 f   Encrypt.obj
 0001:00006740       ?Reset@CEncrypt@@QAEXXZ    00407740 f   Encrypt.obj
 0001:00006760       ??1CEncrypt@@QAE@XZ        00407760 f   Encrypt.obj
 0001:00006770       ?InitEncrypt@CEncrypt@@QAEXXZ 00407770 f   Encrypt.obj
 0001:00006780       ?EncryptData@CEncrypt@@QAEXPADH@Z 00407780 f   Encrypt.obj
 0001:00006790       ??0CProcessMutex@@QAE@XZ   00407790 f   ProcessMutex.obj
 0001:000067b0       ??1CProcessMutex@@QAE@XZ   004077b0 f   ProcessMutex.obj
 0001:000067d0       ?CloseMutex@CProcessMutex@@QAEXXZ 004077d0 f i ProcessMutex.obj
 0001:00006800       ?Unlock@CProcessMutex@@QAEXXZ 00407800 f i ProcessMutex.obj
 0001:00006820       ?Init@CProcessMutex@@QAEXXZ 00407820 f   ProcessMutex.obj
 0001:00006840       ?CreateProcessMutex@CProcessMutex@@QAE_NHPB_W@Z 00407840 f   ProcessMutex.obj
 0001:000068c0       ?OpenProcessMutex@CProcessMutex@@QAE_NPB_W@Z 004078c0 f   ProcessMutex.obj
 0001:00006920       ??0CShareMemory@@QAE@H_N@Z 00407920 f   ShareMemory.obj
 0001:00006960       ?SetMemorySize@CShareMemory@@QAEXH@Z 00407960 f i ShareMemory.obj
 0001:00006980       ?SetIsCreator@CShareMemory@@QAEX_N@Z 00407980 f i ShareMemory.obj
 0001:000069a0       ??1CShareMemory@@QAE@XZ    004079a0 f   ShareMemory.obj
 0001:000069f0       ?IsCreator@CShareMemory@@QAE_NXZ 004079f0 f i ShareMemory.obj
 0001:00006a10       ?Init@CShareMemory@@IAEXXZ 00407a10 f   ShareMemory.obj
 0001:00006a40       ?SetMemoryAddress@CShareMemory@@QAEXPAD@Z 00407a40 f i ShareMemory.obj
 0001:00006a60       ?CreateShareMemory@CShareMemory@@QAE_NPB_W@Z 00407a60 f   ShareMemory.obj
 0001:00006b40       ?OpenShareMemory@CShareMemory@@QAE_NPB_W@Z 00407b40 f   ShareMemory.obj
 0001:00006bd0       ?WriteSharedMemory@CShareMemory@@QAE_NPAXH@Z 00407bd0 f   ShareMemory.obj
 0001:00006c20       ?ReadSharedMemory@CShareMemory@@QAE_NPAXH@Z 00407c20 f   ShareMemory.obj
 0001:00006c70       ?WriteSharedMemoryByOffset@CShareMemory@@QAE_NPAXHH@Z 00407c70 f   ShareMemory.obj
 0001:00006cd0       ?ReadShreadMemoryByOffset@CShareMemory@@QAE_NPAXHH@Z 00407cd0 f   ShareMemory.obj
 0001:00006d30       ?FillSharedMemory@CShareMemory@@IAEXH@Z 00407d30 f   ShareMemory.obj
 0001:00006d70       ??0CThreadLock@@QAE@XZ     00407d70 f   ThreadLock.obj
 0001:00006d90       ??_ECThreadLock@@UAEPAXI@Z 00407d90 f i ThreadLock.obj
 0001:00006d90       ??_GCThreadLock@@UAEPAXI@Z 00407d90 f i ThreadLock.obj
 0001:00006dc0       ??1CThreadLock@@UAE@XZ     00407dc0 f   ThreadLock.obj
 0001:00006de0       ?Lock@CThreadLock@@QAEXXZ  00407de0 f   ThreadLock.obj
 0001:00006e00       ?UnLock@CThreadLock@@QAEXXZ 00407e00 f   ThreadLock.obj
 0001:00006e20       ?Init@CThreadLock@@QAEXXZ  00407e20 f   ThreadLock.obj
 0001:00006e40       ?Close@CThreadLock@@QAEXXZ 00407e40 f   ThreadLock.obj
 0001:00006e60       ??0CMisc@@QAE@XZ           00407e60 f   Misc.obj
 0001:00006e80       ?SetHwndMain@CMisc@@QAEXPAUHWND__@@@Z 00407e80 f i Misc.obj
 0001:00006ea0       ??1CMisc@@QAE@XZ           00407ea0 f   Misc.obj
 0001:00006eb0       ?InitInstance@CMisc@@SA_NXZ 00407eb0 f   Misc.obj
 0001:00006ed0       ?DeleteInstance@CMisc@@SAXXZ 00407ed0 f   Misc.obj
 0001:00006f20       ??_GCMisc@@QAEPAXI@Z       00407f20 f i Misc.obj
 0001:00006f50       ?GetInstance@CMisc@@SAPAV1@XZ 00407f50 f   Misc.obj
 0001:00006fe0       ?SendMsgToMainHwnd@CMisc@@QAE_NIIJ@Z 00407fe0 f   Misc.obj
 0001:00007020       ?GetHwndMain@CMisc@@QAEPAUHWND__@@XZ 00408020 f i Misc.obj
 0001:00007030       ?SendWriteLogMsgToMainHwnd@CMisc@@QAE_NJ@Z 00408030 f   Misc.obj
 0001:00007060       ?SendAddAccountInfoToMainHwnd@CMisc@@QAE_NJ@Z 00408060 f   Misc.obj
 0001:00007090       ?SendUpdateAccountInfoToMainHwnd@CMisc@@QAE_NJ@Z 00408090 f   Misc.obj
 0001:000070c0       ?SendUpdatePlayerStatusToMainHwnd@CMisc@@QAE_NJ@Z 004080c0 f   Misc.obj
 0001:000070f0       ?SendConnectInfoToMainHwnd@CMisc@@QAE_NJ@Z 004080f0 f   Misc.obj
 0001:00007120       ?SendReportCurrentOperationToMainHwnd@CMisc@@QAE_NJ@Z 00408120 f   Misc.obj
 0001:00007150       ?SendReportMaterialDataToMainHwnd@CMisc@@QAE_NJ@Z 00408150 f   Misc.obj
 0001:00007180       ?SendDataToOtherWindow@CMisc@@QAE_NPAUHWND__@@PAUtagCOPYDATASTRUCT@@@Z 00408180 f   Misc.obj
 0001:000071c0       ?ChangeThemeOnWin7@CMisc@@QAE_NXZ 004081c0 f   Misc.obj
 0001:000071e0       ??0CConfigSecretary3@@QAE@PB_W_N@Z 004081e0 f   AsuramConfig.obj
 0001:00007210       ??1CConfigSecretary3@@QAE@XZ 00408210 f   AsuramConfig.obj
 0001:00007230       ?IsAsuramBossSelectedFromCfg@CConfigSecretary3@@QAEHXZ 00408230 f   AsuramConfig.obj
 0001:00007260       ?SetIsAsuramBossSelectedToCfg@CConfigSecretary3@@QAEHH@Z 00408260 f   AsuramConfig.obj
 0001:00007290       ?IsAsuramBossAutoDiceFromCfg@CConfigSecretary3@@QAEHXZ 00408290 f   AsuramConfig.obj
 0001:000072c0       ?SetIsAsuramBossAutoDiceToCfg@CConfigSecretary3@@QAEHH@Z 004082c0 f   AsuramConfig.obj
 0001:000072f0       ?IsAsuramFeastSelectedFromCfg@CConfigSecretary3@@QAEHXZ 004082f0 f   AsuramConfig.obj
 0001:00007320       ?SetIsAsuramFeastSelectedToCfg@CConfigSecretary3@@QAEHH@Z 00408320 f   AsuramConfig.obj
 0001:00007350       ?IsAsuramAutoFeteFromCfg@CConfigSecretary3@@QAEHXZ 00408350 f   AsuramConfig.obj
 0001:00007380       ?SetIsAsuramAutoFeteToCfg@CConfigSecretary3@@QAEHH@Z 00408380 f   AsuramConfig.obj
 0001:000073b0       ?GetAsuramFeastCountFromCfg@CConfigSecretary3@@QAEHXZ 004083b0 f   AsuramConfig.obj
 0001:000073e0       ?SetAsuramFeastCountToCfg@CConfigSecretary3@@QAEHH@Z 004083e0 f   AsuramConfig.obj
 0001:00007410       ?IsAsuramTransSelectedFromCfg@CConfigSecretary3@@QAEHXZ 00408410 f   AsuramConfig.obj
 0001:00007440       ?SetIsAsuramTransSelectedToCfg@CConfigSecretary3@@QAEHH@Z 00408440 f   AsuramConfig.obj
 0001:00007470       ?IsAutoAcceptAsuramFeastFromCfg@CConfigSecretary3@@QAEHXZ 00408470 f   AsuramConfig.obj
 0001:000074a0       ?SetIsAutoAcceptAsuramFeastToCfg@CConfigSecretary3@@QAEHH@Z 004084a0 f   AsuramConfig.obj
 0001:000074d0       ?IsCampWarSelectedFromCfg@CConfigSecretary3@@QAEHXZ 004084d0 f   AsuramConfig.obj
 0001:00007500       ?SetIsCampWarSelectedToCfg@CConfigSecretary3@@QAEHH@Z 00408500 f   AsuramConfig.obj
 0001:00007530       ?IsCampWarUseCoinEncourageFromCfg@CConfigSecretary3@@QAEHXZ 00408530 f   AsuramConfig.obj
 0001:00007560       ?SetIsCampWarUseCoinEncourageToCfg@CConfigSecretary3@@QAEHH@Z 00408560 f   AsuramConfig.obj
 0001:00007590       ?IsAngelTrialSelectedFromCfg@CConfigSecretary3@@QAEHXZ 00408590 f   AsuramConfig.obj
 0001:000075c0       ?SetIsAngelTrialSelectedToCfg@CConfigSecretary3@@QAEHH@Z 004085c0 f   AsuramConfig.obj
 0001:000075f0       ?IsAngelTrialAutoSweepFromCfg@CConfigSecretary3@@QAEHXZ 004085f0 f   AsuramConfig.obj
 0001:00007620       ?SetIsAngelTrialAutoSweepToCfg@CConfigSecretary3@@QAEHH@Z 00408620 f   AsuramConfig.obj
 0001:00007650       ?GetAngelTrialSweepCountFromCfg@CConfigSecretary3@@QAEHXZ 00408650 f   AsuramConfig.obj
 0001:00007680       ?SetAngelTrialSweepCountToCfg@CConfigSecretary3@@QAEHH@Z 00408680 f   AsuramConfig.obj
 0001:000076b0       ?IsAngelTrialAutoSweepAfterChallengeFailedFromCfg@CConfigSecretary3@@QAEHXZ 004086b0 f   AsuramConfig.obj
 0001:000076e0       ?SetIsAngelTrialAutoSweepAfterChallengeFailedToCfg@CConfigSecretary3@@QAEHH@Z 004086e0 f   AsuramConfig.obj
 0001:00007710       ?IsAngelTrialUseAttackSpeedItemFromCfg@CConfigSecretary3@@QAEHXZ 00408710 f   AsuramConfig.obj
 0001:00007740       ?SetIsAngelTrialUseAttackSpeedItemToCfg@CConfigSecretary3@@QAEHH@Z 00408740 f   AsuramConfig.obj
 0001:00007770       ?IsLandBossSelectedFromCfg@CConfigSecretary3@@QAEHXZ 00408770 f   AsuramConfig.obj
 0001:000077a0       ?SetIsLandBossSelectedToCfg@CConfigSecretary3@@QAEHH@Z 004087a0 f   AsuramConfig.obj
 0001:000077d0       ?IsLandBossAutoSweepFromCfg@CConfigSecretary3@@QAEHXZ 004087d0 f   AsuramConfig.obj
 0001:00007800       ?SetIsLandBossAutoSweepToCfg@CConfigSecretary3@@QAEHH@Z 00408800 f   AsuramConfig.obj
 0001:00007830       ?GetLandBossAutoSweepCountFromCfg@CConfigSecretary3@@QAEHXZ 00408830 f   AsuramConfig.obj
 0001:00007860       ?SetLandBossAutoSweepCountToCfg@CConfigSecretary3@@QAEHH@Z 00408860 f   AsuramConfig.obj
 0001:00007890       ?IsLandBossSweepAfterChallengeFailedFromCfg@CConfigSecretary3@@QAEHXZ 00408890 f   AsuramConfig.obj
 0001:000078c0       ?SetIsLandBossSweepAfterChallengeFailedToCfg@CConfigSecretary3@@QAEHH@Z 004088c0 f   AsuramConfig.obj
 0001:000078f0       ?IsLandBossUseAttackSpeedItemFromCfg@CConfigSecretary3@@QAEHXZ 004088f0 f   AsuramConfig.obj
 0001:00007920       ?SetIsLandBossUseAttackSpeedItemToCfg@CConfigSecretary3@@QAEHH@Z 00408920 f   AsuramConfig.obj
 0001:00007950       ??0CBeastBossConfig@@QAE@PB_W_N@Z 00408950 f   BeastBossConfig.obj
 0001:000079c0       ??1CBeastBossConfig@@QAE@XZ 004089c0 f   BeastBossConfig.obj
 0001:000079e0       ?Init@CBeastBossConfig@@QAEXXZ 004089e0 f   BeastBossConfig.obj
 0001:00007a10       ?IsBeastBossSelectedFromCfg@CBeastBossConfig@@QAEHXZ 00408a10 f   BeastBossConfig.obj
 0001:00007a30       ?SetIsBeastBossSelectedToCfg@CBeastBossConfig@@QAEXH@Z 00408a30 f   BeastBossConfig.obj
 0001:00007a50       ?SetBeastBossListSelectedToCfg@CBeastBossConfig@@QAEXAAV?$vector@HV?$allocator@H@std@@@std@@@Z 00408a50 f   BeastBossConfig.obj
 0001:00007a70       ?GetBeastBossSelectedListFromCfg@CBeastBossConfig@@QAE?AV?$vector@HV?$allocator@H@std@@@std@@XZ 00408a70 f   BeastBossConfig.obj
 0001:00007aa0       ??0CBossAssistConfig@@QAE@PB_W_N@Z 00408aa0 f   BossAssistConfig.obj
 0001:00007ad0       ??1CBossAssistConfig@@QAE@XZ 00408ad0 f   BossAssistConfig.obj
 0001:00007af0       ?IsBeastBossAutoAssistOtherFromCfg@CBossAssistConfig@@QAEHXZ 00408af0 f   BossAssistConfig.obj
 0001:00007b20       ?SetIsBeastBossAutoAssistOtherToCfg@CBossAssistConfig@@QAEXH@Z 00408b20 f   BossAssistConfig.obj
 0001:00007b50       ?IsBeastBossOnlyAssistSelfMaxCountFromCfg@CBossAssistConfig@@QAEHXZ 00408b50 f   BossAssistConfig.obj
 0001:00007b80       ?SetIsBeastBossOnlyAssistSelfMaxCountToCfg@CBossAssistConfig@@QAEXH@Z 00408b80 f   BossAssistConfig.obj
 0001:00007bb0       ?IsBeastBossAutoSendAssistFromCfg@CBossAssistConfig@@QAEHXZ 00408bb0 f   BossAssistConfig.obj
 0001:00007be0       ?SetIsBeastBossAutoSendAssistToCfg@CBossAssistConfig@@QAEXH@Z 00408be0 f   BossAssistConfig.obj
 0001:00007c10       ?GetBeastBossAssistMaxTimeoutFromCfg@CBossAssistConfig@@QAEHXZ 00408c10 f   BossAssistConfig.obj
 0001:00007c40       ?SetBeastBossAssistMaxTimeoutToCfg@CBossAssistConfig@@QAEXH@Z 00408c40 f   BossAssistConfig.obj
 0001:00007c70       ?IsBeastBossAssistAutoSendAssistFromCfg@CBossAssistConfig@@QAEHXZ 00408c70 f   BossAssistConfig.obj
 0001:00007ca0       ?SetIsBeastBossAssistAutoSendAssistToCfg@CBossAssistConfig@@QAEXH@Z 00408ca0 f   BossAssistConfig.obj
 0001:00007cd0       ?IsCorpsBossAutoSendAssistFromCfg@CBossAssistConfig@@QAEHXZ 00408cd0 f   BossAssistConfig.obj
 0001:00007d00       ?SetIsCorpsBossAutoSendAssistToCfg@CBossAssistConfig@@QAEXH@Z 00408d00 f   BossAssistConfig.obj
 0001:00007d30       ?IsCorpsBossOnlyAssistSelfMaxCountFromCfg@CBossAssistConfig@@QAEHXZ 00408d30 f   BossAssistConfig.obj
 0001:00007d60       ?SetIsCorpsBossOnlyAssistSelfMaxCountToCfg@CBossAssistConfig@@QAEXH@Z 00408d60 f   BossAssistConfig.obj
 0001:00007d90       ?IsCorpsBossAssistAutoSendAssistFromCfg@CBossAssistConfig@@QAEHXZ 00408d90 f   BossAssistConfig.obj
 0001:00007dc0       ?GetCorpsBossAssistMaxTimeoutFromCfg@CBossAssistConfig@@QAEHXZ 00408dc0 f   BossAssistConfig.obj
 0001:00007df0       ?SetCorpsBossAssistMaxTimeoutToCfg@CBossAssistConfig@@QAEXH@Z 00408df0 f   BossAssistConfig.obj
 0001:00007e20       ?SetIsCorpsBossAssistAutoSendAssistToCfg@CBossAssistConfig@@QAEXH@Z 00408e20 f   BossAssistConfig.obj
 0001:00007e50       ?IsCorpsBossAutoAssistOtherFromCfg@CBossAssistConfig@@QAEHXZ 00408e50 f   BossAssistConfig.obj
 0001:00007e80       ?SetIsCorpsBossAutoAssistOtherToCfg@CBossAssistConfig@@QAEXH@Z 00408e80 f   BossAssistConfig.obj
 0001:00007eb0       ??0CBossConfig@@QAE@PB_W_N@Z 00408eb0 f   BossConfig.obj
 0001:00007f20       ??1CBossConfig@@QAE@XZ     00408f20 f   BossConfig.obj
 0001:00007f40       ?Init@CBossConfig@@QAEXXZ  00408f40 f   BossConfig.obj
 0001:00007f80       ?IsBossSelectedFromCfg@CBossConfig@@QAEHXZ 00408f80 f   BossConfig.obj
 0001:00007fb0       ?SetIsBossSelectedToCfg@CBossConfig@@QAEXH@Z 00408fb0 f   BossConfig.obj
 0001:00007fe0       ?SetBossListSelectedToCfg@CBossConfig@@QAEXAAV?$vector@HV?$allocator@H@std@@@std@@@Z 00408fe0 f   BossConfig.obj
 0001:000080a0       ?GetBossSelectedListFromCfg@CBossConfig@@QAE?AV?$vector@HV?$allocator@H@std@@@std@@XZ 004090a0 f   BossConfig.obj
 0001:00008160       ?SetBossMaxTimeoutToCfg@CBossConfig@@QAEXH@Z 00409160 f   BossConfig.obj
 0001:00008190       ?GetBossMaxTimeoutFromCfg@CBossConfig@@QAEHXZ 00409190 f   BossConfig.obj
 0001:000081c0       ?SetBossKillModeToCfg@CBossConfig@@QAEXH@Z 004091c0 f   BossConfig.obj
 0001:000081f0       ?GetBossKillModeFromCfg@CBossConfig@@QAEHXZ 004091f0 f   BossConfig.obj
 0001:00008220       ??0?$vector@HV?$allocator@H@std@@@std@@QAE@ABV01@@Z 00409220 f i BossConfig.obj
 0001:00008330       ?begin@?$vector@HV?$allocator@H@std@@@std@@QBE?AV?$_Vector_const_iterator@HV?$allocator@H@std@@@2@XZ 00409330 f i BossConfig.obj
 0001:00008370       ?end@?$vector@HV?$allocator@H@std@@@std@@QBE?AV?$_Vector_const_iterator@HV?$allocator@H@std@@@2@XZ 00409370 f i BossConfig.obj
 0001:000083b0       ??$_Ucopy@V?$_Vector_const_iterator@HV?$allocator@H@std@@@std@@@?$vector@HV?$allocator@H@std@@@std@@IAEPAHV?$_Vector_const_iterator@HV?$allocator@H@std@@@1@0PAH@Z 004093b0 f i BossConfig.obj
 0001:00008460       ??$unchecked_uninitialized_copy@V?$_Vector_const_iterator@HV?$allocator@H@std@@@std@@PAHV?$allocator@H@2@@stdext@@YAPAHV?$_Vector_const_iterator@HV?$allocator@H@std@@@std@@0PAHAAV?$allocator@H@2@@Z 00409460 f i BossConfig.obj
 0001:00008540       ??$_Checked_base@V?$_Vector_const_iterator@HV?$allocator@H@std@@@std@@@std@@YA?AV?$_Vector_const_iterator@HV?$allocator@H@std@@@0@AAV10@@Z 00409540 f i BossConfig.obj
 0001:00008580       ??$_Ptr_cat@V?$_Vector_const_iterator@HV?$allocator@H@std@@@std@@PAH@std@@YA?AU_Scalar_ptr_iterator_tag@0@AAV?$_Vector_const_iterator@HV?$allocator@H@std@@@0@AAPAH@Z 00409580 f i BossConfig.obj
 0001:00008590       ??$_Uninit_copy@V?$_Vector_const_iterator@HV?$allocator@H@std@@@std@@PAHV?$allocator@H@2@@std@@YAPAHV?$_Vector_const_iterator@HV?$allocator@H@std@@@0@0PAHAAV?$allocator@H@0@U_Scalar_ptr_iterator_tag@0@U_Range_checked_iterator_tag@0@@Z 00409590 f i BossConfig.obj
 0001:000086a0       ??D?$_Vector_const_iterator@HV?$allocator@H@std@@@std@@QBEABHXZ 004096a0 f i BossConfig.obj
 0001:00008730       ??G?$_Vector_const_iterator@HV?$allocator@H@std@@@std@@QBEHABV01@@Z 00409730 f i BossConfig.obj
 0001:00008760       ??$_Checked_base@V?$_Vector_const_iterator@HV?$allocator@H@std@@@std@@@std@@YA?AV?$_Vector_const_iterator@HV?$allocator@H@std@@@0@AAV10@U_Unchanged_checked_iterator_base_type_tag@0@@Z 00409760 f i BossConfig.obj
 0001:00008790       ??$_Debug_range@V?$_Vector_const_iterator@HV?$allocator@H@std@@@std@@@std@@YAXV?$_Vector_const_iterator@HV?$allocator@H@std@@@0@0PB_WI@Z 00409790 f i BossConfig.obj
 0001:00008840       ??$_Iter_cat@V?$_Vector_const_iterator@HV?$allocator@H@std@@@std@@@std@@YA?AUrandom_access_iterator_tag@0@ABV?$_Vector_const_iterator@HV?$allocator@H@std@@@0@@Z 00409840 f i BossConfig.obj
 0001:00008850       ??$_Debug_range2@V?$_Vector_const_iterator@HV?$allocator@H@std@@@std@@@std@@YAXV?$_Vector_const_iterator@HV?$allocator@H@std@@@0@0PB_WIUrandom_access_iterator_tag@0@@Z 00409850 f i BossConfig.obj
 0001:00008910       ??$_Debug_pointer@V?$_Vector_const_iterator@HV?$allocator@H@std@@@std@@@std@@YAXAAV?$_Vector_const_iterator@HV?$allocator@H@std@@@0@PB_WI@Z 00409910 f i BossConfig.obj
 0001:00008920       ??0CConfigSecretary2@@QAE@PB_W_N@Z 00409920 f   BotConfig.obj
 0001:00008950       ??1CConfigSecretary2@@QAE@XZ 00409950 f   BotConfig.obj
 0001:00008970       ?IsAutoDemonPlazaSelectedFromCfg@CConfigSecretary2@@QAEHXZ 00409970 f   BotConfig.obj
 0001:000089a0       ?SetIsAutoDemonPlazaSelectedToCfg@CConfigSecretary2@@QAEHH@Z 004099a0 f   BotConfig.obj
 0001:000089d0       ?IsDemonPlazaAutoComposeTicketFromCfg@CConfigSecretary2@@QAEHXZ 004099d0 f   BotConfig.obj
 0001:00008a00       ?SetIsDemonPlazaAutoComposeTicketToCfg@CConfigSecretary2@@QAEHH@Z 00409a00 f   BotConfig.obj
 0001:00008a30       ?IsDemonPlazaBuyTicketWhenNotEnoughFromCfg@CConfigSecretary2@@QAEHXZ 00409a30 f   BotConfig.obj
 0001:00008a60       ?SetIsDemonPlazaBuyTicketWhenNotEnoughToCfg@CConfigSecretary2@@QAEHH@Z 00409a60 f   BotConfig.obj
 0001:00008a90       ?GetDemonPlazaHungUpPointXFromCfg@CConfigSecretary2@@QAEHXZ 00409a90 f   BotConfig.obj
 0001:00008ac0       ?SetDemonPlazaHungUpPointXToCfg@CConfigSecretary2@@QAEHH@Z 00409ac0 f   BotConfig.obj
 0001:00008af0       ?GetDemonPlazaHungUpPointYFromCfg@CConfigSecretary2@@QAEHXZ 00409af0 f   BotConfig.obj
 0001:00008b20       ?SetDemonPlazaHungUpPointYToCfg@CConfigSecretary2@@QAEHH@Z 00409b20 f   BotConfig.obj
 0001:00008b50       ?GetDemonPlazaTimeSelectArrayFromCfg@CConfigSecretary2@@QAE?AV?$vector@HV?$allocator@H@std@@@std@@XZ 00409b50 f   BotConfig.obj
 0001:00008bd0       ?SetDemonPlazaTimeSelectArrayToCfg@CConfigSecretary2@@QAEHAAV?$vector@HV?$allocator@H@std@@@std@@@Z 00409bd0 f   BotConfig.obj
 0001:00008c90       ??0CCommentConfig@@QAE@PB_W0_N@Z 00409c90 f   CommentConfig.obj
 0001:00008d50       ?SetSectionName@CCommentConfig@@QAEXPB_W@Z 00409d50 f i CommentConfig.obj
 0001:00008d70       ?SetComment@CCommentConfig@@QAEXPB_W@Z 00409d70 f i CommentConfig.obj
 0001:00008d90       ??0CCommentConfig@@QAE@PB_W0H0_N@Z 00409d90 f   CommentConfig.obj
 0001:00008e50       ??1CCommentConfig@@QAE@XZ  00409e50 f   CommentConfig.obj
 0001:00008ed0       ?WriteComment@CCommentConfig@@QAEHXZ 00409ed0 f   CommentConfig.obj
 0001:00009140       ?ReadComment@CCommentConfig@@QAEPB_WXZ 0040a140 f   CommentConfig.obj
 0001:000093d0       ?WriteIni@CCommentConfig@@QAEHPB_W0@Z 0040a3d0 f   CommentConfig.obj
 0001:00009400       ?ReadIni@CCommentConfig@@QAE?AV?$basic_string@_WU?$char_traits@_W@std@@V?$allocator@_W@2@@std@@PB_W@Z 0040a400 f   CommentConfig.obj
 0001:00009450       ?ReadIniAndGetStringVec@CCommentConfig@@QAE?AV?$vector@V?$basic_string@_WU?$char_traits@_W@std@@V?$allocator@_W@2@@std@@V?$allocator@V?$basic_string@_WU?$char_traits@_W@std@@V?$allocator@_W@2@@std@@@2@@std@@PB_W@Z 0040a450 f   CommentConfig.obj
 0001:00009520       ?GetAllKeyValueBySetionName@CCommentConfig@@QAE?AV?$map@V?$basic_string@_WU?$char_traits@_W@std@@V?$allocator@_W@2@@std@@V12@U?$less@V?$basic_string@_WU?$char_traits@_W@std@@V?$allocator@_W@2@@std@@@2@V?$allocator@U?$pair@$$CBV?$basic_string@_WU?$char_traits@_W@std@@V?$allocator@_W@2@@std@@V12@@std@@@2@@std@@PB_W@Z 0040a520 f   CommentConfig.obj
 0001:000096b0       ??1?$map@V?$basic_string@_WU?$char_traits@_W@std@@V?$allocator@_W@2@@std@@V12@U?$less@V?$basic_string@_WU?$char_traits@_W@std@@V?$allocator@_W@2@@std@@@2@V?$allocator@U?$pair@$$CBV?$basic_string@_WU?$char_traits@_W@std@@V?$allocator@_W@2@@std@@V12@@std@@@2@@std@@QAE@XZ 0040a6b0 f i CommentConfig.obj
 0001:000096d0       ??0?$map@V?$basic_string@_WU?$char_traits@_W@std@@V?$allocator@_W@2@@std@@V12@U?$less@V?$basic_string@_WU?$char_traits@_W@std@@V?$allocator@_W@2@@std@@@2@V?$allocator@U?$pair@$$CBV?$basic_string@_WU?$char_traits@_W@std@@V?$allocator@_W@2@@std@@V12@@std@@@2@@std@@QAE@ABV01@@Z 0040a6d0 f i CommentConfig.obj
 0001:000096f0       ?GetAllKeyValueBySetionNameNoSorted@CCommentConfig@@QAE?AV?$vector@U?$pair@V?$basic_string@_WU?$char_traits@_W@std@@V?$allocator@_W@2@@std@@V12@@std@@V?$allocator@U?$pair@V?$basic_string@_WU?$char_traits@_W@std@@V?$allocator@_W@2@@std@@V12@@std@@@2@@std@@PB_W@Z 0040a6f0 f   CommentConfig.obj
 0001:000097d0       ??0?$vector@V?$basic_string@_WU?$char_traits@_W@std@@V?$allocator@_W@2@@std@@V?$allocator@V?$basic_string@_WU?$char_traits@_W@std@@V?$allocator@_W@2@@std@@@2@@std@@QAE@ABV01@@Z 0040a7d0 f i CommentConfig.obj
 0001:000098e0       ?size@?$vector@V?$basic_string@_WU?$char_traits@_W@std@@V?$allocator@_W@2@@std@@V?$allocator@V?$basic_string@_WU?$char_traits@_W@std@@V?$allocator@_W@2@@std@@@2@@std@@QBEIXZ 0040a8e0 f i CommentConfig.obj
 0001:00009900       ??0?$map@V?$basic_string@_WU?$char_traits@_W@std@@V?$allocator@_W@2@@std@@V12@U?$less@V?$basic_string@_WU?$char_traits@_W@std@@V?$allocator@_W@2@@std@@@2@V?$allocator@U?$pair@$$CBV?$basic_string@_WU?$char_traits@_W@std@@V?$allocator@_W@2@@std@@V12@@std@@@2@@std@@QAE@XZ 0040a900 f i CommentConfig.obj
 0001:00009930       ??0?$_Tree@V?$_Tmap_traits@V?$basic_string@_WU?$char_traits@_W@std@@V?$allocator@_W@2@@std@@V12@U?$less@V?$basic_string@_WU?$char_traits@_W@std@@V?$allocator@_W@2@@std@@@2@V?$allocator@U?$pair@$$CBV?$basic_string@_WU?$char_traits@_W@std@@V?$allocator@_W@2@@std@@V12@@std@@@2@$0A@@std@@@std@@QAE@ABV01@@Z 0040a930 f i CommentConfig.obj
 0001:000099f0       ??1?$_Tree@V?$_Tmap_traits@V?$basic_string@_WU?$char_traits@_W@std@@V?$allocator@_W@2@@std@@V12@U?$less@V?$basic_string@_WU?$char_traits@_W@std@@V?$allocator@_W@2@@std@@@2@V?$allocator@U?$pair@$$CBV?$basic_string@_WU?$char_traits@_W@std@@V?$allocator@_W@2@@std@@V12@@std@@@2@$0A@@std@@@std@@QAE@XZ 0040a9f0 f i CommentConfig.obj
 0001:00009a50       ??0?$vector@U?$pair@V?$basic_string@_WU?$char_traits@_W@std@@V?$allocator@_W@2@@std@@V12@@std@@V?$allocator@U?$pair@V?$basic_string@_WU?$char_traits@_W@std@@V?$allocator@_W@2@@std@@V12@@std@@@2@@std@@QAE@XZ 0040aa50 f i CommentConfig.obj
 0001:00009ac0       ??0?$vector@U?$pair@V?$basic_string@_WU?$char_traits@_W@std@@V?$allocator@_W@2@@std@@V12@@std@@V?$allocator@U?$pair@V?$basic_string@_WU?$char_traits@_W@std@@V?$allocator@_W@2@@std@@V12@@std@@@2@@std@@QAE@ABV01@@Z 0040aac0 f i CommentConfig.obj
 0001:00009bd0       ??1?$vector@U?$pair@V?$basic_string@_WU?$char_traits@_W@std@@V?$allocator@_W@2@@std@@V12@@std@@V?$allocator@U?$pair@V?$basic_string@_WU?$char_traits@_W@std@@V?$allocator@_W@2@@std@@V12@@std@@@2@@std@@QAE@XZ 0040abd0 f i CommentConfig.obj
 0001:00009c30       ??1?$_Vector_const_iterator@V?$basic_string@_WU?$char_traits@_W@std@@V?$allocator@_W@2@@std@@V?$allocator@V?$basic_string@_WU?$char_traits@_W@std@@V?$allocator@_W@2@@std@@@2@@std@@QAE@XZ 0040ac30 f i CommentConfig.obj
 0001:00009c50       ??1?$_Tree_val@V?$_Tmap_traits@V?$basic_string@_WU?$char_traits@_W@std@@V?$allocator@_W@2@@std@@V12@U?$less@V?$basic_string@_WU?$char_traits@_W@std@@V?$allocator@_W@2@@std@@@2@V?$allocator@U?$pair@$$CBV?$basic_string@_WU?$char_traits@_W@std@@V?$allocator@_W@2@@std@@V12@@std@@@2@$0A@@std@@@std@@QAE@XZ 0040ac50 f i CommentConfig.obj
 0001:00009c70       ??1?$_Vector_val@U?$pair@V?$basic_string@_WU?$char_traits@_W@std@@V?$allocator@_W@2@@std@@V12@@std@@V?$allocator@U?$pair@V?$basic_string@_WU?$char_traits@_W@std@@V?$allocator@_W@2@@std@@V12@@std@@@2@@std@@QAE@XZ 0040ac70 f i CommentConfig.obj
 0001:00009c90       ??1?$_Vector_const_iterator@U?$pair@V?$basic_string@_WU?$char_traits@_W@std@@V?$allocator@_W@2@@std@@V12@@std@@V?$allocator@U?$pair@V?$basic_string@_WU?$char_traits@_W@std@@V?$allocator@_W@2@@std@@V12@@std@@@2@@std@@QAE@XZ 0040ac90 f i CommentConfig.obj
 0001:00009cb0       ??1?$_Ranit@V?$basic_string@_WU?$char_traits@_W@std@@V?$allocator@_W@2@@std@@HPBV12@ABV12@@std@@QAE@XZ 0040acb0 f i CommentConfig.obj
 0001:00009cd0       ??1?$_Tree_ptr@V?$_Tmap_traits@V?$basic_string@_WU?$char_traits@_W@std@@V?$allocator@_W@2@@std@@V12@U?$less@V?$basic_string@_WU?$char_traits@_W@std@@V?$allocator@_W@2@@std@@@2@V?$allocator@U?$pair@$$CBV?$basic_string@_WU?$char_traits@_W@std@@V?$allocator@_W@2@@std@@V12@@std@@@2@$0A@@std@@@std@@QAE@XZ 0040acd0 f i CommentConfig.obj
 0001:00009cf0       ??1?$_Ranit@U?$pair@V?$basic_string@_WU?$char_traits@_W@std@@V?$allocator@_W@2@@std@@V12@@std@@HPBU12@ABU12@@std@@QAE@XZ 0040acf0 f i CommentConfig.obj
 0001:00009d10       ??1?$_Iterator_with_base@Urandom_access_iterator_tag@std@@V?$basic_string@_WU?$char_traits@_W@std@@V?$allocator@_W@2@@2@HPBV32@ABV32@V_Iterator_base@2@@std@@QAE@XZ 0040ad10 f i CommentConfig.obj
 0001:00009d30       ??1?$_Tree_nod@V?$_Tmap_traits@V?$basic_string@_WU?$char_traits@_W@std@@V?$allocator@_W@2@@std@@V12@U?$less@V?$basic_string@_WU?$char_traits@_W@std@@V?$allocator@_W@2@@std@@@2@V?$allocator@U?$pair@$$CBV?$basic_string@_WU?$char_traits@_W@std@@V?$allocator@_W@2@@std@@V12@@std@@@2@$0A@@std@@@std@@QAE@XZ 0040ad30 f i CommentConfig.obj
 0001:00009d50       ??1?$_Iterator_with_base@Urandom_access_iterator_tag@std@@U?$pair@V?$basic_string@_WU?$char_traits@_W@std@@V?$allocator@_W@2@@std@@V12@@2@HPBU32@ABU32@V_Iterator_base@2@@std@@QAE@XZ 0040ad50 f i CommentConfig.obj
 0001:00009d70       ??1?$_Tmap_traits@V?$basic_string@_WU?$char_traits@_W@std@@V?$allocator@_W@2@@std@@V12@U?$less@V?$basic_string@_WU?$char_traits@_W@std@@V?$allocator@_W@2@@std@@@2@V?$allocator@U?$pair@$$CBV?$basic_string@_WU?$char_traits@_W@std@@V?$allocator@_W@2@@std@@V12@@std@@@2@$0A@@std@@QAE@XZ 0040ad70 f i CommentConfig.obj
 0001:00009d90       ?begin@?$vector@V?$basic_string@_WU?$char_traits@_W@std@@V?$allocator@_W@2@@std@@V?$allocator@V?$basic_string@_WU?$char_traits@_W@std@@V?$allocator@_W@2@@std@@@2@@std@@QBE?AV?$_Vector_const_iterator@V?$basic_string@_WU?$char_traits@_W@std@@V?$allocator@_W@2@@std@@V?$allocator@V?$basic_string@_WU?$char_traits@_W@std@@V?$allocator@_W@2@@std@@@2@@2@XZ 0040ad90 f i CommentConfig.obj
 0001:00009dd0       ?end@?$vector@V?$basic_string@_WU?$char_traits@_W@std@@V?$allocator@_W@2@@std@@V?$allocator@V?$basic_string@_WU?$char_traits@_W@std@@V?$allocator@_W@2@@std@@@2@@std@@QBE?AV?$_Vector_const_iterator@V?$basic_string@_WU?$char_traits@_W@std@@V?$allocator@_W@2@@std@@V?$allocator@V?$basic_string@_WU?$char_traits@_W@std@@V?$allocator@_W@2@@std@@@2@@2@XZ 0040add0 f i CommentConfig.obj
 0001:00009e10       ??0?$_Tree@V?$_Tmap_traits@V?$basic_string@_WU?$char_traits@_W@std@@V?$allocator@_W@2@@std@@V12@U?$less@V?$basic_string@_WU?$char_traits@_W@std@@V?$allocator@_W@2@@std@@@2@V?$allocator@U?$pair@$$CBV?$basic_string@_WU?$char_traits@_W@std@@V?$allocator@_W@2@@std@@V12@@std@@@2@$0A@@std@@@std@@QAE@ABU?$less@V?$basic_string@_WU?$char_traits@_W@std@@V?$allocator@_W@2@@std@@@1@ABV?$allocator@U?$pair@$$CBV?$basic_string@_WU?$char_traits@_W@std@@V?$allocator@_W@2@@std@@V12@@std@@@1@@Z 0040ae10 f i CommentConfig.obj
 0001:00009e80       ?get_allocator@?$_Tree@V?$_Tmap_traits@V?$basic_string@_WU?$char_traits@_W@std@@V?$allocator@_W@2@@std@@V12@U?$less@V?$basic_string@_WU?$char_traits@_W@std@@V?$allocator@_W@2@@std@@@2@V?$allocator@U?$pair@$$CBV?$basic_string@_WU?$char_traits@_W@std@@V?$allocator@_W@2@@std@@V12@@std@@@2@$0A@@std@@@std@@QBE?AV?$allocator@U?$pair@$$CBV?$basic_string@_WU?$char_traits@_W@std@@V?$allocator@_W@2@@std@@V12@@std@@@2@XZ 0040ae80 f i CommentConfig.obj
 0001:00009ea0       ?key_comp@?$_Tree@V?$_Tmap_traits@V?$basic_string@_WU?$char_traits@_W@std@@V?$allocator@_W@2@@std@@V12@U?$less@V?$basic_string@_WU?$char_traits@_W@std@@V?$allocator@_W@2@@std@@@2@V?$allocator@U?$pair@$$CBV?$basic_string@_WU?$char_traits@_W@std@@V?$allocator@_W@2@@std@@V12@@std@@@2@$0A@@std@@@std@@QBE?AU?$less@V?$basic_string@_WU?$char_traits@_W@std@@V?$allocator@_W@2@@std@@@2@XZ 0040aea0 f i CommentConfig.obj
 0001:00009eb0       ?_Copy@?$_Tree@V?$_Tmap_traits@V?$basic_string@_WU?$char_traits@_W@std@@V?$allocator@_W@2@@std@@V12@U?$less@V?$basic_string@_WU?$char_traits@_W@std@@V?$allocator@_W@2@@std@@@2@V?$allocator@U?$pair@$$CBV?$basic_string@_WU?$char_traits@_W@std@@V?$allocator@_W@2@@std@@V12@@std@@@2@$0A@@std@@@std@@IAEXABV12@@Z 0040aeb0 f i CommentConfig.obj
 0001:00009f70       ?_Init@?$_Tree@V?$_Tmap_traits@V?$basic_string@_WU?$char_traits@_W@std@@V?$allocator@_W@2@@std@@V12@U?$less@V?$basic_string@_WU?$char_traits@_W@std@@V?$allocator@_W@2@@std@@@2@V?$allocator@U?$pair@$$CBV?$basic_string@_WU?$char_traits@_W@std@@V?$allocator@_W@2@@std@@V12@@std@@@2@$0A@@std@@@std@@IAEXXZ 0040af70 f i CommentConfig.obj
 0001:00009fe0       ?_Tidy@?$_Tree@V?$_Tmap_traits@V?$basic_string@_WU?$char_traits@_W@std@@V?$allocator@_W@2@@std@@V12@U?$less@V?$basic_string@_WU?$char_traits@_W@std@@V?$allocator@_W@2@@std@@@2@V?$allocator@U?$pair@$$CBV?$basic_string@_WU?$char_traits@_W@std@@V?$allocator@_W@2@@std@@V12@@std@@@2@$0A@@std@@@std@@IAEXXZ 0040afe0 f i CommentConfig.obj
 0001:0000a130       ??0?$_Tree_val@V?$_Tmap_traits@V?$basic_string@_WU?$char_traits@_W@std@@V?$allocator@_W@2@@std@@V12@U?$less@V?$basic_string@_WU?$char_traits@_W@std@@V?$allocator@_W@2@@std@@@2@V?$allocator@U?$pair@$$CBV?$basic_string@_WU?$char_traits@_W@std@@V?$allocator@_W@2@@std@@V12@@std@@@2@$0A@@std@@@std@@IAE@ABU?$less@V?$basic_string@_WU?$char_traits@_W@std@@V?$allocator@_W@2@@std@@@1@V?$allocator@U?$pair@$$CBV?$basic_string@_WU?$char_traits@_W@std@@V?$allocator@_W@2@@std@@V12@@std@@@1@@Z 0040b130 f i CommentConfig.obj
 0001:0000a170       ??1?$_Container_base_aux_alloc_empty@V?$allocator@U?$pair@$$CBV?$basic_string@_WU?$char_traits@_W@std@@V?$allocator@_W@2@@std@@V12@@std@@@std@@@std@@IAE@XZ 0040b170 f i CommentConfig.obj
 0001:0000a190       ??0?$allocator@U?$pair@$$CBV?$basic_string@_WU?$char_traits@_W@std@@V?$allocator@_W@2@@std@@V12@@std@@@std@@QAE@XZ 0040b190 f i CommentConfig.obj
 0001:0000a1a0       ?begin@?$vector@U?$pair@V?$basic_string@_WU?$char_traits@_W@std@@V?$allocator@_W@2@@std@@V12@@std@@V?$allocator@U?$pair@V?$basic_string@_WU?$char_traits@_W@std@@V?$allocator@_W@2@@std@@V12@@std@@@2@@std@@QBE?AV?$_Vector_const_iterator@U?$pair@V?$basic_string@_WU?$char_traits@_W@std@@V?$allocator@_W@2@@std@@V12@@std@@V?$allocator@U?$pair@V?$basic_string@_WU?$char_traits@_W@std@@V?$allocator@_W@2@@std@@V12@@std@@@2@@2@XZ 0040b1a0 f i CommentConfig.obj
 0001:0000a1e0       ?end@?$vector@U?$pair@V?$basic_string@_WU?$char_traits@_W@std@@V?$allocator@_W@2@@std@@V12@@std@@V?$allocator@U?$pair@V?$basic_string@_WU?$char_traits@_W@std@@V?$allocator@_W@2@@std@@V12@@std@@@2@@std@@QBE?AV?$_Vector_const_iterator@U?$pair@V?$basic_string@_WU?$char_traits@_W@std@@V?$allocator@_W@2@@std@@V12@@std@@V?$allocator@U?$pair@V?$basic_string@_WU?$char_traits@_W@std@@V?$allocator@_W@2@@std@@V12@@std@@@2@@2@XZ 0040b1e0 f i CommentConfig.obj
 0001:0000a220       ?size@?$vector@U?$pair@V?$basic_string@_WU?$char_traits@_W@std@@V?$allocator@_W@2@@std@@V12@@std@@V?$allocator@U?$pair@V?$basic_string@_WU?$char_traits@_W@std@@V?$allocator@_W@2@@std@@V12@@std@@@2@@std@@QBEIXZ 0040b220 f i CommentConfig.obj
 0001:0000a240       ?_Buy@?$vector@U?$pair@V?$basic_string@_WU?$char_traits@_W@std@@V?$allocator@_W@2@@std@@V12@@std@@V?$allocator@U?$pair@V?$basic_string@_WU?$char_traits@_W@std@@V?$allocator@_W@2@@std@@V12@@std@@@2@@std@@IAE_NI@Z 0040b240 f i CommentConfig.obj
 0001:0000a2c0       ?_Tidy@?$vector@U?$pair@V?$basic_string@_WU?$char_traits@_W@std@@V?$allocator@_W@2@@std@@V12@@std@@V?$allocator@U?$pair@V?$basic_string@_WU?$char_traits@_W@std@@V?$allocator@_W@2@@std@@V12@@std@@@2@@std@@IAEXXZ 0040b2c0 f i CommentConfig.obj
 0001:0000a340       ??0?$_Vector_val@U?$pair@V?$basic_string@_WU?$char_traits@_W@std@@V?$allocator@_W@2@@std@@V12@@std@@V?$allocator@U?$pair@V?$basic_string@_WU?$char_traits@_W@std@@V?$allocator@_W@2@@std@@V12@@std@@@2@@std@@IAE@V?$allocator@U?$pair@V?$basic_string@_WU?$char_traits@_W@std@@V?$allocator@_W@2@@std@@V12@@std@@@1@@Z 0040b340 f i CommentConfig.obj
 0001:0000a380       ??1?$_Container_base_aux_alloc_empty@V?$allocator@U?$pair@V?$basic_string@_WU?$char_traits@_W@std@@V?$allocator@_W@2@@std@@V12@@std@@@std@@@std@@IAE@XZ 0040b380 f i CommentConfig.obj
 0001:0000a3a0       ??0?$allocator@U?$pair@V?$basic_string@_WU?$char_traits@_W@std@@V?$allocator@_W@2@@std@@V12@@std@@@std@@QAE@XZ 0040b3a0 f i CommentConfig.obj
 0001:0000a3b0       ??0?$allocator@U?$pair@V?$basic_string@_WU?$char_traits@_W@std@@V?$allocator@_W@2@@std@@V12@@std@@@std@@QAE@ABV01@@Z 0040b3b0 f i CommentConfig.obj
 0001:0000a3c0       ??1iterator@?$_Tree@V?$_Tmap_traits@V?$basic_string@_WU?$char_traits@_W@std@@V?$allocator@_W@2@@std@@V12@U?$less@V?$basic_string@_WU?$char_traits@_W@std@@V?$allocator@_W@2@@std@@@2@V?$allocator@U?$pair@$$CBV?$basic_string@_WU?$char_traits@_W@std@@V?$allocator@_W@2@@std@@V12@@std@@@2@$0A@@std@@@std@@QAE@XZ 0040b3c0 f i CommentConfig.obj
 0001:0000a3e0       ??0const_iterator@?$_Tree@V?$_Tmap_traits@V?$basic_string@_WU?$char_traits@_W@std@@V?$allocator@_W@2@@std@@V12@U?$less@V?$basic_string@_WU?$char_traits@_W@std@@V?$allocator@_W@2@@std@@@2@V?$allocator@U?$pair@$$CBV?$basic_string@_WU?$char_traits@_W@std@@V?$allocator@_W@2@@std@@V12@@std@@@2@$0A@@std@@@std@@QAE@ABV012@@Z 0040b3e0 f i CommentConfig.obj
 0001:0000a410       ??1const_iterator@?$_Tree@V?$_Tmap_traits@V?$basic_string@_WU?$char_traits@_W@std@@V?$allocator@_W@2@@std@@V12@U?$less@V?$basic_string@_WU?$char_traits@_W@std@@V?$allocator@_W@2@@std@@@2@V?$allocator@U?$pair@$$CBV?$basic_string@_WU?$char_traits@_W@std@@V?$allocator@_W@2@@std@@V12@@std@@@2@$0A@@std@@@std@@QAE@XZ 0040b410 f i CommentConfig.obj
 0001:0000a430       ??0?$_Bidit@U?$pair@$$CBV?$basic_string@_WU?$char_traits@_W@std@@V?$allocator@_W@2@@std@@V12@@std@@HPBU12@ABU12@@std@@QAE@ABU01@@Z 0040b430 f i CommentConfig.obj
 0001:0000a450       ??1?$_Bidit@U?$pair@$$CBV?$basic_string@_WU?$char_traits@_W@std@@V?$allocator@_W@2@@std@@V12@@std@@HPBU12@ABU12@@std@@QAE@XZ 0040b450 f i CommentConfig.obj
 0001:0000a470       ??0?$_Iterator_with_base@Ubidirectional_iterator_tag@std@@U?$pair@$$CBV?$basic_string@_WU?$char_traits@_W@std@@V?$allocator@_W@2@@std@@V12@@2@HPBU32@ABU32@V_Iterator_base@2@@std@@QAE@ABU01@@Z 0040b470 f i CommentConfig.obj
 0001:0000a490       ??1?$_Iterator_with_base@Ubidirectional_iterator_tag@std@@U?$pair@$$CBV?$basic_string@_WU?$char_traits@_W@std@@V?$allocator@_W@2@@std@@V12@@2@HPBU32@ABU32@V_Iterator_base@2@@std@@QAE@XZ 0040b490 f i CommentConfig.obj
 0001:0000a4b0       ?_Isnil@?$_Tree@V?$_Tmap_traits@V?$basic_string@_WU?$char_traits@_W@std@@V?$allocator@_W@2@@std@@V12@U?$less@V?$basic_string@_WU?$char_traits@_W@std@@V?$allocator@_W@2@@std@@@2@V?$allocator@U?$pair@$$CBV?$basic_string@_WU?$char_traits@_W@std@@V?$allocator@_W@2@@std@@V12@@std@@@2@$0A@@std@@@std@@KAAADPAU_Node@?$_Tree_nod@V?$_Tmap_traits@V?$basic_string@_WU?$char_traits@_W@std@@V?$allocator@_W@2@@std@@V12@U?$less@V?$basic_string@_WU?$char_traits@_W@std@@V?$allocator@_W@2@@std@@@2@V?$allocator@U?$pair@$$CBV?$basic_string@_WU?$char_traits@_W@std@@V?$allocator@_W@2@@std@@V12@@std@@@2@$0A@@std@@@2@@Z 0040b4b0 f i CommentConfig.obj
 0001:0000a4c0       ?_Left@?$_Tree@V?$_Tmap_traits@V?$basic_string@_WU?$char_traits@_W@std@@V?$allocator@_W@2@@std@@V12@U?$less@V?$basic_string@_WU?$char_traits@_W@std@@V?$allocator@_W@2@@std@@@2@V?$allocator@U?$pair@$$CBV?$basic_string@_WU?$char_traits@_W@std@@V?$allocator@_W@2@@std@@V12@@std@@@2@$0A@@std@@@std@@KAAAPAU_Node@?$_Tree_nod@V?$_Tmap_traits@V?$basic_string@_WU?$char_traits@_W@std@@V?$allocator@_W@2@@std@@V12@U?$less@V?$basic_string@_WU?$char_traits@_W@std@@V?$allocator@_W@2@@std@@@2@V?$allocator@U?$pair@$$CBV?$basic_string@_WU?$char_traits@_W@std@@V?$allocator@_W@2@@std@@V12@@std@@@2@$0A@@std@@@2@PAU342@@Z 0040b4c0 f i CommentConfig.obj
 0001:0000a4d0       ?_Parent@?$_Tree@V?$_Tmap_traits@V?$basic_string@_WU?$char_traits@_W@std@@V?$allocator@_W@2@@std@@V12@U?$less@V?$basic_string@_WU?$char_traits@_W@std@@V?$allocator@_W@2@@std@@@2@V?$allocator@U?$pair@$$CBV?$basic_string@_WU?$char_traits@_W@std@@V?$allocator@_W@2@@std@@V12@@std@@@2@$0A@@std@@@std@@KAAAPAU_Node@?$_Tree_nod@V?$_Tmap_traits@V?$basic_string@_WU?$char_traits@_W@std@@V?$allocator@_W@2@@std@@V12@U?$less@V?$basic_string@_WU?$char_traits@_W@std@@V?$allocator@_W@2@@std@@@2@V?$allocator@U?$pair@$$CBV?$basic_string@_WU?$char_traits@_W@std@@V?$allocator@_W@2@@std@@V12@@std@@@2@$0A@@std@@@2@PAU342@@Z 0040b4d0 f i CommentConfig.obj
 0001:0000a4e0       ?_Right@?$_Tree@V?$_Tmap_traits@V?$basic_string@_WU?$char_traits@_W@std@@V?$allocator@_W@2@@std@@V12@U?$less@V?$basic_string@_WU?$char_traits@_W@std@@V?$allocator@_W@2@@std@@@2@V?$allocator@U?$pair@$$CBV?$basic_string@_WU?$char_traits@_W@std@@V?$allocator@_W@2@@std@@V12@@std@@@2@$0A@@std@@@std@@KAAAPAU_Node@?$_Tree_nod@V?$_Tmap_traits@V?$basic_string@_WU?$char_traits@_W@std@@V?$allocator@_W@2@@std@@V12@U?$less@V?$basic_string@_WU?$char_traits@_W@std@@V?$allocator@_W@2@@std@@@2@V?$allocator@U?$pair@$$CBV?$basic_string@_WU?$char_traits@_W@std@@V?$allocator@_W@2@@std@@V12@@std@@@2@$0A@@std@@@2@PAU342@@Z 0040b4e0 f i CommentConfig.obj
 0001:0000a4f0       ?begin@?$_Tree@V?$_Tmap_traits@V?$basic_string@_WU?$char_traits@_W@std@@V?$allocator@_W@2@@std@@V12@U?$less@V?$basic_string@_WU?$char_traits@_W@std@@V?$allocator@_W@2@@std@@@2@V?$allocator@U?$pair@$$CBV?$basic_string@_WU?$char_traits@_W@std@@V?$allocator@_W@2@@std@@V12@@std@@@2@$0A@@std@@@std@@QAE?AViterator@12@XZ 0040b4f0 f i CommentConfig.obj
 0001:0000a530       ?end@?$_Tree@V?$_Tmap_traits@V?$basic_string@_WU?$char_traits@_W@std@@V?$allocator@_W@2@@std@@V12@U?$less@V?$basic_string@_WU?$char_traits@_W@std@@V?$allocator@_W@2@@std@@@2@V?$allocator@U?$pair@$$CBV?$basic_string@_WU?$char_traits@_W@std@@V?$allocator@_W@2@@std@@V12@@std@@@2@$0A@@std@@@std@@QAE?AViterator@12@XZ 0040b530 f i CommentConfig.obj
 0001:0000a570       ?size@?$_Tree@V?$_Tmap_traits@V?$basic_string@_WU?$char_traits@_W@std@@V?$allocator@_W@2@@std@@V12@U?$less@V?$basic_string@_WU?$char_traits@_W@std@@V?$allocator@_W@2@@std@@@2@V?$allocator@U?$pair@$$CBV?$basic_string@_WU?$char_traits@_W@std@@V?$allocator@_W@2@@std@@V12@@std@@@2@$0A@@std@@@std@@QBEIXZ 0040b570 f i CommentConfig.obj
 0001:0000a590       ?erase@?$_Tree@V?$_Tmap_traits@V?$basic_string@_WU?$char_traits@_W@std@@V?$allocator@_W@2@@std@@V12@U?$less@V?$basic_string@_WU?$char_traits@_W@std@@V?$allocator@_W@2@@std@@@2@V?$allocator@U?$pair@$$CBV?$basic_string@_WU?$char_traits@_W@std@@V?$allocator@_W@2@@std@@V12@@std@@@2@$0A@@std@@@std@@QAE?AViterator@12@Vconst_iterator@12@0@Z 0040b590 f i CommentConfig.obj
 0001:0000a780       ?_Copy@?$_Tree@V?$_Tmap_traits@V?$basic_string@_WU?$char_traits@_W@std@@V?$allocator@_W@2@@std@@V12@U?$less@V?$basic_string@_WU?$char_traits@_W@std@@V?$allocator@_W@2@@std@@@2@V?$allocator@U?$pair@$$CBV?$basic_string@_WU?$char_traits@_W@std@@V?$allocator@_W@2@@std@@V12@@std@@@2@$0A@@std@@@std@@IAEPAU_Node@?$_Tree_nod@V?$_Tmap_traits@V?$basic_string@_WU?$char_traits@_W@std@@V?$allocator@_W@2@@std@@V12@U?$less@V?$basic_string@_WU?$char_traits@_W@std@@V?$allocator@_W@2@@std@@@2@V?$allocator@U?$pair@$$CBV?$basic_string@_WU?$char_traits@_W@std@@V?$allocator@_W@2@@std@@V12@@std@@@2@$0A@@std@@@2@PAU342@0@Z 0040b780 f i CommentConfig.obj
 0001:0000a8f0       ?_Lmost@?$_Tree@V?$_Tmap_traits@V?$basic_string@_WU?$char_traits@_W@std@@V?$allocator@_W@2@@std@@V12@U?$less@V?$basic_string@_WU?$char_traits@_W@std@@V?$allocator@_W@2@@std@@@2@V?$allocator@U?$pair@$$CBV?$basic_string@_WU?$char_traits@_W@std@@V?$allocator@_W@2@@std@@V12@@std@@@2@$0A@@std@@@std@@IBEAAPAU_Node@?$_Tree_nod@V?$_Tmap_traits@V?$basic_string@_WU?$char_traits@_W@std@@V?$allocator@_W@2@@std@@V12@U?$less@V?$basic_string@_WU?$char_traits@_W@std@@V?$allocator@_W@2@@std@@@2@V?$allocator@U?$pair@$$CBV?$basic_string@_WU?$char_traits@_W@std@@V?$allocator@_W@2@@std@@V12@@std@@@2@$0A@@std@@@2@XZ 0040b8f0 f i CommentConfig.obj
 0001:0000a910       ?_Max@?$_Tree@V?$_Tmap_traits@V?$basic_string@_WU?$char_traits@_W@std@@V?$allocator@_W@2@@std@@V12@U?$less@V?$basic_string@_WU?$char_traits@_W@std@@V?$allocator@_W@2@@std@@@2@V?$allocator@U?$pair@$$CBV?$basic_string@_WU?$char_traits@_W@std@@V?$allocator@_W@2@@std@@V12@@std@@@2@$0A@@std@@@std@@KAPAU_Node@?$_Tree_nod@V?$_Tmap_traits@V?$basic_string@_WU?$char_traits@_W@std@@V?$allocator@_W@2@@std@@V12@U?$less@V?$basic_string@_WU?$char_traits@_W@std@@V?$allocator@_W@2@@std@@@2@V?$allocator@U?$pair@$$CBV?$basic_string@_WU?$char_traits@_W@std@@V?$allocator@_W@2@@std@@V12@@std@@@2@$0A@@std@@@2@PAU342@@Z 0040b910 f i CommentConfig.obj
 0001:0000a950       ?_Min@?$_Tree@V?$_Tmap_traits@V?$basic_string@_WU?$char_traits@_W@std@@V?$allocator@_W@2@@std@@V12@U?$less@V?$basic_string@_WU?$char_traits@_W@std@@V?$allocator@_W@2@@std@@@2@V?$allocator@U?$pair@$$CBV?$basic_string@_WU?$char_traits@_W@std@@V?$allocator@_W@2@@std@@V12@@std@@@2@$0A@@std@@@std@@KAPAU_Node@?$_Tree_nod@V?$_Tmap_traits@V?$basic_string@_WU?$char_traits@_W@std@@V?$allocator@_W@2@@std@@V12@U?$less@V?$basic_string@_WU?$char_traits@_W@std@@V?$allocator@_W@2@@std@@@2@V?$allocator@U?$pair@$$CBV?$basic_string@_WU?$char_traits@_W@std@@V?$allocator@_W@2@@std@@V12@@std@@@2@$0A@@std@@@2@PAU342@@Z 0040b950 f i CommentConfig.obj
 0001:0000a990       ?_Rmost@?$_Tree@V?$_Tmap_traits@V?$basic_string@_WU?$char_traits@_W@std@@V?$allocator@_W@2@@std@@V12@U?$less@V?$basic_string@_WU?$char_traits@_W@std@@V?$allocator@_W@2@@std@@@2@V?$allocator@U?$pair@$$CBV?$basic_string@_WU?$char_traits@_W@std@@V?$allocator@_W@2@@std@@V12@@std@@@2@$0A@@std@@@std@@IBEAAPAU_Node@?$_Tree_nod@V?$_Tmap_traits@V?$basic_string@_WU?$char_traits@_W@std@@V?$allocator@_W@2@@std@@V12@U?$less@V?$basic_string@_WU?$char_traits@_W@std@@V?$allocator@_W@2@@std@@@2@V?$allocator@U?$pair@$$CBV?$basic_string@_WU?$char_traits@_W@std@@V?$allocator@_W@2@@std@@V12@@std@@@2@$0A@@std@@@2@XZ 0040b990 f i CommentConfig.obj
 0001:0000a9b0       ?_Root@?$_Tree@V?$_Tmap_traits@V?$basic_string@_WU?$char_traits@_W@std@@V?$allocator@_W@2@@std@@V12@U?$less@V?$basic_string@_WU?$char_traits@_W@std@@V?$allocator@_W@2@@std@@@2@V?$allocator@U?$pair@$$CBV?$basic_string@_WU?$char_traits@_W@std@@V?$allocator@_W@2@@std@@V12@@std@@@2@$0A@@std@@@std@@IBEAAPAU_Node@?$_Tree_nod@V?$_Tmap_traits@V?$basic_string@_WU?$char_traits@_W@std@@V?$allocator@_W@2@@std@@V12@U?$less@V?$basic_string@_WU?$char_traits@_W@std@@V?$allocator@_W@2@@std@@@2@V?$allocator@U?$pair@$$CBV?$basic_string@_WU?$char_traits@_W@std@@V?$allocator@_W@2@@std@@V12@@std@@@2@$0A@@std@@@2@XZ 0040b9b0 f i CommentConfig.obj
 0001:0000a9d0       ?_Buynode@?$_Tree@V?$_Tmap_traits@V?$basic_string@_WU?$char_traits@_W@std@@V?$allocator@_W@2@@std@@V12@U?$less@V?$basic_string@_WU?$char_traits@_W@std@@V?$allocator@_W@2@@std@@@2@V?$allocator@U?$pair@$$CBV?$basic_string@_WU?$char_traits@_W@std@@V?$allocator@_W@2@@std@@V12@@std@@@2@$0A@@std@@@std@@IAEPAU_Node@?$_Tree_nod@V?$_Tmap_traits@V?$basic_string@_WU?$char_traits@_W@std@@V?$allocator@_W@2@@std@@V12@U?$less@V?$basic_string@_WU?$char_traits@_W@std@@V?$allocator@_W@2@@std@@@2@V?$allocator@U?$pair@$$CBV?$basic_string@_WU?$char_traits@_W@std@@V?$allocator@_W@2@@std@@V12@@std@@@2@$0A@@std@@@2@XZ 0040b9d0 f i CommentConfig.obj
 0001:0000ab50       ??0?$_Tree_ptr@V?$_Tmap_traits@V?$basic_string@_WU?$char_traits@_W@std@@V?$allocator@_W@2@@std@@V12@U?$less@V?$basic_string@_WU?$char_traits@_W@std@@V?$allocator@_W@2@@std@@@2@V?$allocator@U?$pair@$$CBV?$basic_string@_WU?$char_traits@_W@std@@V?$allocator@_W@2@@std@@V12@@std@@@2@$0A@@std@@@std@@QAE@ABU?$less@V?$basic_string@_WU?$char_traits@_W@std@@V?$allocator@_W@2@@std@@@1@V?$allocator@U?$pair@$$CBV?$basic_string@_WU?$char_traits@_W@std@@V?$allocator@_W@2@@std@@V12@@std@@@1@@Z 0040bb50 f i CommentConfig.obj
 0001:0000ab90       ??0?$allocator@U?$pair@$$CBV?$basic_string@_WU?$char_traits@_W@std@@V?$allocator@_W@2@@std@@V12@@std@@@std@@QAE@ABV01@@Z 0040bb90 f i CommentConfig.obj
 0001:0000aba0       ?deallocate@?$allocator@U_Node@?$_Tree_nod@V?$_Tmap_traits@V?$basic_string@_WU?$char_traits@_W@std@@V?$allocator@_W@2@@std@@V12@U?$less@V?$basic_string@_WU?$char_traits@_W@std@@V?$allocator@_W@2@@std@@@2@V?$allocator@U?$pair@$$CBV?$basic_string@_WU?$char_traits@_W@std@@V?$allocator@_W@2@@std@@V12@@std@@@2@$0A@@std@@@std@@@std@@QAEXPAU_Node@?$_Tree_nod@V?$_Tmap_traits@V?$basic_string@_WU?$char_traits@_W@std@@V?$allocator@_W@2@@std@@V12@U?$less@V?$basic_string@_WU?$char_traits@_W@std@@V?$allocator@_W@2@@std@@@2@V?$allocator@U?$pair@$$CBV?$basic_string@_WU?$char_traits@_W@std@@V?$allocator@_W@2@@std@@V12@@std@@@2@$0A@@std@@@2@I@Z 0040bba0 f i CommentConfig.obj
 0001:0000abc0       ?destroy@?$allocator@PAU_Node@?$_Tree_nod@V?$_Tmap_traits@V?$basic_string@_WU?$char_traits@_W@std@@V?$allocator@_W@2@@std@@V12@U?$less@V?$basic_string@_WU?$char_traits@_W@std@@V?$allocator@_W@2@@std@@@2@V?$allocator@U?$pair@$$CBV?$basic_string@_WU?$char_traits@_W@std@@V?$allocator@_W@2@@std@@V12@@std@@@2@$0A@@std@@@std@@@std@@QAEXPAPAU_Node@?$_Tree_nod@V?$_Tmap_traits@V?$basic_string@_WU?$char_traits@_W@std@@V?$allocator@_W@2@@std@@V12@U?$less@V?$basic_string@_WU?$char_traits@_W@std@@V?$allocator@_W@2@@std@@@2@V?$allocator@U?$pair@$$CBV?$basic_string@_WU?$char_traits@_W@std@@V?$allocator@_W@2@@std@@V12@@std@@@2@$0A@@std@@@2@@Z 0040bbc0 f i CommentConfig.obj
 0001:0000abe0       ?max_size@?$vector@U?$pair@V?$basic_string@_WU?$char_traits@_W@std@@V?$allocator@_W@2@@std@@V12@@std@@V?$allocator@U?$pair@V?$basic_string@_WU?$char_traits@_W@std@@V?$allocator@_W@2@@std@@V12@@std@@@2@@std@@QBEIXZ 0040bbe0 f i CommentConfig.obj
 0001:0000ac00       ?_Destroy@?$vector@U?$pair@V?$basic_string@_WU?$char_traits@_W@std@@V?$allocator@_W@2@@std@@V12@@std@@V?$allocator@U?$pair@V?$basic_string@_WU?$char_traits@_W@std@@V?$allocator@_W@2@@std@@V12@@std@@@2@@std@@IAEXPAU?$pair@V?$basic_string@_WU?$char_traits@_W@std@@V?$allocator@_W@2@@std@@V12@@2@0@Z 0040bc00 f i CommentConfig.obj
 0001:0000ac30       ?_Xlen@?$vector@U?$pair@V?$basic_string@_WU?$char_traits@_W@std@@V?$allocator@_W@2@@std@@V12@@std@@V?$allocator@U?$pair@V?$basic_string@_WU?$char_traits@_W@std@@V?$allocator@_W@2@@std@@V12@@std@@@2@@std@@KAXXZ 0040bc30 f i CommentConfig.obj
 0001:0000acb0       ??0?$_Container_base_aux_alloc_empty@V?$allocator@U?$pair@V?$basic_string@_WU?$char_traits@_W@std@@V?$allocator@_W@2@@std@@V12@@std@@@std@@@std@@IAE@V?$allocator@U?$pair@V?$basic_string@_WU?$char_traits@_W@std@@V?$allocator@_W@2@@std@@V12@@std@@@1@@Z 0040bcb0 f i CommentConfig.obj
 0001:0000acd0       ?deallocate@?$allocator@U?$pair@V?$basic_string@_WU?$char_traits@_W@std@@V?$allocator@_W@2@@std@@V12@@std@@@std@@QAEXPAU?$pair@V?$basic_string@_WU?$char_traits@_W@std@@V?$allocator@_W@2@@std@@V12@@2@I@Z 0040bcd0 f i CommentConfig.obj
 0001:0000acf0       ?allocate@?$allocator@U?$pair@V?$basic_string@_WU?$char_traits@_W@std@@V?$allocator@_W@2@@std@@V12@@std@@@std@@QAEPAU?$pair@V?$basic_string@_WU?$char_traits@_W@std@@V?$allocator@_W@2@@std@@V12@@2@I@Z 0040bcf0 f i CommentConfig.obj
 0001:0000ad10       ??0?$_Vector_const_iterator@V?$basic_string@_WU?$char_traits@_W@std@@V?$allocator@_W@2@@std@@V?$allocator@V?$basic_string@_WU?$char_traits@_W@std@@V?$allocator@_W@2@@std@@@2@@std@@QAE@PAV?$basic_string@_WU?$char_traits@_W@std@@V?$allocator@_W@2@@1@PBV_Container_base_secure@1@@Z 0040bd10 f i CommentConfig.obj
 0001:0000ade0       ??0?$_Vector_const_iterator@U?$pair@V?$basic_string@_WU?$char_traits@_W@std@@V?$allocator@_W@2@@std@@V12@@std@@V?$allocator@U?$pair@V?$basic_string@_WU?$char_traits@_W@std@@V?$allocator@_W@2@@std@@V12@@std@@@2@@std@@QAE@PAU?$pair@V?$basic_string@_WU?$char_traits@_W@std@@V?$allocator@_W@2@@std@@V12@@1@PBV_Container_base_secure@1@@Z 0040bde0 f i CommentConfig.obj
 0001:0000aeb0       ??0?$_Ranit@V?$basic_string@_WU?$char_traits@_W@std@@V?$allocator@_W@2@@std@@HPBV12@ABV12@@std@@QAE@XZ 0040beb0 f i CommentConfig.obj
 0001:0000aed0       ??0?$_Ranit@U?$pair@V?$basic_string@_WU?$char_traits@_W@std@@V?$allocator@_W@2@@std@@V12@@std@@HPBU12@ABU12@@std@@QAE@XZ 0040bed0 f i CommentConfig.obj
 0001:0000aef0       ??0?$_Iterator_with_base@Urandom_access_iterator_tag@std@@V?$basic_string@_WU?$char_traits@_W@std@@V?$allocator@_W@2@@2@HPBV32@ABV32@V_Iterator_base@2@@std@@QAE@XZ 0040bef0 f i CommentConfig.obj
 0001:0000af10       ??0?$_Iterator_with_base@Urandom_access_iterator_tag@std@@U?$pair@V?$basic_string@_WU?$char_traits@_W@std@@V?$allocator@_W@2@@std@@V12@@2@HPBU32@ABU32@V_Iterator_base@2@@std@@QAE@XZ 0040bf10 f i CommentConfig.obj
 0001:0000af30       ?_Color@?$_Tree@V?$_Tmap_traits@V?$basic_string@_WU?$char_traits@_W@std@@V?$allocator@_W@2@@std@@V12@U?$less@V?$basic_string@_WU?$char_traits@_W@std@@V?$allocator@_W@2@@std@@@2@V?$allocator@U?$pair@$$CBV?$basic_string@_WU?$char_traits@_W@std@@V?$allocator@_W@2@@std@@V12@@std@@@2@$0A@@std@@@std@@KAAADPAU_Node@?$_Tree_nod@V?$_Tmap_traits@V?$basic_string@_WU?$char_traits@_W@std@@V?$allocator@_W@2@@std@@V12@U?$less@V?$basic_string@_WU?$char_traits@_W@std@@V?$allocator@_W@2@@std@@@2@V?$allocator@U?$pair@$$CBV?$basic_string@_WU?$char_traits@_W@std@@V?$allocator@_W@2@@std@@V12@@std@@@2@$0A@@std@@@2@@Z 0040bf30 f i CommentConfig.obj
 0001:0000af40       ?_Myval@?$_Tree@V?$_Tmap_traits@V?$basic_string@_WU?$char_traits@_W@std@@V?$allocator@_W@2@@std@@V12@U?$less@V?$basic_string@_WU?$char_traits@_W@std@@V?$allocator@_W@2@@std@@@2@V?$allocator@U?$pair@$$CBV?$basic_string@_WU?$char_traits@_W@std@@V?$allocator@_W@2@@std@@V12@@std@@@2@$0A@@std@@@std@@KAAAU?$pair@$$CBV?$basic_string@_WU?$char_traits@_W@std@@V?$allocator@_W@2@@std@@V12@@2@PAU_Node@?$_Tree_nod@V?$_Tmap_traits@V?$basic_string@_WU?$char_traits@_W@std@@V?$allocator@_W@2@@std@@V12@U?$less@V?$basic_string@_WU?$char_traits@_W@std@@V?$allocator@_W@2@@std@@@2@V?$allocator@U?$pair@$$CBV?$basic_string@_WU?$char_traits@_W@std@@V?$allocator@_W@2@@std@@V12@@std@@@2@$0A@@std@@@2@@Z 0040bf40 f i CommentConfig.obj
 0001:0000af50       ?_Make_iter@?$_Tree@V?$_Tmap_traits@V?$basic_string@_WU?$char_traits@_W@std@@V?$allocator@_W@2@@std@@V12@U?$less@V?$basic_string@_WU?$char_traits@_W@std@@V?$allocator@_W@2@@std@@@2@V?$allocator@U?$pair@$$CBV?$basic_string@_WU?$char_traits@_W@std@@V?$allocator@_W@2@@std@@V12@@std@@@2@$0A@@std@@@std@@QBE?AViterator@12@Vconst_iterator@12@@Z 0040bf50 f i CommentConfig.obj
 0001:0000aff0       ?erase@?$_Tree@V?$_Tmap_traits@V?$basic_string@_WU?$char_traits@_W@std@@V?$allocator@_W@2@@std@@V12@U?$less@V?$basic_string@_WU?$char_traits@_W@std@@V?$allocator@_W@2@@std@@@2@V?$allocator@U?$pair@$$CBV?$basic_string@_WU?$char_traits@_W@std@@V?$allocator@_W@2@@std@@V12@@std@@@2@$0A@@std@@@std@@QAE?AViterator@12@Vconst_iterator@12@@Z 0040bff0 f i CommentConfig.obj
 0001:0000b7f0       ?clear@?$_Tree@V?$_Tmap_traits@V?$basic_string@_WU?$char_traits@_W@std@@V?$allocator@_W@2@@std@@V12@U?$less@V?$basic_string@_WU?$char_traits@_W@std@@V?$allocator@_W@2@@std@@@2@V?$allocator@U?$pair@$$CBV?$basic_string@_WU?$char_traits@_W@std@@V?$allocator@_W@2@@std@@V12@@std@@@2@$0A@@std@@@std@@QAEXXZ 0040c7f0 f i CommentConfig.obj
 0001:0000b860       ?_Erase@?$_Tree@V?$_Tmap_traits@V?$basic_string@_WU?$char_traits@_W@std@@V?$allocator@_W@2@@std@@V12@U?$less@V?$basic_string@_WU?$char_traits@_W@std@@V?$allocator@_W@2@@std@@@2@V?$allocator@U?$pair@$$CBV?$basic_string@_WU?$char_traits@_W@std@@V?$allocator@_W@2@@std@@V12@@std@@@2@$0A@@std@@@std@@IAEXPAU_Node@?$_Tree_nod@V?$_Tmap_traits@V?$basic_string@_WU?$char_traits@_W@std@@V?$allocator@_W@2@@std@@V12@U?$less@V?$basic_string@_WU?$char_traits@_W@std@@V?$allocator@_W@2@@std@@@2@V?$allocator@U?$pair@$$CBV?$basic_string@_WU?$char_traits@_W@std@@V?$allocator@_W@2@@std@@V12@@std@@@2@$0A@@std@@@2@@Z 0040c860 f i CommentConfig.obj
 0001:0000b8e0       ?_Buynode@?$_Tree@V?$_Tmap_traits@V?$basic_string@_WU?$char_traits@_W@std@@V?$allocator@_W@2@@std@@V12@U?$less@V?$basic_string@_WU?$char_traits@_W@std@@V?$allocator@_W@2@@std@@@2@V?$allocator@U?$pair@$$CBV?$basic_string@_WU?$char_traits@_W@std@@V?$allocator@_W@2@@std@@V12@@std@@@2@$0A@@std@@@std@@IAEPAU_Node@?$_Tree_nod@V?$_Tmap_traits@V?$basic_string@_WU?$char_traits@_W@std@@V?$allocator@_W@2@@std@@V12@U?$less@V?$basic_string@_WU?$char_traits@_W@std@@V?$allocator@_W@2@@std@@@2@V?$allocator@U?$pair@$$CBV?$basic_string@_WU?$char_traits@_W@std@@V?$allocator@_W@2@@std@@V12@@std@@@2@$0A@@std@@@2@PAU342@00ABU?$pair@$$CBV?$basic_string@_WU?$char_traits@_W@std@@V?$allocator@_W@2@@std@@V12@@2@D@Z 0040c8e0 f i CommentConfig.obj
 0001:0000b9d0       ??3@YAXPAX0@Z              0040c9d0 f i CommentConfig.obj
 0001:0000b9e0       ??0?$_Tree_nod@V?$_Tmap_traits@V?$basic_string@_WU?$char_traits@_W@std@@V?$allocator@_W@2@@std@@V12@U?$less@V?$basic_string@_WU?$char_traits@_W@std@@V?$allocator@_W@2@@std@@@2@V?$allocator@U?$pair@$$CBV?$basic_string@_WU?$char_traits@_W@std@@V?$allocator@_W@2@@std@@V12@@std@@@2@$0A@@std@@@std@@IAE@ABU?$less@V?$basic_string@_WU?$char_traits@_W@std@@V?$allocator@_W@2@@std@@@1@V?$allocator@U?$pair@$$CBV?$basic_string@_WU?$char_traits@_W@std@@V?$allocator@_W@2@@std@@V12@@std@@@1@@Z 0040c9e0 f i CommentConfig.obj
 0001:0000ba20       ?allocate@?$allocator@U_Node@?$_Tree_nod@V?$_Tmap_traits@V?$basic_string@_WU?$char_traits@_W@std@@V?$allocator@_W@2@@std@@V12@U?$less@V?$basic_string@_WU?$char_traits@_W@std@@V?$allocator@_W@2@@std@@@2@V?$allocator@U?$pair@$$CBV?$basic_string@_WU?$char_traits@_W@std@@V?$allocator@_W@2@@std@@V12@@std@@@2@$0A@@std@@@std@@@std@@QAEPAU_Node@?$_Tree_nod@V?$_Tmap_traits@V?$basic_string@_WU?$char_traits@_W@std@@V?$allocator@_W@2@@std@@V12@U?$less@V?$basic_string@_WU?$char_traits@_W@std@@V?$allocator@_W@2@@std@@@2@V?$allocator@U?$pair@$$CBV?$basic_string@_WU?$char_traits@_W@std@@V?$allocator@_W@2@@std@@V12@@std@@@2@$0A@@std@@@2@I@Z 0040ca20 f i CommentConfig.obj
 0001:0000ba40       ?construct@?$allocator@PAU_Node@?$_Tree_nod@V?$_Tmap_traits@V?$basic_string@_WU?$char_traits@_W@std@@V?$allocator@_W@2@@std@@V12@U?$less@V?$basic_string@_WU?$char_traits@_W@std@@V?$allocator@_W@2@@std@@@2@V?$allocator@U?$pair@$$CBV?$basic_string@_WU?$char_traits@_W@std@@V?$allocator@_W@2@@std@@V12@@std@@@2@$0A@@std@@@std@@@std@@QAEXPAPAU_Node@?$_Tree_nod@V?$_Tmap_traits@V?$basic_string@_WU?$char_traits@_W@std@@V?$allocator@_W@2@@std@@V12@U?$less@V?$basic_string@_WU?$char_traits@_W@std@@V?$allocator@_W@2@@std@@@2@V?$allocator@U?$pair@$$CBV?$basic_string@_WU?$char_traits@_W@std@@V?$allocator@_W@2@@std@@V12@@std@@@2@$0A@@std@@@2@ABQAU342@@Z 0040ca40 f i CommentConfig.obj
 0001:0000ba60       ?max_size@?$allocator@U?$pair@V?$basic_string@_WU?$char_traits@_W@std@@V?$allocator@_W@2@@std@@V12@@std@@@std@@QBEIXZ 0040ca60 f i CommentConfig.obj
 0001:0000ba90       ??0iterator@?$_Tree@V?$_Tmap_traits@V?$basic_string@_WU?$char_traits@_W@std@@V?$allocator@_W@2@@std@@V12@U?$less@V?$basic_string@_WU?$char_traits@_W@std@@V?$allocator@_W@2@@std@@@2@V?$allocator@U?$pair@$$CBV?$basic_string@_WU?$char_traits@_W@std@@V?$allocator@_W@2@@std@@V12@@std@@@2@$0A@@std@@@std@@QAE@PAU_Node@?$_Tree_nod@V?$_Tmap_traits@V?$basic_string@_WU?$char_traits@_W@std@@V?$allocator@_W@2@@std@@V12@U?$less@V?$basic_string@_WU?$char_traits@_W@std@@V?$allocator@_W@2@@std@@@2@V?$allocator@U?$pair@$$CBV?$basic_string@_WU?$char_traits@_W@std@@V?$allocator@_W@2@@std@@V12@@std@@@2@$0A@@std@@@2@PBV12@@Z 0040ca90 f i CommentConfig.obj
 0001:0000bab0       ??Econst_iterator@?$_Tree@V?$_Tmap_traits@V?$basic_string@_WU?$char_traits@_W@std@@V?$allocator@_W@2@@std@@V12@U?$less@V?$basic_string@_WU?$char_traits@_W@std@@V?$allocator@_W@2@@std@@@2@V?$allocator@U?$pair@$$CBV?$basic_string@_WU?$char_traits@_W@std@@V?$allocator@_W@2@@std@@V12@@std@@@2@$0A@@std@@@std@@QAE?AV012@H@Z 0040cab0 f i CommentConfig.obj
 0001:0000bb30       ??8const_iterator@?$_Tree@V?$_Tmap_traits@V?$basic_string@_WU?$char_traits@_W@std@@V?$allocator@_W@2@@std@@V12@U?$less@V?$basic_string@_WU?$char_traits@_W@std@@V?$allocator@_W@2@@std@@@2@V?$allocator@U?$pair@$$CBV?$basic_string@_WU?$char_traits@_W@std@@V?$allocator@_W@2@@std@@V12@@std@@@2@$0A@@std@@@std@@QBE_NABV012@@Z 0040cb30 f i CommentConfig.obj
 0001:0000bbc0       ??9const_iterator@?$_Tree@V?$_Tmap_traits@V?$basic_string@_WU?$char_traits@_W@std@@V?$allocator@_W@2@@std@@V12@U?$less@V?$basic_string@_WU?$char_traits@_W@std@@V?$allocator@_W@2@@std@@@2@V?$allocator@U?$pair@$$CBV?$basic_string@_WU?$char_traits@_W@std@@V?$allocator@_W@2@@std@@V12@@std@@@2@$0A@@std@@@std@@QBE_NABV012@@Z 0040cbc0 f i CommentConfig.obj
 0001:0000bbf0       ??0iterator@?$_Tree@V?$_Tmap_traits@V?$basic_string@_WU?$char_traits@_W@std@@V?$allocator@_W@2@@std@@V12@U?$less@V?$basic_string@_WU?$char_traits@_W@std@@V?$allocator@_W@2@@std@@@2@V?$allocator@U?$pair@$$CBV?$basic_string@_WU?$char_traits@_W@std@@V?$allocator@_W@2@@std@@V12@@std@@@2@$0A@@std@@@std@@QAE@ABV012@@Z 0040cbf0 f i CommentConfig.obj
 0001:0000bc10       ?_Lrotate@?$_Tree@V?$_Tmap_traits@V?$basic_string@_WU?$char_traits@_W@std@@V?$allocator@_W@2@@std@@V12@U?$less@V?$basic_string@_WU?$char_traits@_W@std@@V?$allocator@_W@2@@std@@@2@V?$allocator@U?$pair@$$CBV?$basic_string@_WU?$char_traits@_W@std@@V?$allocator@_W@2@@std@@V12@@std@@@2@$0A@@std@@@std@@IAEXPAU_Node@?$_Tree_nod@V?$_Tmap_traits@V?$basic_string@_WU?$char_traits@_W@std@@V?$allocator@_W@2@@std@@V12@U?$less@V?$basic_string@_WU?$char_traits@_W@std@@V?$allocator@_W@2@@std@@@2@V?$allocator@U?$pair@$$CBV?$basic_string@_WU?$char_traits@_W@std@@V?$allocator@_W@2@@std@@V12@@std@@@2@$0A@@std@@@2@@Z 0040cc10 f i CommentConfig.obj
 0001:0000bd40       ?_Rrotate@?$_Tree@V?$_Tmap_traits@V?$basic_string@_WU?$char_traits@_W@std@@V?$allocator@_W@2@@std@@V12@U?$less@V?$basic_string@_WU?$char_traits@_W@std@@V?$allocator@_W@2@@std@@@2@V?$allocator@U?$pair@$$CBV?$basic_string@_WU?$char_traits@_W@std@@V?$allocator@_W@2@@std@@V12@@std@@@2@$0A@@std@@@std@@IAEXPAU_Node@?$_Tree_nod@V?$_Tmap_traits@V?$basic_string@_WU?$char_traits@_W@std@@V?$allocator@_W@2@@std@@V12@U?$less@V?$basic_string@_WU?$char_traits@_W@std@@V?$allocator@_W@2@@std@@@2@V?$allocator@U?$pair@$$CBV?$basic_string@_WU?$char_traits@_W@std@@V?$allocator@_W@2@@std@@V12@@std@@@2@$0A@@std@@@2@@Z 0040cd40 f i CommentConfig.obj
 0001:0000be70       ?_Orphan_ptr@?$_Tree@V?$_Tmap_traits@V?$basic_string@_WU?$char_traits@_W@std@@V?$allocator@_W@2@@std@@V12@U?$less@V?$basic_string@_WU?$char_traits@_W@std@@V?$allocator@_W@2@@std@@@2@V?$allocator@U?$pair@$$CBV?$basic_string@_WU?$char_traits@_W@std@@V?$allocator@_W@2@@std@@V12@@std@@@2@$0A@@std@@@std@@IBEXAAV12@PAU_Node@?$_Tree_nod@V?$_Tmap_traits@V?$basic_string@_WU?$char_traits@_W@std@@V?$allocator@_W@2@@std@@V12@U?$less@V?$basic_string@_WU?$char_traits@_W@std@@V?$allocator@_W@2@@std@@@2@V?$allocator@U?$pair@$$CBV?$basic_string@_WU?$char_traits@_W@std@@V?$allocator@_W@2@@std@@V12@@std@@@2@$0A@@std@@@2@@Z 0040ce70 f i CommentConfig.obj
 0001:0000bef0       ??0?$_Tmap_traits@V?$basic_string@_WU?$char_traits@_W@std@@V?$allocator@_W@2@@std@@V12@U?$less@V?$basic_string@_WU?$char_traits@_W@std@@V?$allocator@_W@2@@std@@@2@V?$allocator@U?$pair@$$CBV?$basic_string@_WU?$char_traits@_W@std@@V?$allocator@_W@2@@std@@V12@@std@@@2@$0A@@std@@QAE@U?$less@V?$basic_string@_WU?$char_traits@_W@std@@V?$allocator@_W@2@@std@@@1@V?$allocator@U?$pair@$$CBV?$basic_string@_WU?$char_traits@_W@std@@V?$allocator@_W@2@@std@@V12@@std@@@1@@Z 0040cef0 f i CommentConfig.obj
 0001:0000bf20       ?destroy@?$allocator@U_Node@?$_Tree_nod@V?$_Tmap_traits@V?$basic_string@_WU?$char_traits@_W@std@@V?$allocator@_W@2@@std@@V12@U?$less@V?$basic_string@_WU?$char_traits@_W@std@@V?$allocator@_W@2@@std@@@2@V?$allocator@U?$pair@$$CBV?$basic_string@_WU?$char_traits@_W@std@@V?$allocator@_W@2@@std@@V12@@std@@@2@$0A@@std@@@std@@@std@@QAEXPAU_Node@?$_Tree_nod@V?$_Tmap_traits@V?$basic_string@_WU?$char_traits@_W@std@@V?$allocator@_W@2@@std@@V12@U?$less@V?$basic_string@_WU?$char_traits@_W@std@@V?$allocator@_W@2@@std@@@2@V?$allocator@U?$pair@$$CBV?$basic_string@_WU?$char_traits@_W@std@@V?$allocator@_W@2@@std@@V12@@std@@@2@$0A@@std@@@2@@Z 0040cf20 f i CommentConfig.obj
 0001:0000bf40       ??0const_iterator@?$_Tree@V?$_Tmap_traits@V?$basic_string@_WU?$char_traits@_W@std@@V?$allocator@_W@2@@std@@V12@U?$less@V?$basic_string@_WU?$char_traits@_W@std@@V?$allocator@_W@2@@std@@@2@V?$allocator@U?$pair@$$CBV?$basic_string@_WU?$char_traits@_W@std@@V?$allocator@_W@2@@std@@V12@@std@@@2@$0A@@std@@@std@@QAE@PAU_Node@?$_Tree_nod@V?$_Tmap_traits@V?$basic_string@_WU?$char_traits@_W@std@@V?$allocator@_W@2@@std@@V12@U?$less@V?$basic_string@_WU?$char_traits@_W@std@@V?$allocator@_W@2@@std@@@2@V?$allocator@U?$pair@$$CBV?$basic_string@_WU?$char_traits@_W@std@@V?$allocator@_W@2@@std@@V12@@std@@@2@$0A@@std@@@2@PBV12@@Z 0040cf40 f i CommentConfig.obj
 0001:0000bfb0       ??Econst_iterator@?$_Tree@V?$_Tmap_traits@V?$basic_string@_WU?$char_traits@_W@std@@V?$allocator@_W@2@@std@@V12@U?$less@V?$basic_string@_WU?$char_traits@_W@std@@V?$allocator@_W@2@@std@@@2@V?$allocator@U?$pair@$$CBV?$basic_string@_WU?$char_traits@_W@std@@V?$allocator@_W@2@@std@@V12@@std@@@2@$0A@@std@@@std@@QAEAAV012@XZ 0040cfb0 f i CommentConfig.obj
 0001:0000bfd0       ?_Mynode@const_iterator@?$_Tree@V?$_Tmap_traits@V?$basic_string@_WU?$char_traits@_W@std@@V?$allocator@_W@2@@std@@V12@U?$less@V?$basic_string@_WU?$char_traits@_W@std@@V?$allocator@_W@2@@std@@@2@V?$allocator@U?$pair@$$CBV?$basic_string@_WU?$char_traits@_W@std@@V?$allocator@_W@2@@std@@V12@@std@@@2@$0A@@std@@@std@@QBEPAU_Node@?$_Tree_nod@V?$_Tmap_traits@V?$basic_string@_WU?$char_traits@_W@std@@V?$allocator@_W@2@@std@@V12@U?$less@V?$basic_string@_WU?$char_traits@_W@std@@V?$allocator@_W@2@@std@@@2@V?$allocator@U?$pair@$$CBV?$basic_string@_WU?$char_traits@_W@std@@V?$allocator@_W@2@@std@@V12@@std@@@2@$0A@@std@@@3@XZ 0040cfd0 f i CommentConfig.obj
 0001:0000bff0       ??0_Node@?$_Tree_nod@V?$_Tmap_traits@V?$basic_string@_WU?$char_traits@_W@std@@V?$allocator@_W@2@@std@@V12@U?$less@V?$basic_string@_WU?$char_traits@_W@std@@V?$allocator@_W@2@@std@@@2@V?$allocator@U?$pair@$$CBV?$basic_string@_WU?$char_traits@_W@std@@V?$allocator@_W@2@@std@@V12@@std@@@2@$0A@@std@@@std@@QAE@PAU012@00ABU?$pair@$$CBV?$basic_string@_WU?$char_traits@_W@std@@V?$allocator@_W@2@@std@@V12@@2@D@Z 0040cff0 f i CommentConfig.obj
 0001:0000c040       ??0?$_Bidit@U?$pair@$$CBV?$basic_string@_WU?$char_traits@_W@std@@V?$allocator@_W@2@@std@@V12@@std@@HPBU12@ABU12@@std@@QAE@XZ 0040d040 f i CommentConfig.obj
 0001:0000c060       ??0?$pair@$$CBV?$basic_string@_WU?$char_traits@_W@std@@V?$allocator@_W@2@@std@@V12@@std@@QAE@ABU01@@Z 0040d060 f i CommentConfig.obj
 0001:0000c0d0       ??0?$_Iterator_with_base@Ubidirectional_iterator_tag@std@@U?$pair@$$CBV?$basic_string@_WU?$char_traits@_W@std@@V?$allocator@_W@2@@std@@V12@@2@HPBU32@ABU32@V_Iterator_base@2@@std@@QAE@XZ 0040d0d0 f i CommentConfig.obj
 0001:0000c0f0       ??0?$_Container_base_aux_alloc_empty@V?$allocator@U?$pair@$$CBV?$basic_string@_WU?$char_traits@_W@std@@V?$allocator@_W@2@@std@@V12@@std@@@std@@@std@@IAE@V?$allocator@U?$pair@$$CBV?$basic_string@_WU?$char_traits@_W@std@@V?$allocator@_W@2@@std@@V12@@std@@@1@@Z 0040d0f0 f i CommentConfig.obj
 0001:0000c110       ?_Inc@const_iterator@?$_Tree@V?$_Tmap_traits@V?$basic_string@_WU?$char_traits@_W@std@@V?$allocator@_W@2@@std@@V12@U?$less@V?$basic_string@_WU?$char_traits@_W@std@@V?$allocator@_W@2@@std@@@2@V?$allocator@U?$pair@$$CBV?$basic_string@_WU?$char_traits@_W@std@@V?$allocator@_W@2@@std@@V12@@std@@@2@$0A@@std@@@std@@QAEXXZ 0040d110 f i CommentConfig.obj
 0001:0000c240       ??$_Ucopy@V?$_Vector_const_iterator@V?$basic_string@_WU?$char_traits@_W@std@@V?$allocator@_W@2@@std@@V?$allocator@V?$basic_string@_WU?$char_traits@_W@std@@V?$allocator@_W@2@@std@@@2@@std@@@?$vector@V?$basic_string@_WU?$char_traits@_W@std@@V?$allocator@_W@2@@std@@V?$allocator@V?$basic_string@_WU?$char_traits@_W@std@@V?$allocator@_W@2@@std@@@2@@std@@IAEPAV?$basic_string@_WU?$char_traits@_W@std@@V?$allocator@_W@2@@1@V?$_Vector_const_iterator@V?$basic_string@_WU?$char_traits@_W@std@@V?$allocator@_W@2@@std@@V?$allocator@V?$basic_string@_WU?$char_traits@_W@std@@V?$allocator@_W@2@@std@@@2@@1@0PAV21@@Z 0040d240 f i CommentConfig.obj
 0001:0000c2f0       ??$_Ucopy@V?$_Vector_const_iterator@U?$pair@V?$basic_string@_WU?$char_traits@_W@std@@V?$allocator@_W@2@@std@@V12@@std@@V?$allocator@U?$pair@V?$basic_string@_WU?$char_traits@_W@std@@V?$allocator@_W@2@@std@@V12@@std@@@2@@std@@@?$vector@U?$pair@V?$basic_string@_WU?$char_traits@_W@std@@V?$allocator@_W@2@@std@@V12@@std@@V?$allocator@U?$pair@V?$basic_string@_WU?$char_traits@_W@std@@V?$allocator@_W@2@@std@@V12@@std@@@2@@std@@IAEPAU?$pair@V?$basic_string@_WU?$char_traits@_W@std@@V?$allocator@_W@2@@std@@V12@@1@V?$_Vector_const_iterator@U?$pair@V?$basic_string@_WU?$char_traits@_W@std@@V?$allocator@_W@2@@std@@V12@@std@@V?$allocator@U?$pair@V?$basic_string@_WU?$char_traits@_W@std@@V?$allocator@_W@2@@std@@V12@@std@@@2@@1@0PAU21@@Z 0040d2f0 f i CommentConfig.obj
 0001:0000c3a0       ??$?0U?$pair@$$CBV?$basic_string@_WU?$char_traits@_W@std@@V?$allocator@_W@2@@std@@V12@@std@@@?$allocator@PAU_Node@?$_Tree_nod@V?$_Tmap_traits@V?$basic_string@_WU?$char_traits@_W@std@@V?$allocator@_W@2@@std@@V12@U?$less@V?$basic_string@_WU?$char_traits@_W@std@@V?$allocator@_W@2@@std@@@2@V?$allocator@U?$pair@$$CBV?$basic_string@_WU?$char_traits@_W@std@@V?$allocator@_W@2@@std@@V12@@std@@@2@$0A@@std@@@std@@@std@@QAE@ABV?$allocator@U?$pair@$$CBV?$basic_string@_WU?$char_traits@_W@std@@V?$allocator@_W@2@@std@@V12@@std@@@1@@Z 0040d3a0 f i CommentConfig.obj
 0001:0000c3b0       ??$_Destroy@PAU_Node@?$_Tree_nod@V?$_Tmap_traits@V?$basic_string@_WU?$char_traits@_W@std@@V?$allocator@_W@2@@std@@V12@U?$less@V?$basic_string@_WU?$char_traits@_W@std@@V?$allocator@_W@2@@std@@@2@V?$allocator@U?$pair@$$CBV?$basic_string@_WU?$char_traits@_W@std@@V?$allocator@_W@2@@std@@V12@@std@@@2@$0A@@std@@@std@@@std@@YAXPAPAU_Node@?$_Tree_nod@V?$_Tmap_traits@V?$basic_string@_WU?$char_traits@_W@std@@V?$allocator@_W@2@@std@@V12@U?$less@V?$basic_string@_WU?$char_traits@_W@std@@V?$allocator@_W@2@@std@@@2@V?$allocator@U?$pair@$$CBV?$basic_string@_WU?$char_traits@_W@std@@V?$allocator@_W@2@@std@@V12@@std@@@2@$0A@@std@@@0@@Z 0040d3b0 f i CommentConfig.obj
 0001:0000c3c0       ??$_Destroy_range@V?$allocator@U?$pair@V?$basic_string@_WU?$char_traits@_W@std@@V?$allocator@_W@2@@std@@V12@@std@@@std@@@std@@YAXPAU?$pair@V?$basic_string@_WU?$char_traits@_W@std@@V?$allocator@_W@2@@std@@V12@@0@0AAV?$allocator@U?$pair@V?$basic_string@_WU?$char_traits@_W@std@@V?$allocator@_W@2@@std@@V12@@std@@@0@@Z 0040d3c0 f i CommentConfig.obj
 0001:0000c400       ??$_Allocate@U?$pair@V?$basic_string@_WU?$char_traits@_W@std@@V?$allocator@_W@2@@std@@V12@@std@@@std@@YAPAU?$pair@V?$basic_string@_WU?$char_traits@_W@std@@V?$allocator@_W@2@@std@@V12@@0@IPAU10@@Z 0040d400 f i CommentConfig.obj
 0001:0000c450       ??$?0U?$pair@$$CBV?$basic_string@_WU?$char_traits@_W@std@@V?$allocator@_W@2@@std@@V12@@std@@@?$allocator@U_Node@?$_Tree_nod@V?$_Tmap_traits@V?$basic_string@_WU?$char_traits@_W@std@@V?$allocator@_W@2@@std@@V12@U?$less@V?$basic_string@_WU?$char_traits@_W@std@@V?$allocator@_W@2@@std@@@2@V?$allocator@U?$pair@$$CBV?$basic_string@_WU?$char_traits@_W@std@@V?$allocator@_W@2@@std@@V12@@std@@@2@$0A@@std@@@std@@@std@@QAE@ABV?$allocator@U?$pair@$$CBV?$basic_string@_WU?$char_traits@_W@std@@V?$allocator@_W@2@@std@@V12@@std@@@1@@Z 0040d450 f i CommentConfig.obj
 0001:0000c460       ??$_Allocate@U_Node@?$_Tree_nod@V?$_Tmap_traits@V?$basic_string@_WU?$char_traits@_W@std@@V?$allocator@_W@2@@std@@V12@U?$less@V?$basic_string@_WU?$char_traits@_W@std@@V?$allocator@_W@2@@std@@@2@V?$allocator@U?$pair@$$CBV?$basic_string@_WU?$char_traits@_W@std@@V?$allocator@_W@2@@std@@V12@@std@@@2@$0A@@std@@@std@@@std@@YAPAU_Node@?$_Tree_nod@V?$_Tmap_traits@V?$basic_string@_WU?$char_traits@_W@std@@V?$allocator@_W@2@@std@@V12@U?$less@V?$basic_string@_WU?$char_traits@_W@std@@V?$allocator@_W@2@@std@@@2@V?$allocator@U?$pair@$$CBV?$basic_string@_WU?$char_traits@_W@std@@V?$allocator@_W@2@@std@@V12@@std@@@2@$0A@@std@@@0@IPAU120@@Z 0040d460 f i CommentConfig.obj
 0001:0000c4b0       ??$_Construct@PAU_Node@?$_Tree_nod@V?$_Tmap_traits@V?$basic_string@_WU?$char_traits@_W@std@@V?$allocator@_W@2@@std@@V12@U?$less@V?$basic_string@_WU?$char_traits@_W@std@@V?$allocator@_W@2@@std@@@2@V?$allocator@U?$pair@$$CBV?$basic_string@_WU?$char_traits@_W@std@@V?$allocator@_W@2@@std@@V12@@std@@@2@$0A@@std@@@std@@PAU123@@std@@YAXPAPAU_Node@?$_Tree_nod@V?$_Tmap_traits@V?$basic_string@_WU?$char_traits@_W@std@@V?$allocator@_W@2@@std@@V12@U?$less@V?$basic_string@_WU?$char_traits@_W@std@@V?$allocator@_W@2@@std@@@2@V?$allocator@U?$pair@$$CBV?$basic_string@_WU?$char_traits@_W@std@@V?$allocator@_W@2@@std@@V12@@std@@@2@$0A@@std@@@0@ABQAU120@@Z 0040d4b0 f i CommentConfig.obj
 0001:0000c4f0       ??$_Destroy@U_Node@?$_Tree_nod@V?$_Tmap_traits@V?$basic_string@_WU?$char_traits@_W@std@@V?$allocator@_W@2@@std@@V12@U?$less@V?$basic_string@_WU?$char_traits@_W@std@@V?$allocator@_W@2@@std@@@2@V?$allocator@U?$pair@$$CBV?$basic_string@_WU?$char_traits@_W@std@@V?$allocator@_W@2@@std@@V12@@std@@@2@$0A@@std@@@std@@@std@@YAXPAU_Node@?$_Tree_nod@V?$_Tmap_traits@V?$basic_string@_WU?$char_traits@_W@std@@V?$allocator@_W@2@@std@@V12@U?$less@V?$basic_string@_WU?$char_traits@_W@std@@V?$allocator@_W@2@@std@@@2@V?$allocator@U?$pair@$$CBV?$basic_string@_WU?$char_traits@_W@std@@V?$allocator@_W@2@@std@@V12@@std@@@2@$0A@@std@@@0@@Z 0040d4f0 f i CommentConfig.obj
 0001:0000c500       ??0?$_Vector_const_iterator@V?$basic_string@_WU?$char_traits@_W@std@@V?$allocator@_W@2@@std@@V?$allocator@V?$basic_string@_WU?$char_traits@_W@std@@V?$allocator@_W@2@@std@@@2@@std@@QAE@ABV01@@Z 0040d500 f i CommentConfig.obj
 0001:0000c530       ??0?$_Vector_const_iterator@U?$pair@V?$basic_string@_WU?$char_traits@_W@std@@V?$allocator@_W@2@@std@@V12@@std@@V?$allocator@U?$pair@V?$basic_string@_WU?$char_traits@_W@std@@V?$allocator@_W@2@@std@@V12@@std@@@2@@std@@QAE@ABV01@@Z 0040d530 f i CommentConfig.obj
 0001:0000c560       ??_G_Node@?$_Tree_nod@V?$_Tmap_traits@V?$basic_string@_WU?$char_traits@_W@std@@V?$allocator@_W@2@@std@@V12@U?$less@V?$basic_string@_WU?$char_traits@_W@std@@V?$allocator@_W@2@@std@@@2@V?$allocator@U?$pair@$$CBV?$basic_string@_WU?$char_traits@_W@std@@V?$allocator@_W@2@@std@@V12@@std@@@2@$0A@@std@@@std@@QAEPAXI@Z 0040d560 f i CommentConfig.obj
 0001:0000c590       ??0?$_Ranit@V?$basic_string@_WU?$char_traits@_W@std@@V?$allocator@_W@2@@std@@HPBV12@ABV12@@std@@QAE@ABU01@@Z 0040d590 f i CommentConfig.obj
 0001:0000c5b0       ??0?$_Ranit@U?$pair@V?$basic_string@_WU?$char_traits@_W@std@@V?$allocator@_W@2@@std@@V12@@std@@HPBU12@ABU12@@std@@QAE@ABU01@@Z 0040d5b0 f i CommentConfig.obj
 0001:0000c5d0       ??1_Node@?$_Tree_nod@V?$_Tmap_traits@V?$basic_string@_WU?$char_traits@_W@std@@V?$allocator@_W@2@@std@@V12@U?$less@V?$basic_string@_WU?$char_traits@_W@std@@V?$allocator@_W@2@@std@@@2@V?$allocator@U?$pair@$$CBV?$basic_string@_WU?$char_traits@_W@std@@V?$allocator@_W@2@@std@@V12@@std@@@2@$0A@@std@@@std@@QAE@XZ 0040d5d0 f i CommentConfig.obj
 0001:0000c5f0       ??1?$pair@$$CBV?$basic_string@_WU?$char_traits@_W@std@@V?$allocator@_W@2@@std@@V12@@std@@QAE@XZ 0040d5f0 f i CommentConfig.obj
 0001:0000c650       ??0?$_Iterator_with_base@Urandom_access_iterator_tag@std@@V?$basic_string@_WU?$char_traits@_W@std@@V?$allocator@_W@2@@2@HPBV32@ABV32@V_Iterator_base@2@@std@@QAE@ABU01@@Z 0040d650 f i CommentConfig.obj
 0001:0000c670       ??0?$_Iterator_with_base@Urandom_access_iterator_tag@std@@U?$pair@V?$basic_string@_WU?$char_traits@_W@std@@V?$allocator@_W@2@@std@@V12@@2@HPBU32@ABU32@V_Iterator_base@2@@std@@QAE@ABU01@@Z 0040d670 f i CommentConfig.obj
 0001:0000c690       ??$unchecked_uninitialized_copy@V?$_Vector_const_iterator@V?$basic_string@_WU?$char_traits@_W@std@@V?$allocator@_W@2@@std@@V?$allocator@V?$basic_string@_WU?$char_traits@_W@std@@V?$allocator@_W@2@@std@@@2@@std@@PAV?$basic_string@_WU?$char_traits@_W@std@@V?$allocator@_W@2@@2@V?$allocator@V?$basic_string@_WU?$char_traits@_W@std@@V?$allocator@_W@2@@std@@@2@@stdext@@YAPAV?$basic_string@_WU?$char_traits@_W@std@@V?$allocator@_W@2@@std@@V?$_Vector_const_iterator@V?$basic_string@_WU?$char_traits@_W@std@@V?$allocator@_W@2@@std@@V?$allocator@V?$basic_string@_WU?$char_traits@_W@std@@V?$allocator@_W@2@@std@@@2@@2@0PAV12@AAV?$allocator@V?$basic_string@_WU?$char_traits@_W@std@@V?$allocator@_W@2@@std@@@2@@Z 0040d690 f i CommentConfig.obj
 0001:0000c770       ??$unchecked_uninitialized_copy@V?$_Vector_const_iterator@U?$pair@V?$basic_string@_WU?$char_traits@_W@std@@V?$allocator@_W@2@@std@@V12@@std@@V?$allocator@U?$pair@V?$basic_string@_WU?$char_traits@_W@std@@V?$allocator@_W@2@@std@@V12@@std@@@2@@std@@PAU?$pair@V?$basic_string@_WU?$char_traits@_W@std@@V?$allocator@_W@2@@std@@V12@@2@V?$allocator@U?$pair@V?$basic_string@_WU?$char_traits@_W@std@@V?$allocator@_W@2@@std@@V12@@std@@@2@@stdext@@YAPAU?$pair@V?$basic_string@_WU?$char_traits@_W@std@@V?$allocator@_W@2@@std@@V12@@std@@V?$_Vector_const_iterator@U?$pair@V?$basic_string@_WU?$char_traits@_W@std@@V?$allocator@_W@2@@std@@V12@@std@@V?$allocator@U?$pair@V?$basic_string@_WU?$char_traits@_W@std@@V?$allocator@_W@2@@std@@V12@@std@@@2@@2@0PAU12@AAV?$allocator@U?$pair@V?$basic_string@_WU?$char_traits@_W@std@@V?$allocator@_W@2@@std@@V12@@std@@@2@@Z 0040d770 f i CommentConfig.obj
 0001:0000c850       ??$_Ptr_cat@PAU?$pair@V?$basic_string@_WU?$char_traits@_W@std@@V?$allocator@_W@2@@std@@V12@@std@@PAU12@@std@@YA?AU_Nonscalar_ptr_iterator_tag@0@AAPAU?$pair@V?$basic_string@_WU?$char_traits@_W@std@@V?$allocator@_W@2@@std@@V12@@0@0@Z 0040d850 f i CommentConfig.obj
 0001:0000c860       ??$_Destroy_range@V?$allocator@U?$pair@V?$basic_string@_WU?$char_traits@_W@std@@V?$allocator@_W@2@@std@@V12@@std@@@std@@@std@@YAXPAU?$pair@V?$basic_string@_WU?$char_traits@_W@std@@V?$allocator@_W@2@@std@@V12@@0@0AAV?$allocator@U?$pair@V?$basic_string@_WU?$char_traits@_W@std@@V?$allocator@_W@2@@std@@V12@@std@@@0@U_Nonscalar_ptr_iterator_tag@0@@Z 0040d860 f i CommentConfig.obj
 0001:0000c890       ?destroy@?$allocator@U?$pair@V?$basic_string@_WU?$char_traits@_W@std@@V?$allocator@_W@2@@std@@V12@@std@@@std@@QAEXPAU?$pair@V?$basic_string@_WU?$char_traits@_W@std@@V?$allocator@_W@2@@std@@V12@@2@@Z 0040d890 f i CommentConfig.obj
 0001:0000c8b0       ??$_Checked_base@V?$_Vector_const_iterator@V?$basic_string@_WU?$char_traits@_W@std@@V?$allocator@_W@2@@std@@V?$allocator@V?$basic_string@_WU?$char_traits@_W@std@@V?$allocator@_W@2@@std@@@2@@std@@@std@@YA?AV?$_Vector_const_iterator@V?$basic_string@_WU?$char_traits@_W@std@@V?$allocator@_W@2@@std@@V?$allocator@V?$basic_string@_WU?$char_traits@_W@std@@V?$allocator@_W@2@@std@@@2@@0@AAV10@@Z 0040d8b0 f i CommentConfig.obj
 0001:0000c8f0       ??$_Ptr_cat@V?$_Vector_const_iterator@V?$basic_string@_WU?$char_traits@_W@std@@V?$allocator@_W@2@@std@@V?$allocator@V?$basic_string@_WU?$char_traits@_W@std@@V?$allocator@_W@2@@std@@@2@@std@@PAV?$basic_string@_WU?$char_traits@_W@std@@V?$allocator@_W@2@@2@@std@@YA?AU_Nonscalar_ptr_iterator_tag@0@AAV?$_Vector_const_iterator@V?$basic_string@_WU?$char_traits@_W@std@@V?$allocator@_W@2@@std@@V?$allocator@V?$basic_string@_WU?$char_traits@_W@std@@V?$allocator@_W@2@@std@@@2@@0@AAPAV?$basic_string@_WU?$char_traits@_W@std@@V?$allocator@_W@2@@0@@Z 0040d8f0 f i CommentConfig.obj
 0001:0000c900       ??$_Uninit_copy@V?$_Vector_const_iterator@V?$basic_string@_WU?$char_traits@_W@std@@V?$allocator@_W@2@@std@@V?$allocator@V?$basic_string@_WU?$char_traits@_W@std@@V?$allocator@_W@2@@std@@@2@@std@@PAV?$basic_string@_WU?$char_traits@_W@std@@V?$allocator@_W@2@@2@V?$allocator@V?$basic_string@_WU?$char_traits@_W@std@@V?$allocator@_W@2@@std@@@2@@std@@YAPAV?$basic_string@_WU?$char_traits@_W@std@@V?$allocator@_W@2@@0@V?$_Vector_const_iterator@V?$basic_string@_WU?$char_traits@_W@std@@V?$allocator@_W@2@@std@@V?$allocator@V?$basic_string@_WU?$char_traits@_W@std@@V?$allocator@_W@2@@std@@@2@@0@0PAV10@AAV?$allocator@V?$basic_string@_WU?$char_traits@_W@std@@V?$allocator@_W@2@@std@@@0@U_Nonscalar_ptr_iterator_tag@0@U_Range_checked_iterator_tag@0@@Z 0040d900 f i CommentConfig.obj
 0001:0000ca60       ??$_Checked_base@V?$_Vector_const_iterator@U?$pair@V?$basic_string@_WU?$char_traits@_W@std@@V?$allocator@_W@2@@std@@V12@@std@@V?$allocator@U?$pair@V?$basic_string@_WU?$char_traits@_W@std@@V?$allocator@_W@2@@std@@V12@@std@@@2@@std@@@std@@YA?AV?$_Vector_const_iterator@U?$pair@V?$basic_string@_WU?$char_traits@_W@std@@V?$allocator@_W@2@@std@@V12@@std@@V?$allocator@U?$pair@V?$basic_string@_WU?$char_traits@_W@std@@V?$allocator@_W@2@@std@@V12@@std@@@2@@0@AAV10@@Z 0040da60 f i CommentConfig.obj
 0001:0000caa0       ??$_Ptr_cat@V?$_Vector_const_iterator@U?$pair@V?$basic_string@_WU?$char_traits@_W@std@@V?$allocator@_W@2@@std@@V12@@std@@V?$allocator@U?$pair@V?$basic_string@_WU?$char_traits@_W@std@@V?$allocator@_W@2@@std@@V12@@std@@@2@@std@@PAU?$pair@V?$basic_string@_WU?$char_traits@_W@std@@V?$allocator@_W@2@@std@@V12@@2@@std@@YA?AU_Nonscalar_ptr_iterator_tag@0@AAV?$_Vector_const_iterator@U?$pair@V?$basic_string@_WU?$char_traits@_W@std@@V?$allocator@_W@2@@std@@V12@@std@@V?$allocator@U?$pair@V?$basic_string@_WU?$char_traits@_W@std@@V?$allocator@_W@2@@std@@V12@@std@@@2@@0@AAPAU?$pair@V?$basic_string@_WU?$char_traits@_W@std@@V?$allocator@_W@2@@std@@V12@@0@@Z 0040daa0 f i CommentConfig.obj
 0001:0000cab0       ??$_Uninit_copy@V?$_Vector_const_iterator@U?$pair@V?$basic_string@_WU?$char_traits@_W@std@@V?$allocator@_W@2@@std@@V12@@std@@V?$allocator@U?$pair@V?$basic_string@_WU?$char_traits@_W@std@@V?$allocator@_W@2@@std@@V12@@std@@@2@@std@@PAU?$pair@V?$basic_string@_WU?$char_traits@_W@std@@V?$allocator@_W@2@@std@@V12@@2@V?$allocator@U?$pair@V?$basic_string@_WU?$char_traits@_W@std@@V?$allocator@_W@2@@std@@V12@@std@@@2@@std@@YAPAU?$pair@V?$basic_string@_WU?$char_traits@_W@std@@V?$allocator@_W@2@@std@@V12@@0@V?$_Vector_const_iterator@U?$pair@V?$basic_string@_WU?$char_traits@_W@std@@V?$allocator@_W@2@@std@@V12@@std@@V?$allocator@U?$pair@V?$basic_string@_WU?$char_traits@_W@std@@V?$allocator@_W@2@@std@@V12@@std@@@2@@0@0PAU10@AAV?$allocator@U?$pair@V?$basic_string@_WU?$char_traits@_W@std@@V?$allocator@_W@2@@std@@V12@@std@@@0@U_Nonscalar_ptr_iterator_tag@0@U_Range_checked_iterator_tag@0@@Z 0040dab0 f i CommentConfig.obj
 0001:0000cc10       ??$_Destroy@U?$pair@V?$basic_string@_WU?$char_traits@_W@std@@V?$allocator@_W@2@@std@@V12@@std@@@std@@YAXPAU?$pair@V?$basic_string@_WU?$char_traits@_W@std@@V?$allocator@_W@2@@std@@V12@@0@@Z 0040dc10 f i CommentConfig.obj
 0001:0000cc20       ??_G?$pair@V?$basic_string@_WU?$char_traits@_W@std@@V?$allocator@_W@2@@std@@V12@@std@@QAEPAXI@Z 0040dc20 f i CommentConfig.obj
 0001:0000cc50       ??1?$pair@V?$basic_string@_WU?$char_traits@_W@std@@V?$allocator@_W@2@@std@@V12@@std@@QAE@XZ 0040dc50 f i CommentConfig.obj
 0001:0000ccb0       ?construct@?$allocator@V?$basic_string@_WU?$char_traits@_W@std@@V?$allocator@_W@2@@std@@@std@@QAEXPAV?$basic_string@_WU?$char_traits@_W@std@@V?$allocator@_W@2@@2@ABV32@@Z 0040dcb0 f i CommentConfig.obj
 0001:0000ccd0       ?construct@?$allocator@U?$pair@V?$basic_string@_WU?$char_traits@_W@std@@V?$allocator@_W@2@@std@@V12@@std@@@std@@QAEXPAU?$pair@V?$basic_string@_WU?$char_traits@_W@std@@V?$allocator@_W@2@@std@@V12@@2@ABU32@@Z 0040dcd0 f i CommentConfig.obj
 0001:0000ccf0       ??D?$_Vector_const_iterator@V?$basic_string@_WU?$char_traits@_W@std@@V?$allocator@_W@2@@std@@V?$allocator@V?$basic_string@_WU?$char_traits@_W@std@@V?$allocator@_W@2@@std@@@2@@std@@QBEABV?$basic_string@_WU?$char_traits@_W@std@@V?$allocator@_W@2@@1@XZ 0040dcf0 f i CommentConfig.obj
 0001:0000cd80       ??E?$_Vector_const_iterator@V?$basic_string@_WU?$char_traits@_W@std@@V?$allocator@_W@2@@std@@V?$allocator@V?$basic_string@_WU?$char_traits@_W@std@@V?$allocator@_W@2@@std@@@2@@std@@QAEAAV01@XZ 0040dd80 f i CommentConfig.obj
 0001:0000ce80       ?_Getmycont@_Iterator_base@std@@QBEPBV_Container_base_secure@2@XZ 0040de80 f i CommentConfig.obj
 0001:0000ce90       ?_Has_container@_Iterator_base@std@@QBE_NXZ 0040de90 f i CommentConfig.obj
 0001:0000ceb0       ??9?$_Vector_const_iterator@V?$basic_string@_WU?$char_traits@_W@std@@V?$allocator@_W@2@@std@@V?$allocator@V?$basic_string@_WU?$char_traits@_W@std@@V?$allocator@_W@2@@std@@@2@@std@@QBE_NABV01@@Z 0040deb0 f i CommentConfig.obj
 0001:0000cee0       ??D?$_Vector_const_iterator@U?$pair@V?$basic_string@_WU?$char_traits@_W@std@@V?$allocator@_W@2@@std@@V12@@std@@V?$allocator@U?$pair@V?$basic_string@_WU?$char_traits@_W@std@@V?$allocator@_W@2@@std@@V12@@std@@@2@@std@@QBEABU?$pair@V?$basic_string@_WU?$char_traits@_W@std@@V?$allocator@_W@2@@std@@V12@@1@XZ 0040dee0 f i CommentConfig.obj
 0001:0000cf70       ??E?$_Vector_const_iterator@U?$pair@V?$basic_string@_WU?$char_traits@_W@std@@V?$allocator@_W@2@@std@@V12@@std@@V?$allocator@U?$pair@V?$basic_string@_WU?$char_traits@_W@std@@V?$allocator@_W@2@@std@@V12@@std@@@2@@std@@QAEAAV01@XZ 0040df70 f i CommentConfig.obj
 0001:0000d070       ??9?$_Vector_const_iterator@U?$pair@V?$basic_string@_WU?$char_traits@_W@std@@V?$allocator@_W@2@@std@@V12@@std@@V?$allocator@U?$pair@V?$basic_string@_WU?$char_traits@_W@std@@V?$allocator@_W@2@@std@@V12@@std@@@2@@std@@QBE_NABV01@@Z 0040e070 f i CommentConfig.obj
 0001:0000d0a0       ??8?$_Vector_const_iterator@V?$basic_string@_WU?$char_traits@_W@std@@V?$allocator@_W@2@@std@@V?$allocator@V?$basic_string@_WU?$char_traits@_W@std@@V?$allocator@_W@2@@std@@@2@@std@@QBE_NABV01@@Z 0040e0a0 f i CommentConfig.obj
 0001:0000d0d0       ??8?$_Vector_const_iterator@U?$pair@V?$basic_string@_WU?$char_traits@_W@std@@V?$allocator@_W@2@@std@@V12@@std@@V?$allocator@U?$pair@V?$basic_string@_WU?$char_traits@_W@std@@V?$allocator@_W@2@@std@@V12@@std@@@2@@std@@QBE_NABV01@@Z 0040e0d0 f i CommentConfig.obj
 0001:0000d100       ?_Compat@?$_Vector_const_iterator@V?$basic_string@_WU?$char_traits@_W@std@@V?$allocator@_W@2@@std@@V?$allocator@V?$basic_string@_WU?$char_traits@_W@std@@V?$allocator@_W@2@@std@@@2@@std@@QBEXABV12@@Z 0040e100 f i CommentConfig.obj
 0001:0000d180       ?_Compat@?$_Vector_const_iterator@U?$pair@V?$basic_string@_WU?$char_traits@_W@std@@V?$allocator@_W@2@@std@@V12@@std@@V?$allocator@U?$pair@V?$basic_string@_WU?$char_traits@_W@std@@V?$allocator@_W@2@@std@@V12@@std@@@2@@std@@QBEXABV12@@Z 0040e180 f i CommentConfig.obj
 0001:0000d200       ??$_Checked_base@V?$_Vector_const_iterator@V?$basic_string@_WU?$char_traits@_W@std@@V?$allocator@_W@2@@std@@V?$allocator@V?$basic_string@_WU?$char_traits@_W@std@@V?$allocator@_W@2@@std@@@2@@std@@@std@@YA?AV?$_Vector_const_iterator@V?$basic_string@_WU?$char_traits@_W@std@@V?$allocator@_W@2@@std@@V?$allocator@V?$basic_string@_WU?$char_traits@_W@std@@V?$allocator@_W@2@@std@@@2@@0@AAV10@U_Unchanged_checked_iterator_base_type_tag@0@@Z 0040e200 f i CommentConfig.obj
 0001:0000d230       ??$_Debug_range@V?$_Vector_const_iterator@V?$basic_string@_WU?$char_traits@_W@std@@V?$allocator@_W@2@@std@@V?$allocator@V?$basic_string@_WU?$char_traits@_W@std@@V?$allocator@_W@2@@std@@@2@@std@@@std@@YAXV?$_Vector_const_iterator@V?$basic_string@_WU?$char_traits@_W@std@@V?$allocator@_W@2@@std@@V?$allocator@V?$basic_string@_WU?$char_traits@_W@std@@V?$allocator@_W@2@@std@@@2@@0@0PB_WI@Z 0040e230 f i CommentConfig.obj
 0001:0000d2e0       ??$_Debug_pointer@V?$basic_string@_WU?$char_traits@_W@std@@V?$allocator@_W@2@@std@@@std@@YAXPAV?$basic_string@_WU?$char_traits@_W@std@@V?$allocator@_W@2@@0@PB_WI@Z 0040e2e0 f i CommentConfig.obj
 0001:0000d310       ??$_Checked_base@V?$_Vector_const_iterator@U?$pair@V?$basic_string@_WU?$char_traits@_W@std@@V?$allocator@_W@2@@std@@V12@@std@@V?$allocator@U?$pair@V?$basic_string@_WU?$char_traits@_W@std@@V?$allocator@_W@2@@std@@V12@@std@@@2@@std@@@std@@YA?AV?$_Vector_const_iterator@U?$pair@V?$basic_string@_WU?$char_traits@_W@std@@V?$allocator@_W@2@@std@@V12@@std@@V?$allocator@U?$pair@V?$basic_string@_WU?$char_traits@_W@std@@V?$allocator@_W@2@@std@@V12@@std@@@2@@0@AAV10@U_Unchanged_checked_iterator_base_type_tag@0@@Z 0040e310 f i CommentConfig.obj
 0001:0000d340       ??$_Debug_range@V?$_Vector_const_iterator@U?$pair@V?$basic_string@_WU?$char_traits@_W@std@@V?$allocator@_W@2@@std@@V12@@std@@V?$allocator@U?$pair@V?$basic_string@_WU?$char_traits@_W@std@@V?$allocator@_W@2@@std@@V12@@std@@@2@@std@@@std@@YAXV?$_Vector_const_iterator@U?$pair@V?$basic_string@_WU?$char_traits@_W@std@@V?$allocator@_W@2@@std@@V12@@std@@V?$allocator@U?$pair@V?$basic_string@_WU?$char_traits@_W@std@@V?$allocator@_W@2@@std@@V12@@std@@@2@@0@0PB_WI@Z 0040e340 f i CommentConfig.obj
 0001:0000d3f0       ??$_Debug_pointer@U?$pair@V?$basic_string@_WU?$char_traits@_W@std@@V?$allocator@_W@2@@std@@V12@@std@@@std@@YAXPAU?$pair@V?$basic_string@_WU?$char_traits@_W@std@@V?$allocator@_W@2@@std@@V12@@0@PB_WI@Z 0040e3f0 f i CommentConfig.obj
 0001:0000d420       ??$_Construct@V?$basic_string@_WU?$char_traits@_W@std@@V?$allocator@_W@2@@std@@V12@@std@@YAXPAV?$basic_string@_WU?$char_traits@_W@std@@V?$allocator@_W@2@@0@ABV10@@Z 0040e420 f i CommentConfig.obj
 0001:0000d4a0       ??$_Construct@U?$pair@V?$basic_string@_WU?$char_traits@_W@std@@V?$allocator@_W@2@@std@@V12@@std@@U12@@std@@YAXPAU?$pair@V?$basic_string@_WU?$char_traits@_W@std@@V?$allocator@_W@2@@std@@V12@@0@ABU10@@Z 0040e4a0 f i CommentConfig.obj
 0001:0000d520       ??0?$pair@V?$basic_string@_WU?$char_traits@_W@std@@V?$allocator@_W@2@@std@@V12@@std@@QAE@ABU01@@Z 0040e520 f i CommentConfig.obj
 0001:0000d590       ??$_Iter_cat@V?$_Vector_const_iterator@V?$basic_string@_WU?$char_traits@_W@std@@V?$allocator@_W@2@@std@@V?$allocator@V?$basic_string@_WU?$char_traits@_W@std@@V?$allocator@_W@2@@std@@@2@@std@@@std@@YA?AUrandom_access_iterator_tag@0@ABV?$_Vector_const_iterator@V?$basic_string@_WU?$char_traits@_W@std@@V?$allocator@_W@2@@std@@V?$allocator@V?$basic_string@_WU?$char_traits@_W@std@@V?$allocator@_W@2@@std@@@2@@0@@Z 0040e590 f i CommentConfig.obj
 0001:0000d5a0       ??$_Debug_range2@V?$_Vector_const_iterator@V?$basic_string@_WU?$char_traits@_W@std@@V?$allocator@_W@2@@std@@V?$allocator@V?$basic_string@_WU?$char_traits@_W@std@@V?$allocator@_W@2@@std@@@2@@std@@@std@@YAXV?$_Vector_const_iterator@V?$basic_string@_WU?$char_traits@_W@std@@V?$allocator@_W@2@@std@@V?$allocator@V?$basic_string@_WU?$char_traits@_W@std@@V?$allocator@_W@2@@std@@@2@@0@0PB_WIUrandom_access_iterator_tag@0@@Z 0040e5a0 f i CommentConfig.obj
 0001:0000d660       ??$_Iter_cat@V?$_Vector_const_iterator@U?$pair@V?$basic_string@_WU?$char_traits@_W@std@@V?$allocator@_W@2@@std@@V12@@std@@V?$allocator@U?$pair@V?$basic_string@_WU?$char_traits@_W@std@@V?$allocator@_W@2@@std@@V12@@std@@@2@@std@@@std@@YA?AUrandom_access_iterator_tag@0@ABV?$_Vector_const_iterator@U?$pair@V?$basic_string@_WU?$char_traits@_W@std@@V?$allocator@_W@2@@std@@V12@@std@@V?$allocator@U?$pair@V?$basic_string@_WU?$char_traits@_W@std@@V?$allocator@_W@2@@std@@V12@@std@@@2@@0@@Z 0040e660 f i CommentConfig.obj
 0001:0000d670       ??$_Debug_range2@V?$_Vector_const_iterator@U?$pair@V?$basic_string@_WU?$char_traits@_W@std@@V?$allocator@_W@2@@std@@V12@@std@@V?$allocator@U?$pair@V?$basic_string@_WU?$char_traits@_W@std@@V?$allocator@_W@2@@std@@V12@@std@@@2@@std@@@std@@YAXV?$_Vector_const_iterator@U?$pair@V?$basic_string@_WU?$char_traits@_W@std@@V?$allocator@_W@2@@std@@V12@@std@@V?$allocator@U?$pair@V?$basic_string@_WU?$char_traits@_W@std@@V?$allocator@_W@2@@std@@V12@@std@@@2@@0@0PB_WIUrandom_access_iterator_tag@0@@Z 0040e670 f i CommentConfig.obj
 0001:0000d730       ??M?$_Vector_const_iterator@V?$basic_string@_WU?$char_traits@_W@std@@V?$allocator@_W@2@@std@@V?$allocator@V?$basic_string@_WU?$char_traits@_W@std@@V?$allocator@_W@2@@std@@@2@@std@@QBE_NABV01@@Z 0040e730 f i CommentConfig.obj
 0001:0000d760       ??M?$_Vector_const_iterator@U?$pair@V?$basic_string@_WU?$char_traits@_W@std@@V?$allocator@_W@2@@std@@V12@@std@@V?$allocator@U?$pair@V?$basic_string@_WU?$char_traits@_W@std@@V?$allocator@_W@2@@std@@V12@@std@@@2@@std@@QBE_NABV01@@Z 0040e760 f i CommentConfig.obj
 0001:0000d790       ??$_Debug_pointer@V?$_Vector_const_iterator@V?$basic_string@_WU?$char_traits@_W@std@@V?$allocator@_W@2@@std@@V?$allocator@V?$basic_string@_WU?$char_traits@_W@std@@V?$allocator@_W@2@@std@@@2@@std@@@std@@YAXAAV?$_Vector_const_iterator@V?$basic_string@_WU?$char_traits@_W@std@@V?$allocator@_W@2@@std@@V?$allocator@V?$basic_string@_WU?$char_traits@_W@std@@V?$allocator@_W@2@@std@@@2@@0@PB_WI@Z 0040e790 f i CommentConfig.obj
 0001:0000d7a0       ??$_Debug_pointer@V?$_Vector_const_iterator@U?$pair@V?$basic_string@_WU?$char_traits@_W@std@@V?$allocator@_W@2@@std@@V12@@std@@V?$allocator@U?$pair@V?$basic_string@_WU?$char_traits@_W@std@@V?$allocator@_W@2@@std@@V12@@std@@@2@@std@@@std@@YAXAAV?$_Vector_const_iterator@U?$pair@V?$basic_string@_WU?$char_traits@_W@std@@V?$allocator@_W@2@@std@@V12@@std@@V?$allocator@U?$pair@V?$basic_string@_WU?$char_traits@_W@std@@V?$allocator@_W@2@@std@@V12@@std@@@2@@0@PB_WI@Z 0040e7a0 f i CommentConfig.obj
 0001:0000d7b0       ??0CConfig@@QAE@PB_W_N@Z   0040e7b0 f   Config.obj
 0001:0000d8e0       ??0CConfig@@QAE@PB_W0H_N@Z 0040e8e0 f   Config.obj
 0001:0000d9d0       ??1CConfig@@QAE@XZ         0040e9d0 f   Config.obj
 0001:0000da30       ?Read@CConfig@@QAE?AV?$basic_string@_WU?$char_traits@_W@std@@V?$allocator@_W@2@@std@@PB_W000K@Z 0040ea30 f   Config.obj
 0001:0000dbd0       ?Write@CConfig@@QAEHPB_W00@Z 0040ebd0 f   Config.obj
 0001:0000dc70       ?ReadInt@CConfig@@QAEIPB_W0I@Z 0040ec70 f   Config.obj
 0001:0000dd10       ?WriteInt@CConfig@@QAEHPB_W0II@Z 0040ed10 f   Config.obj
 0001:0000de10       ?ReadIntArray@CConfig@@QAE?AV?$vector@HV?$allocator@H@std@@@std@@PB_W0@Z 0040ee10 f   Config.obj
 0001:0000ded0       ?WriteIntArray@CConfig@@QAEHPB_W0AAV?$vector@HV?$allocator@H@std@@@std@@@Z 0040eed0 f   Config.obj
 0001:0000df80       ??0CConfigSecretary4@@QAE@PB_W_N@Z 0040ef80 f   ConfigSecretary4.obj
 0001:0000dfb0       ??1CConfigSecretary4@@QAE@XZ 0040efb0 f   ConfigSecretary4.obj
 0001:0000dfd0       ?IsBlackMarshSelectedFromCfg@CConfigSecretary4@@QAEHXZ 0040efd0 f   ConfigSecretary4.obj
 0001:0000e000       ?SetIsBlackMarshSelectedToCfg@CConfigSecretary4@@QAEHH@Z 0040f000 f   ConfigSecretary4.obj
 0001:0000e030       ?GetBlackMarshAttrFromCfg@CConfigSecretary4@@QAEHXZ 0040f030 f   ConfigSecretary4.obj
 0001:0000e060       ?SetBlackMarshAttrToCfg@CConfigSecretary4@@QAEHH@Z 0040f060 f   ConfigSecretary4.obj
 0001:0000e090       ?GetBlackMarshChallengeTimesFromCfg@CConfigSecretary4@@QAEHXZ 0040f090 f   ConfigSecretary4.obj
 0001:0000e0c0       ?SetBlackMarshChallengeTimesToCfg@CConfigSecretary4@@QAEHH@Z 0040f0c0 f   ConfigSecretary4.obj
 0001:0000e0f0       ?GetBlackMarshHourFromCfg@CConfigSecretary4@@QAEHXZ 0040f0f0 f   ConfigSecretary4.obj
 0001:0000e120       ?SetBlackMarshHourToCfg@CConfigSecretary4@@QAEHH@Z 0040f120 f   ConfigSecretary4.obj
 0001:0000e150       ?GetBlackMarshMinuteFromCfg@CConfigSecretary4@@QAEHXZ 0040f150 f   ConfigSecretary4.obj
 0001:0000e180       ?SetBlackMarshMinuteToCfg@CConfigSecretary4@@QAEHH@Z 0040f180 f   ConfigSecretary4.obj
 0001:0000e1b0       ?IsBlackMarshBuyTicketWhenNotEnoughFromCfg@CConfigSecretary4@@QAEHXZ 0040f1b0 f   ConfigSecretary4.obj
 0001:0000e1e0       ?SetIsBlackMarshBuyTicketWhenNotEnoughToCfg@CConfigSecretary4@@QAEHH@Z 0040f1e0 f   ConfigSecretary4.obj
 0001:0000e210       ?GetBlackMarshMonsterLevelFromCfg@CConfigSecretary4@@QAEHXZ 0040f210 f   ConfigSecretary4.obj
 0001:0000e240       ?SetBlackMarshMonsterLevelToCfg@CConfigSecretary4@@QAEHH@Z 0040f240 f   ConfigSecretary4.obj
 0001:0000e270       ?IsPetIslandSelectedFromCfg@CConfigSecretary4@@QAEHXZ 0040f270 f   ConfigSecretary4.obj
 0001:0000e2a0       ?SetIsPetIslandSelectedToCfg@CConfigSecretary4@@QAEHH@Z 0040f2a0 f   ConfigSecretary4.obj
 0001:0000e2d0       ?GetPetIslandChallengeCountFromCfg@CConfigSecretary4@@QAEHXZ 0040f2d0 f   ConfigSecretary4.obj
 0001:0000e300       ?SetPetIslandChallengeCountToCfg@CConfigSecretary4@@QAEHH@Z 0040f300 f   ConfigSecretary4.obj
 0001:0000e330       ?GetPetIslandCatchModeFromCfg@CConfigSecretary4@@QAEHXZ 0040f330 f   ConfigSecretary4.obj
 0001:0000e360       ?SetPetIslandCatchModeToCfg@CConfigSecretary4@@QAEHH@Z 0040f360 f   ConfigSecretary4.obj
 0001:0000e390       ?IsPetIslandBuyTicketWhenNotEnough@CConfigSecretary4@@QAEHXZ 0040f390 f   ConfigSecretary4.obj
 0001:0000e3c0       ?SetIsPetIslandBuyTicketWhenNotEnough@CConfigSecretary4@@QAEHH@Z 0040f3c0 f   ConfigSecretary4.obj
 0001:0000e3f0       ?IsFairLandSelectedFromCfg@CConfigSecretary4@@QAEHXZ 0040f3f0 f   ConfigSecretary4.obj
 0001:0000e420       ?SetIsFairLandSelectedToCfg@CConfigSecretary4@@QAEHH@Z 0040f420 f   ConfigSecretary4.obj
 0001:0000e450       ?GetFairLandChallengeCountFromCfg@CConfigSecretary4@@QAEHXZ 0040f450 f   ConfigSecretary4.obj
 0001:0000e480       ?SetFairLandChallengeCountToCfg@CConfigSecretary4@@QAEHH@Z 0040f480 f   ConfigSecretary4.obj
 0001:0000e4b0       ?IsFairLandBuyTicketWhenNotEnoughFromCfg@CConfigSecretary4@@QAEHXZ 0040f4b0 f   ConfigSecretary4.obj
 0001:0000e4e0       ?SetIsFairLandBuyTicketWhenNotEnoughToCfg@CConfigSecretary4@@QAEHH@Z 0040f4e0 f   ConfigSecretary4.obj
 0001:0000e510       ?IsAsuramBountyTaskSelectedFromCfg@CConfigSecretary4@@QAEHXZ 0040f510 f   ConfigSecretary4.obj
 0001:0000e540       ?SetIsAsuramBountyTaskSelectedToCfg@CConfigSecretary4@@QAEHH@Z 0040f540 f   ConfigSecretary4.obj
 0001:0000e570       ?IsAsuramItemDonateFromCfg@CConfigSecretary4@@QAEHXZ 0040f570 f   ConfigSecretary4.obj
 0001:0000e5a0       ?SetIsAsuramItemDonateToCfg@CConfigSecretary4@@QAEHH@Z 0040f5a0 f   ConfigSecretary4.obj
 0001:0000e5d0       ?IsAsuramShopNereusSelectedFromCfg@CConfigSecretary4@@QAEHXZ 0040f5d0 f   ConfigSecretary4.obj
 0001:0000e600       ?SetIsAsuramShopNereusSelectedToCfg@CConfigSecretary4@@QAEHH@Z 0040f600 f   ConfigSecretary4.obj
 0001:0000e630       ?IsAsuramShopGemStoneTicketSelectedFromCfg@CConfigSecretary4@@QAEHXZ 0040f630 f   ConfigSecretary4.obj
 0001:0000e660       ?SetisAsuramShopGemStoneTicketSelectedToCfg@CConfigSecretary4@@QAEHH@Z 0040f660 f   ConfigSecretary4.obj
 0001:0000e690       ?IsAsuramShopFairlandTicketSelectedFromCfg@CConfigSecretary4@@QAEHXZ 0040f690 f   ConfigSecretary4.obj
 0001:0000e6c0       ?SetIsAsuramShopFairlandTicketSelectedToCfg@CConfigSecretary4@@QAEHH@Z 0040f6c0 f   ConfigSecretary4.obj
 0001:0000e6f0       ?IsAsuramShopLostMapSelectedFromCfg@CConfigSecretary4@@QAEHXZ 0040f6f0 f   ConfigSecretary4.obj
 0001:0000e720       ?SetIsAsuramShhopLostMapSelectedToCfg@CConfigSecretary4@@QAEHH@Z 0040f720 f   ConfigSecretary4.obj
 0001:0000e750       ??0CConfigSecretary5@@QAE@PB_W_N@Z 0040f750 f   ConfigSecretary5.obj
 0001:0000e780       ??1CConfigSecretary5@@QAE@XZ 0040f780 f   ConfigSecretary5.obj
 0001:0000e7a0       ?IsAutoExchangeEquipSandToGloryFromCfg@CConfigSecretary5@@QAEHXZ 0040f7a0 f   ConfigSecretary5.obj
 0001:0000e7d0       ?SetIsAutoExchangeEquipSandToGloryToCfg@CConfigSecretary5@@QAEHH@Z 0040f7d0 f   ConfigSecretary5.obj
 0001:0000e800       ?GetExchangeEquipSandCountFromCfg@CConfigSecretary5@@QAEHXZ 0040f800 f   ConfigSecretary5.obj
 0001:0000e830       ?SetExchangeEquipSandCountToCfg@CConfigSecretary5@@QAEHH@Z 0040f830 f   ConfigSecretary5.obj
 0001:0000e860       ?IsSpaceCorridorSelectedFromCfg@CConfigSecretary5@@QAEHXZ 0040f860 f   ConfigSecretary5.obj
 0001:0000e890       ?SetIsSpaceCorridorSelectedToCfg@CConfigSecretary5@@QAEHH@Z 0040f890 f   ConfigSecretary5.obj
 0001:0000e8c0       ?GetSpaceCorridorBuyExtraTimesFromCfg@CConfigSecretary5@@QAEHXZ 0040f8c0 f   ConfigSecretary5.obj
 0001:0000e8f0       ?SetSpaceCorridorBuyExtraTimesToCfg@CConfigSecretary5@@QAEHH@Z 0040f8f0 f   ConfigSecretary5.obj
 0001:0000e920       ?IsDemonStrongHoldSelectedFromCfg@CConfigSecretary5@@QAEHXZ 0040f920 f   ConfigSecretary5.obj
 0001:0000e950       ?SetIsDemonStrongHoldSelectedToCfg@CConfigSecretary5@@QAEHH@Z 0040f950 f   ConfigSecretary5.obj
 0001:0000e980       ?IsDemonStrongHoldOneKeyGetTreasureFromCfg@CConfigSecretary5@@QAEHXZ 0040f980 f   ConfigSecretary5.obj
 0001:0000e9b0       ?SetIsDemonStrongHoldOneKeyGetTreasureToCfg@CConfigSecretary5@@QAEHH@Z 0040f9b0 f   ConfigSecretary5.obj
 0001:0000e9e0       ?IsAsuramLeagueBossSelectedFromCfg@CConfigSecretary5@@QAEHXZ 0040f9e0 f   ConfigSecretary5.obj
 0001:0000ea10       ?SetIsAsuramLeagueBossSelectedToCfg@CConfigSecretary5@@QAEHH@Z 0040fa10 f   ConfigSecretary5.obj
 0001:0000ea40       ?GetAsuramLeagueBossBuyExtraTimesFromCfg@CConfigSecretary5@@QAEHXZ 0040fa40 f   ConfigSecretary5.obj
 0001:0000ea70       ?SetAsuramLeagueBossBuyExtraTimesToCfg@CConfigSecretary5@@QAEHH@Z 0040fa70 f   ConfigSecretary5.obj
 0001:0000eaa0       ?IsAsuramLeagueBossAutoShareMonsterChallengeFromCfg@CConfigSecretary5@@QAEHXZ 0040faa0 f   ConfigSecretary5.obj
 0001:0000ead0       ?SetIsAsuramLeagueBossAutoShareMonsterChallengeToCfg@CConfigSecretary5@@QAEHH@Z 0040fad0 f   ConfigSecretary5.obj
 0001:0000eb00       ?IsAsuramLeagueBossAutoExchangeTreasureFromCfg@CConfigSecretary5@@QAEHXZ 0040fb00 f   ConfigSecretary5.obj
 0001:0000eb30       ?SetIsAsuramLeagueBossAutoExchangeTreasureToCfg@CConfigSecretary5@@QAEHH@Z 0040fb30 f   ConfigSecretary5.obj
 0001:0000eb60       ?IsAutoMeceneryDispathSelectedFromCfg@CConfigSecretary5@@QAEHXZ 0040fb60 f   ConfigSecretary5.obj
 0001:0000eb90       ?SetIsAutoMeceneryDispathSelectedToCfg@CConfigSecretary5@@QAEHH@Z 0040fb90 f   ConfigSecretary5.obj
 0001:0000ebc0       ?GetMeceneryDispathStarLevelFromCfg@CConfigSecretary5@@QAEHXZ 0040fbc0 f   ConfigSecretary5.obj
 0001:0000ebf0       ?SetMeceneryDispathStarLevelToCfg@CConfigSecretary5@@QAEHH@Z 0040fbf0 f   ConfigSecretary5.obj
 0001:0000ec20       ?IsMeceneryDispathContinueWhenNoUnitsFromCfg@CConfigSecretary5@@QAEHXZ 0040fc20 f   ConfigSecretary5.obj
 0001:0000ec50       ?SetIsMeceneryDispathContinueWhenNoUnitsToCfg@CConfigSecretary5@@QAEHH@Z 0040fc50 f   ConfigSecretary5.obj
 0001:0000ec80       ?IsMeceneryDispathAutoDoTaskFromCfg@CConfigSecretary5@@QAEHXZ 0040fc80 f   ConfigSecretary5.obj
 0001:0000ecb0       ?SetIsMeceneryDispathAutoDoTaskToCfg@CConfigSecretary5@@QAEHH@Z 0040fcb0 f   ConfigSecretary5.obj
 0001:0000ece0       ?IsMeceneryDispathAutoBuyHandCemeceryFromCfg@CConfigSecretary5@@QAEHXZ 0040fce0 f   ConfigSecretary5.obj
 0001:0000ed10       ?SetIsMeceneryDispathAutoBuyHandCemeceryToCfg@CConfigSecretary5@@QAEHH@Z 0040fd10 f   ConfigSecretary5.obj
 0001:0000ed40       ??0CConfigStruct@@QAE@XZ   0040fd40 f   ConfigStruct.obj
 0001:0000ed60       ??1CConfigStruct@@QAE@XZ   0040fd60 f   ConfigStruct.obj
 0001:0000ed80       ?GetStructByKeyName@CConfigStruct@@QAEPAU_KEY_VALUE_@@AAV?$basic_string@_WU?$char_traits@_W@std@@V?$allocator@_W@2@@std@@@Z 0040fd80 f   ConfigStruct.obj
 0001:0000ee60       ??1?$_Vector_iterator@U_KEY_VALUE_@@V?$allocator@U_KEY_VALUE_@@@std@@@std@@QAE@XZ 0040fe60 f i ConfigStruct.obj
 0001:0000ee80       ??1?$_Vector_const_iterator@U_KEY_VALUE_@@V?$allocator@U_KEY_VALUE_@@@std@@@std@@QAE@XZ 0040fe80 f i ConfigStruct.obj
 0001:0000eea0       ??1?$_Ranit@U_KEY_VALUE_@@HPBU1@ABU1@@std@@QAE@XZ 0040fea0 f i ConfigStruct.obj
 0001:0000eec0       ??1?$_Iterator_with_base@Urandom_access_iterator_tag@std@@U_KEY_VALUE_@@HPBU3@ABU3@V_Iterator_base@2@@std@@QAE@XZ 0040fec0 f i ConfigStruct.obj
 0001:0000eee0       ?SetStructValue@CConfigStruct@@QAEXAAV?$basic_string@_WU?$char_traits@_W@std@@V?$allocator@_W@2@@std@@H@Z 0040fee0 f   ConfigStruct.obj
 0001:0000ef50       ?SetStructValue@CConfigStruct@@QAEXAAV?$basic_string@_WU?$char_traits@_W@std@@V?$allocator@_W@2@@std@@0@Z 0040ff50 f   ConfigStruct.obj
 0001:0000ef90       ?AddStructValue@CConfigStruct@@QAEXAAV?$basic_string@_WU?$char_traits@_W@std@@V?$allocator@_W@2@@std@@H@Z 0040ff90 f   ConfigStruct.obj
 0001:0000f050       ??0_KEY_VALUE_@@QAE@XZ     00410050 f i ConfigStruct.obj
 0001:0000f0d0       ??1_KEY_VALUE_@@QAE@XZ     004100d0 f i ConfigStruct.obj
 0001:0000f130       ?AddStructValue@CConfigStruct@@QAEXAAV?$basic_string@_WU?$char_traits@_W@std@@V?$allocator@_W@2@@std@@0@Z 00410130 f   ConfigStruct.obj
 0001:0000f1c0       ??0CConfigSection@@QAE@XZ  004101c0 f   ConfigStruct.obj
 0001:0000f230       ??1CConfigSection@@QAE@XZ  00410230 f   ConfigStruct.obj
 0001:0000f290       ??0?$vector@U_KEY_VALUE_@@V?$allocator@U_KEY_VALUE_@@@std@@@std@@QAE@XZ 00410290 f i ConfigStruct.obj
 0001:0000f300       ??1?$vector@U_KEY_VALUE_@@V?$allocator@U_KEY_VALUE_@@@std@@@std@@QAE@XZ 00410300 f i ConfigStruct.obj
 0001:0000f360       ?begin@?$vector@U_KEY_VALUE_@@V?$allocator@U_KEY_VALUE_@@@std@@@std@@QAE?AV?$_Vector_iterator@U_KEY_VALUE_@@V?$allocator@U_KEY_VALUE_@@@std@@@2@XZ 00410360 f i ConfigStruct.obj
 0001:0000f3a0       ?end@?$vector@U_KEY_VALUE_@@V?$allocator@U_KEY_VALUE_@@@std@@@std@@QAE?AV?$_Vector_iterator@U_KEY_VALUE_@@V?$allocator@U_KEY_VALUE_@@@std@@@2@XZ 004103a0 f i ConfigStruct.obj
 0001:0000f3e0       ?push_back@?$vector@U_KEY_VALUE_@@V?$allocator@U_KEY_VALUE_@@@std@@@std@@QAEXABU_KEY_VALUE_@@@Z 004103e0 f i ConfigStruct.obj
 0001:0000f4c0       ??D?$_Vector_iterator@U_KEY_VALUE_@@V?$allocator@U_KEY_VALUE_@@@std@@@std@@QBEAAU_KEY_VALUE_@@XZ 004104c0 f i ConfigStruct.obj
 0001:0000f4e0       ??C?$_Vector_iterator@U_KEY_VALUE_@@V?$allocator@U_KEY_VALUE_@@@std@@@std@@QBEPAU_KEY_VALUE_@@XZ 004104e0 f i ConfigStruct.obj
 0001:0000f500       ??E?$_Vector_iterator@U_KEY_VALUE_@@V?$allocator@U_KEY_VALUE_@@@std@@@std@@QAEAAV01@XZ 00410500 f i ConfigStruct.obj
 0001:0000f520       ??9?$_Vector_const_iterator@U_KEY_VALUE_@@V?$allocator@U_KEY_VALUE_@@@std@@@std@@QBE_NABV01@@Z 00410520 f i ConfigStruct.obj
 0001:0000f550       ??1?$_Vector_val@U_KEY_VALUE_@@V?$allocator@U_KEY_VALUE_@@@std@@@std@@QAE@XZ 00410550 f i ConfigStruct.obj
 0001:0000f570       ??0?$_Vector_const_iterator@U_KEY_VALUE_@@V?$allocator@U_KEY_VALUE_@@@std@@@std@@QAE@ABV01@@Z 00410570 f i ConfigStruct.obj
 0001:0000f5a0       ??0?$_Ranit@U_KEY_VALUE_@@HPBU1@ABU1@@std@@QAE@ABU01@@Z 004105a0 f i ConfigStruct.obj
 0001:0000f5c0       ??0?$_Iterator_with_base@Urandom_access_iterator_tag@std@@U_KEY_VALUE_@@HPBU3@ABU3@V_Iterator_base@2@@std@@QAE@ABU01@@Z 004105c0 f i ConfigStruct.obj
 0001:0000f5e0       ?capacity@?$vector@U_KEY_VALUE_@@V?$allocator@U_KEY_VALUE_@@@std@@@std@@QBEIXZ 004105e0 f i ConfigStruct.obj
 0001:0000f620       ?size@?$vector@U_KEY_VALUE_@@V?$allocator@U_KEY_VALUE_@@@std@@@std@@QBEIXZ 00410620 f i ConfigStruct.obj
 0001:0000f640       ?insert@?$vector@U_KEY_VALUE_@@V?$allocator@U_KEY_VALUE_@@@std@@@std@@QAE?AV?$_Vector_iterator@U_KEY_VALUE_@@V?$allocator@U_KEY_VALUE_@@@std@@@2@V?$_Vector_const_iterator@U_KEY_VALUE_@@V?$allocator@U_KEY_VALUE_@@@std@@@2@ABU_KEY_VALUE_@@@Z 00410640 f i ConfigStruct.obj
 0001:0000f760       ?_Buy@?$vector@U_KEY_VALUE_@@V?$allocator@U_KEY_VALUE_@@@std@@@std@@IAE_NI@Z 00410760 f i ConfigStruct.obj
 0001:0000f7e0       ?_Tidy@?$vector@U_KEY_VALUE_@@V?$allocator@U_KEY_VALUE_@@@std@@@std@@IAEXXZ 004107e0 f i ConfigStruct.obj
 0001:0000f860       ?_Ufill@?$vector@U_KEY_VALUE_@@V?$allocator@U_KEY_VALUE_@@@std@@@std@@IAEPAU_KEY_VALUE_@@PAU3@IABU3@@Z 00410860 f i ConfigStruct.obj
 0001:0000f8a0       ?_Orphan_range@?$vector@U_KEY_VALUE_@@V?$allocator@U_KEY_VALUE_@@@std@@@std@@IBEXPAU_KEY_VALUE_@@0@Z 004108a0 f i ConfigStruct.obj
 0001:0000f920       ??0?$_Vector_val@U_KEY_VALUE_@@V?$allocator@U_KEY_VALUE_@@@std@@@std@@IAE@V?$allocator@U_KEY_VALUE_@@@1@@Z 00410920 f i ConfigStruct.obj
 0001:0000f960       ??1?$_Container_base_aux_alloc_empty@V?$allocator@U_KEY_VALUE_@@@std@@@std@@IAE@XZ 00410960 f i ConfigStruct.obj
 0001:0000f980       ??0?$allocator@U_KEY_VALUE_@@@std@@QAE@XZ 00410980 f i ConfigStruct.obj
 0001:0000f990       ??0?$_Vector_iterator@U_KEY_VALUE_@@V?$allocator@U_KEY_VALUE_@@@std@@@std@@QAE@PAU_KEY_VALUE_@@PBV_Container_base_secure@1@@Z 00410990 f i ConfigStruct.obj
 0001:0000f9b0       ??D?$_Vector_const_iterator@U_KEY_VALUE_@@V?$allocator@U_KEY_VALUE_@@@std@@@std@@QBEABU_KEY_VALUE_@@XZ 004109b0 f i ConfigStruct.obj
 0001:0000fa40       ??E?$_Vector_const_iterator@U_KEY_VALUE_@@V?$allocator@U_KEY_VALUE_@@@std@@@std@@QAEAAV01@XZ 00410a40 f i ConfigStruct.obj
 0001:0000fb40       ??8?$_Vector_const_iterator@U_KEY_VALUE_@@V?$allocator@U_KEY_VALUE_@@@std@@@std@@QBE_NABV01@@Z 00410b40 f i ConfigStruct.obj
 0001:0000fb70       ?max_size@?$vector@U_KEY_VALUE_@@V?$allocator@U_KEY_VALUE_@@@std@@@std@@QBEIXZ 00410b70 f i ConfigStruct.obj
 0001:0000fb90       ?_Destroy@?$vector@U_KEY_VALUE_@@V?$allocator@U_KEY_VALUE_@@@std@@@std@@IAEXPAU_KEY_VALUE_@@0@Z 00410b90 f i ConfigStruct.obj
 0001:0000fbc0       ?_Insert_n@?$vector@U_KEY_VALUE_@@V?$allocator@U_KEY_VALUE_@@@std@@@std@@IAEXV?$_Vector_const_iterator@U_KEY_VALUE_@@V?$allocator@U_KEY_VALUE_@@@std@@@2@IABU_KEY_VALUE_@@@Z 00410bc0 f i ConfigStruct.obj
 0001:000100d0       ?_Xlen@?$vector@U_KEY_VALUE_@@V?$allocator@U_KEY_VALUE_@@@std@@@std@@KAXXZ 004110d0 f i ConfigStruct.obj
 0001:00010150       ??0?$_Container_base_aux_alloc_empty@V?$allocator@U_KEY_VALUE_@@@std@@@std@@IAE@V?$allocator@U_KEY_VALUE_@@@1@@Z 00411150 f i ConfigStruct.obj
 0001:00010170       ??0?$allocator@U_KEY_VALUE_@@@std@@QAE@ABV01@@Z 00411170 f i ConfigStruct.obj
 0001:00010180       ?deallocate@?$allocator@U_KEY_VALUE_@@@std@@QAEXPAU_KEY_VALUE_@@I@Z 00411180 f i ConfigStruct.obj
 0001:000101a0       ?allocate@?$allocator@U_KEY_VALUE_@@@std@@QAEPAU_KEY_VALUE_@@I@Z 004111a0 f i ConfigStruct.obj
 0001:000101c0       ??H?$_Vector_iterator@U_KEY_VALUE_@@V?$allocator@U_KEY_VALUE_@@@std@@@std@@QBE?AV01@H@Z 004111c0 f i ConfigStruct.obj
 0001:00010240       ??0?$_Vector_const_iterator@U_KEY_VALUE_@@V?$allocator@U_KEY_VALUE_@@@std@@@std@@QAE@PAU_KEY_VALUE_@@PBV_Container_base_secure@1@@Z 00411240 f i ConfigStruct.obj
 0001:00010310       ??G?$_Vector_const_iterator@U_KEY_VALUE_@@V?$allocator@U_KEY_VALUE_@@@std@@@std@@QBEHABV01@@Z 00411310 f i ConfigStruct.obj
 0001:00010340       ?_Compat@?$_Vector_const_iterator@U_KEY_VALUE_@@V?$allocator@U_KEY_VALUE_@@@std@@@std@@QBEXABV12@@Z 00411340 f i ConfigStruct.obj
 0001:000103c0       ??0_KEY_VALUE_@@QAE@ABU0@@Z 004113c0 f i ConfigStruct.obj
 0001:00010430       ??0?$_Vector_iterator@U_KEY_VALUE_@@V?$allocator@U_KEY_VALUE_@@@std@@@std@@QAE@ABV01@@Z 00411430 f i ConfigStruct.obj
 0001:00010450       ??0?$_Ranit@U_KEY_VALUE_@@HPBU1@ABU1@@std@@QAE@XZ 00411450 f i ConfigStruct.obj
 0001:00010470       ??0?$_Iterator_with_base@Urandom_access_iterator_tag@std@@U_KEY_VALUE_@@HPBU3@ABU3@V_Iterator_base@2@@std@@QAE@XZ 00411470 f i ConfigStruct.obj
 0001:00010490       ?max_size@?$allocator@U_KEY_VALUE_@@@std@@QBEIXZ 00411490 f i ConfigStruct.obj
 0001:000104c0       ??Y?$_Vector_iterator@U_KEY_VALUE_@@V?$allocator@U_KEY_VALUE_@@@std@@@std@@QAEAAV01@H@Z 004114c0 f i ConfigStruct.obj
 0001:000104e0       ??Y?$_Vector_const_iterator@U_KEY_VALUE_@@V?$allocator@U_KEY_VALUE_@@@std@@@std@@QAEAAV01@H@Z 004114e0 f i ConfigStruct.obj
 0001:000105e0       ??$unchecked_uninitialized_fill_n@PAU_KEY_VALUE_@@IU1@V?$allocator@U_KEY_VALUE_@@@std@@@stdext@@YAXPAU_KEY_VALUE_@@IABU1@AAV?$allocator@U_KEY_VALUE_@@@std@@@Z 004115e0 f i ConfigStruct.obj
 0001:00010630       ??$_Destroy_range@V?$allocator@U_KEY_VALUE_@@@std@@@std@@YAXPAU_KEY_VALUE_@@0AAV?$allocator@U_KEY_VALUE_@@@0@@Z 00411630 f i ConfigStruct.obj
 0001:00010670       ??$_Umove@PAU_KEY_VALUE_@@@?$vector@U_KEY_VALUE_@@V?$allocator@U_KEY_VALUE_@@@std@@@std@@IAEPAU_KEY_VALUE_@@PAU2@00@Z 00411670 f i ConfigStruct.obj
 0001:000106a0       ??$fill@PAU_KEY_VALUE_@@U1@@std@@YAXPAU_KEY_VALUE_@@0ABU1@@Z 004116a0 f i ConfigStruct.obj
 0001:000106d0       ??$_Unchecked_move_backward@PAU_KEY_VALUE_@@PAU1@@stdext@@YAPAU_KEY_VALUE_@@PAU1@00@Z 004116d0 f i ConfigStruct.obj
 0001:00010740       ??$_Allocate@U_KEY_VALUE_@@@std@@YAPAU_KEY_VALUE_@@IPAU1@@Z 00411740 f i ConfigStruct.obj
 0001:00010790       ??$_Ptr_cat@PAU_KEY_VALUE_@@PAU1@@std@@YA?AU_Nonscalar_ptr_iterator_tag@0@AAPAU_KEY_VALUE_@@0@Z 00411790 f i ConfigStruct.obj
 0001:000107a0       ??$_Uninit_fill_n@PAU_KEY_VALUE_@@IU1@V?$allocator@U_KEY_VALUE_@@@std@@@std@@YAXPAU_KEY_VALUE_@@IABU1@AAV?$allocator@U_KEY_VALUE_@@@0@U_Nonscalar_ptr_iterator_tag@0@U_Range_checked_iterator_tag@0@@Z 004117a0 f i ConfigStruct.obj
 0001:00010860       ??$_Destroy_range@V?$allocator@U_KEY_VALUE_@@@std@@@std@@YAXPAU_KEY_VALUE_@@0AAV?$allocator@U_KEY_VALUE_@@@0@U_Nonscalar_ptr_iterator_tag@0@@Z 00411860 f i ConfigStruct.obj
 0001:00010890       ??$_Unchecked_uninitialized_move@PAU_KEY_VALUE_@@PAU1@V?$allocator@U_KEY_VALUE_@@@std@@@stdext@@YAPAU_KEY_VALUE_@@PAU1@00AAV?$allocator@U_KEY_VALUE_@@@std@@@Z 00411890 f i ConfigStruct.obj
 0001:000108e0       ??$_Checked_base@PAU_KEY_VALUE_@@@std@@YAPAU_KEY_VALUE_@@AAPAU1@@Z 004118e0 f i ConfigStruct.obj
 0001:00010900       ??$_Fill@PAU_KEY_VALUE_@@U1@@std@@YAXPAU_KEY_VALUE_@@0ABU1@@Z 00411900 f i ConfigStruct.obj
 0001:00010940       ??$_Iter_random@PAU_KEY_VALUE_@@PAU1@@std@@YA?AUrandom_access_iterator_tag@0@ABQAU_KEY_VALUE_@@0@Z 00411940 f i ConfigStruct.obj
 0001:00010950       ??$_Move_cat@PAU_KEY_VALUE_@@@std@@YA?AU_Undefined_move_tag@0@ABQAU_KEY_VALUE_@@@Z 00411950 f i ConfigStruct.obj
 0001:00010960       ??$_Move_backward_opt@PAU_KEY_VALUE_@@PAU1@Urandom_access_iterator_tag@std@@U_Undefined_move_tag@3@@std@@YAPAU_KEY_VALUE_@@PAU1@00Urandom_access_iterator_tag@0@U_Undefined_move_tag@0@U_Range_checked_iterator_tag@0@@Z 00411960 f i ConfigStruct.obj
 0001:000109b0       ??4_KEY_VALUE_@@QAEAAU0@ABU0@@Z 004119b0 f i ConfigStruct.obj
 0001:000109e0       ?construct@?$allocator@U_KEY_VALUE_@@@std@@QAEXPAU_KEY_VALUE_@@ABU3@@Z 004119e0 f i ConfigStruct.obj
 0001:00010a00       ?destroy@?$allocator@U_KEY_VALUE_@@@std@@QAEXPAU_KEY_VALUE_@@@Z 00411a00 f i ConfigStruct.obj
 0001:00010a20       ??$_Uninit_move@PAU_KEY_VALUE_@@PAU1@V?$allocator@U_KEY_VALUE_@@@std@@U_Undefined_move_tag@3@@std@@YAPAU_KEY_VALUE_@@PAU1@00AAV?$allocator@U_KEY_VALUE_@@@0@U_Undefined_move_tag@0@U_Range_checked_iterator_tag@0@@Z 00411a20 f i ConfigStruct.obj
 0001:00010a40       ??$_Checked_base@PAU_KEY_VALUE_@@@std@@YAPAU_KEY_VALUE_@@AAPAU1@U_Unchanged_checked_iterator_base_type_tag@0@@Z 00411a40 f i ConfigStruct.obj
 0001:00010a50       ??$_Debug_range@PAU_KEY_VALUE_@@@std@@YAXPAU_KEY_VALUE_@@0PB_WI@Z 00411a50 f i ConfigStruct.obj
 0001:00010a90       ??$_Copy_backward_opt@PAU_KEY_VALUE_@@PAU1@@std@@YAPAU_KEY_VALUE_@@PAU1@00Urandom_access_iterator_tag@0@U_Nonscalar_ptr_iterator_tag@0@U_Range_checked_iterator_tag@0@@Z 00411a90 f i ConfigStruct.obj
 0001:00010af0       ??$_Construct@U_KEY_VALUE_@@U1@@std@@YAXPAU_KEY_VALUE_@@ABU1@@Z 00411af0 f i ConfigStruct.obj
 0001:00010b70       ??$_Destroy@U_KEY_VALUE_@@@std@@YAXPAU_KEY_VALUE_@@@Z 00411b70 f i ConfigStruct.obj
 0001:00010b80       ??_G_KEY_VALUE_@@QAEPAXI@Z 00411b80 f i ConfigStruct.obj
 0001:00010bb0       ??$unchecked_uninitialized_copy@PAU_KEY_VALUE_@@PAU1@V?$allocator@U_KEY_VALUE_@@@std@@@stdext@@YAPAU_KEY_VALUE_@@PAU1@00AAV?$allocator@U_KEY_VALUE_@@@std@@@Z 00411bb0 f i ConfigStruct.obj
 0001:00010c10       ??$_Iter_cat@PAU_KEY_VALUE_@@@std@@YA?AUrandom_access_iterator_tag@0@ABQAU_KEY_VALUE_@@@Z 00411c10 f i ConfigStruct.obj
 0001:00010c20       ??$_Debug_range2@PAU_KEY_VALUE_@@@std@@YAXPAU_KEY_VALUE_@@0PB_WIUrandom_access_iterator_tag@0@@Z 00411c20 f i ConfigStruct.obj
 0001:00010c80       ??$_Copy_backward_opt@PAU_KEY_VALUE_@@PAU1@Uforward_iterator_tag@std@@@std@@YAPAU_KEY_VALUE_@@PAU1@00Uforward_iterator_tag@0@U_Nonscalar_ptr_iterator_tag@0@U_Range_checked_iterator_tag@0@@Z 00411c80 f i ConfigStruct.obj
 0001:00010cd0       ??$_Uninit_copy@PAU_KEY_VALUE_@@PAU1@V?$allocator@U_KEY_VALUE_@@@std@@@std@@YAPAU_KEY_VALUE_@@PAU1@00AAV?$allocator@U_KEY_VALUE_@@@0@U_Nonscalar_ptr_iterator_tag@0@U_Range_checked_iterator_tag@0@@Z 00411cd0 f i ConfigStruct.obj
 0001:00010dc0       ??$_Debug_pointer@U_KEY_VALUE_@@@std@@YAXPAU_KEY_VALUE_@@PB_WI@Z 00411dc0 f i ConfigStruct.obj
 0001:00010df0       ??0CCrossBossConfig@@QAE@PB_W_N@Z 00411df0 f   CrossBossConfig.obj
 0001:00010e60       ??1CCrossBossConfig@@QAE@XZ 00411e60 f   CrossBossConfig.obj
 0001:00010e80       ?Init@CCrossBossConfig@@QAEXXZ 00411e80 f   CrossBossConfig.obj
 0001:00010ec0       ?IsCrossBossSelectedFromCfg@CCrossBossConfig@@QAEHXZ 00411ec0 f   CrossBossConfig.obj
 0001:00010ee0       ?SetIsCrossBossSelectedToCfg@CCrossBossConfig@@QAEXH@Z 00411ee0 f   CrossBossConfig.obj
 0001:00010f00       ?SetCrossBossListSelectedToCfg@CCrossBossConfig@@QAEXAAV?$vector@HV?$allocator@H@std@@@std@@@Z 00411f00 f   CrossBossConfig.obj
 0001:00010f20       ?GetCrossBossSelectedListFromCfg@CCrossBossConfig@@QAE?AV?$vector@HV?$allocator@H@std@@@std@@XZ 00411f20 f   CrossBossConfig.obj
 0001:00010f50       ??0CCrossCorpsBossConfig@@QAE@PB_W_N@Z 00411f50 f   CrossCorpsBossConfig.obj
 0001:00010fc0       ??1CCrossCorpsBossConfig@@QAE@XZ 00411fc0 f   CrossCorpsBossConfig.obj
 0001:00010fe0       ?Init@CCrossCorpsBossConfig@@QAEXXZ 00411fe0 f   CrossCorpsBossConfig.obj
 0001:00011020       ?IsCrossCorpsBossSelectedFromCfg@CCrossCorpsBossConfig@@QAEHXZ 00412020 f   CrossCorpsBossConfig.obj
 0001:00011040       ?SetIsCrossCorpsBossSelectedToCfg@CCrossCorpsBossConfig@@QAEXH@Z 00412040 f   CrossCorpsBossConfig.obj
 0001:00011060       ?SetCrossCorpsBossListSelectedToCfg@CCrossCorpsBossConfig@@QAEXAAV?$vector@HV?$allocator@H@std@@@std@@@Z 00412060 f   CrossCorpsBossConfig.obj
 0001:00011080       ?GetCrossCorpsBossSelectedListFromCfg@CCrossCorpsBossConfig@@QAE?AV?$vector@HV?$allocator@H@std@@@std@@XZ 00412080 f   CrossCorpsBossConfig.obj
 0001:000110b0       ??0CConfigSecretary1@@QAE@PB_W_N@Z 004120b0 f   DailyTaskConfig.obj
 0001:000110e0       ??1CConfigSecretary1@@QAE@XZ 004120e0 f   DailyTaskConfig.obj
 0001:00011100       ?IsAutoHungUpFromCfg@CConfigSecretary1@@QAEHXZ 00412100 f   DailyTaskConfig.obj
 0001:00011130       ?SetIsAutoHungUpToCfg@CConfigSecretary1@@QAEHH@Z 00412130 f   DailyTaskConfig.obj
 0001:00011160       ?GetAutoHungUpPointXFromCfg@CConfigSecretary1@@QAEHXZ 00412160 f   DailyTaskConfig.obj
 0001:00011190       ?SetAutoHungUpPointXToCfg@CConfigSecretary1@@QAEHH@Z 00412190 f   DailyTaskConfig.obj
 0001:000111c0       ?GetAutoHungUpPointYFromCfg@CConfigSecretary1@@QAEHXZ 004121c0 f   DailyTaskConfig.obj
 0001:000111f0       ?SetAutoHungUpPointYToCfg@CConfigSecretary1@@QAEHH@Z 004121f0 f   DailyTaskConfig.obj
 0001:00011220       ?GetHungUpMapTypeFromCfg@CConfigSecretary1@@QAEHXZ 00412220 f   DailyTaskConfig.obj
 0001:00011250       ?SetHungUpMapTypeToCfg@CConfigSecretary1@@QAEHH@Z 00412250 f   DailyTaskConfig.obj
 0001:00011280       ?GetAutoHungUpMapIndexCfg@CConfigSecretary1@@QAEHXZ 00412280 f   DailyTaskConfig.obj
 0001:000112b0       ?SetAutoHungUpMapIdToCfg@CConfigSecretary1@@QAEHH@Z 004122b0 f   DailyTaskConfig.obj
 0001:000112e0       ?GetBloodCastleTimeSelectArrayFromCfg@CConfigSecretary1@@QAE?AV?$vector@HV?$allocator@H@std@@@std@@XZ 004122e0 f   DailyTaskConfig.obj
 0001:00011360       ?SetBloodCastleTimeSelectArrayToCfg@CConfigSecretary1@@QAEHAAV?$vector@HV?$allocator@H@std@@@std@@@Z 00412360 f   DailyTaskConfig.obj
 0001:00011420       ?IsBloodCastleSelectedFromCfg@CConfigSecretary1@@QAEHXZ 00412420 f   DailyTaskConfig.obj
 0001:00011450       ?SetIsBloodTownSelectedToCfg@CConfigSecretary1@@QAEHH@Z 00412450 f   DailyTaskConfig.obj
 0001:00011480       ?GetBloodCastleHungUpPointXFromCfg@CConfigSecretary1@@QAEHXZ 00412480 f   DailyTaskConfig.obj
 0001:000114b0       ?SetBloodCastleHungUpPointXToCfg@CConfigSecretary1@@QAEHH@Z 004124b0 f   DailyTaskConfig.obj
 0001:000114e0       ?GetBloodCastleHungUpPointYFromCfg@CConfigSecretary1@@QAEHXZ 004124e0 f   DailyTaskConfig.obj
 0001:00011510       ?SetBloodCastleHungUpPointYToCfg@CConfigSecretary1@@QAEHH@Z 00412510 f   DailyTaskConfig.obj
 0001:00011540       ?IsUseSelfSkillsWhenSeeOtherPlayerFromCfg@CConfigSecretary1@@QAEHXZ 00412540 f   DailyTaskConfig.obj
 0001:00011570       ?SetIsUseSelfSkillsWhenSeeOtherPlayerToCfg@CConfigSecretary1@@QAEHH@Z 00412570 f   DailyTaskConfig.obj
 0001:000115a0       ?IsBloodTownAutoComposeTicketFromCfg@CConfigSecretary1@@QAEHXZ 004125a0 f   DailyTaskConfig.obj
 0001:000115d0       ?SetIsBloodTownBloodTownAutoComposeTicketToCfg@CConfigSecretary1@@QAEHH@Z 004125d0 f   DailyTaskConfig.obj
 0001:00011600       ?IsAutoCounterStrikeFromCfg@CConfigSecretary1@@QAEHXZ 00412600 f   DailyTaskConfig.obj
 0001:00011630       ?SetIsAutoCounterStrikeToCfg@CConfigSecretary1@@QAEHH@Z 00412630 f   DailyTaskConfig.obj
 0001:00011660       ?IsAutoCounterStrikeUsingConfigSkillsFromCfg@CConfigSecretary1@@QAEHXZ 00412660 f   DailyTaskConfig.obj
 0001:00011690       ?SetIsAutoCounterStrikeUsingConfigSkillsToCfg@CConfigSecretary1@@QAEHH@Z 00412690 f   DailyTaskConfig.obj
 0001:000116c0       ?GetPkModeFromCfg@CConfigSecretary1@@QAEHXZ 004126c0 f   DailyTaskConfig.obj
 0001:000116f0       ?SetPkModeToCfg@CConfigSecretary1@@QAEHH@Z 004126f0 f   DailyTaskConfig.obj
 0001:00011720       ??0CGameConfig@@QAE@AAV?$basic_string@_WU?$char_traits@_W@std@@V?$allocator@_W@2@@std@@_N@Z 00412720 f   GameConfig.obj
 0001:000117c0       ??0CGameConfig@@QAE@AAV?$basic_string@_WU?$char_traits@_W@std@@V?$allocator@_W@2@@std@@_N1@Z 004127c0 f   GameConfig.obj
 0001:00011860       ??1CGameConfig@@QAE@XZ     00412860 f   GameConfig.obj
 0001:000118c0       ?GetAllSectionNameFromConfig@CGameConfig@@QAE?AV?$vector@V?$basic_string@_WU?$char_traits@_W@std@@V?$allocator@_W@2@@std@@V?$allocator@V?$basic_string@_WU?$char_traits@_W@std@@V?$allocator@_W@2@@std@@@2@@std@@AAV?$basic_string@_WU?$char_traits@_W@std@@V?$allocator@_W@2@@3@@Z 004128c0 f   GameConfig.obj
 0001:00011940       ?InitConfigObjects@CGameConfig@@QAEXPB_W@Z 00412940 f   GameConfig.obj
 0001:00011950       ?InitConfigObjectsBySetPath@CGameConfig@@QAEXPB_W@Z 00412950 f   GameConfig.obj
 0001:00011960       ?DeleteConfigObjects@CGameConfig@@QAEXXZ 00412960 f   GameConfig.obj
 0001:00011970       ?SetAllObjectSectionNames@CGameConfig@@QAEXXZ 00412970 f   GameConfig.obj
 0001:00011980       ??0CGiftHallConfig@@QAE@PB_W_N@Z 00412980 f   GiftHallConfig.obj
 0001:000119b0       ??1CGiftHallConfig@@QAE@XZ 004129b0 f   GiftHallConfig.obj
 0001:000119d0       ?IsAutoSignInFromCfg@CGiftHallConfig@@QAEHXZ 004129d0 f   GiftHallConfig.obj
 0001:00011a00       ?SetAutoSignInToCfg@CGiftHallConfig@@QAEXH@Z 00412a00 f   GiftHallConfig.obj
 0001:00011a30       ?IsAutoTreasureHoleFromCfg@CGiftHallConfig@@QAEHXZ 00412a30 f   GiftHallConfig.obj
 0001:00011a60       ?SetAutoTreasureHoleToCfg@CGiftHallConfig@@QAEXH@Z 00412a60 f   GiftHallConfig.obj
 0001:00011a90       ?IsAutoActivityTaskFromCfg@CGiftHallConfig@@QAEHXZ 00412a90 f   GiftHallConfig.obj
 0001:00011ac0       ?SetAutoActivityTaskToCfg@CGiftHallConfig@@QAEXH@Z 00412ac0 f   GiftHallConfig.obj
 0001:00011af0       ?IsAutoOnlineRewardFromCfg@CGiftHallConfig@@QAEHXZ 00412af0 f   GiftHallConfig.obj
 0001:00011b20       ?SetAutoOnlineRewardToCfg@CGiftHallConfig@@QAEXH@Z 00412b20 f   GiftHallConfig.obj
 0001:00011b50       ?IsAutoOfflineExpFromCfg@CGiftHallConfig@@QAEHXZ 00412b50 f   GiftHallConfig.obj
 0001:00011b80       ?SetAutoOfflineExpToCfg@CGiftHallConfig@@QAEXH@Z 00412b80 f   GiftHallConfig.obj
 0001:00011bb0       ?GetOfflineExpTypeFromCfg@CGiftHallConfig@@QAEHXZ 00412bb0 f   GiftHallConfig.obj
 0001:00011be0       ?SetOfflineExpTypeToCfg@CGiftHallConfig@@QAEXH@Z 00412be0 f   GiftHallConfig.obj
 0001:00011c10       ?IsAutoComposeTicketFromCfg@CGiftHallConfig@@QAEHXZ 00412c10 f   GiftHallConfig.obj
 0001:00011c40       ?SetAutoComposeTickeToCfg@CGiftHallConfig@@QAEXH@Z 00412c40 f   GiftHallConfig.obj
 0001:00011c70       ?IsAutoRecycleEquipmentFromCfg@CGiftHallConfig@@QAEHXZ 00412c70 f   GiftHallConfig.obj
 0001:00011ca0       ?SetAutoRecycleEquipmentToCfg@CGiftHallConfig@@QAEXH@Z 00412ca0 f   GiftHallConfig.obj
 0001:00011cd0       ?GetRecycleEquipmentStarFromCfg@CGiftHallConfig@@QAEHXZ 00412cd0 f   GiftHallConfig.obj
 0001:00011d00       ?SetRecycleEquipmentStarToCfg@CGiftHallConfig@@QAEXH@Z 00412d00 f   GiftHallConfig.obj
 0001:00011d30       ?GetRecycleEquipmentStepLvFromCfg@CGiftHallConfig@@QAEHXZ 00412d30 f   GiftHallConfig.obj
 0001:00011d60       ?SetRecycleEquipmentStepLvToCfg@CGiftHallConfig@@QAEXH@Z 00412d60 f   GiftHallConfig.obj
 0001:00011d90       ?IsAutoSendGetVipMemberInfoFromCfg@CGiftHallConfig@@QAEHXZ 00412d90 f   GiftHallConfig.obj
 0001:00011dc0       ?SetIsAutoSendGetVipMemberInfoToCfg@CGiftHallConfig@@QAEXH@Z 00412dc0 f   GiftHallConfig.obj
 0001:00011df0       ?IsAutoActivityGetRewardFromCfg@CGiftHallConfig@@QAEHXZ 00412df0 f   GiftHallConfig.obj
 0001:00011e20       ?SetIsAutoAcitivityGetRewardToCfg@CGiftHallConfig@@QAEXH@Z 00412e20 f   GiftHallConfig.obj
 0001:00011e50       ?IsAutoReadMailFromCfg@CGiftHallConfig@@QAEHXZ 00412e50 f   GiftHallConfig.obj
 0001:00011e80       ?SetIsAutoReadMailToCfg@CGiftHallConfig@@QAEXH@Z 00412e80 f   GiftHallConfig.obj
 0001:00011eb0       ?IsAutoDeleteReadMailFromCfg@CGiftHallConfig@@QAEHXZ 00412eb0 f   GiftHallConfig.obj
 0001:00011ee0       ?SetIsAutoDeleteReadMailToCfg@CGiftHallConfig@@QAEXH@Z 00412ee0 f   GiftHallConfig.obj
 0001:00011f10       ?IsAutoUpdateMagicNuclearFromCfg@CGiftHallConfig@@QAEHXZ 00412f10 f   GiftHallConfig.obj
 0001:00011f40       ?SetIsAutoUpdateMagicNuclearToCfg@CGiftHallConfig@@QAEXH@Z 00412f40 f   GiftHallConfig.obj
 0001:00011f70       ?IsAutoTidyBagFromCfg@CGiftHallConfig@@QAEHXZ 00412f70 f   GiftHallConfig.obj
 0001:00011fa0       ?SetIsAutoTidyBagToCfg@CGiftHallConfig@@QAEXH@Z 00412fa0 f   GiftHallConfig.obj
 0001:00011fd0       ??0CGlobalConfig@@QAE@_N@Z 00412fd0 f   GlobalConfig.obj
 0001:00012000       ??_GCGlobalConfig@@UAEPAXI@Z 00413000 f i GlobalConfig.obj
 0001:00012000       ??_ECGlobalConfig@@UAEPAXI@Z 00413000 f i GlobalConfig.obj
 0001:00012030       ??1CGlobalConfig@@UAE@XZ   00413030 f   GlobalConfig.obj
 0001:00012050       ?SetHotKeyStructStartToCfg@CGlobalConfig@@QAEXPAX@Z 00413050 f   GlobalConfig.obj
 0001:00012060       ?GetHotKeyStructStartFromCfg@CGlobalConfig@@QAEXPAX@Z 00413060 f   GlobalConfig.obj
 0001:00012070       ?SetHotKeyStructPauseToCfg@CGlobalConfig@@QAEXPAX@Z 00413070 f   GlobalConfig.obj
 0001:00012080       ?GetHotKeyStructPauseFromCfg@CGlobalConfig@@QAEXPAX@Z 00413080 f   GlobalConfig.obj
 0001:00012090       ?ReadHotKeyStructFromCfgInternal@CGlobalConfig@@AAEXPAXPB_W@Z 00413090 f   GlobalConfig.obj
 0001:000120a0       ?WriteHotKeyStructToCfgInternal@CGlobalConfig@@AAEXPAXPB_W@Z 004130a0 f   GlobalConfig.obj
 0001:000120b0       ??0CImprintBossConfig@@QAE@PB_W_N@Z 004130b0 f   ImprintBossConfig.obj
 0001:00012120       ??1CImprintBossConfig@@QAE@XZ 00413120 f   ImprintBossConfig.obj
 0001:00012140       ?Init@CImprintBossConfig@@QAEXXZ 00413140 f   ImprintBossConfig.obj
 0001:00012170       ?IsImprintBossSelectedFromCfg@CImprintBossConfig@@QAEHXZ 00413170 f   ImprintBossConfig.obj
 0001:00012190       ?SetIsImprintBossSelectedToCfg@CImprintBossConfig@@QAEXH@Z 00413190 f   ImprintBossConfig.obj
 0001:000121b0       ?SetImprintBossListSelectedToCfg@CImprintBossConfig@@QAEXAAV?$vector@HV?$allocator@H@std@@@std@@@Z 004131b0 f   ImprintBossConfig.obj
 0001:000121d0       ?GetImprintBossSelectedListFromCfg@CImprintBossConfig@@QAE?AV?$vector@HV?$allocator@H@std@@@std@@XZ 004131d0 f   ImprintBossConfig.obj
 0001:00012200       ??0CLocalCorpsBossConfig@@QAE@PB_W_N@Z 00413200 f   LocalCorpsBossConfig.obj
 0001:00012270       ??1CLocalCorpsBossConfig@@QAE@XZ 00413270 f   LocalCorpsBossConfig.obj
 0001:00012290       ?Init@CLocalCorpsBossConfig@@QAEXXZ 00413290 f   LocalCorpsBossConfig.obj
 0001:000122d0       ?IsLocalCorpsBossSelectedFromCfg@CLocalCorpsBossConfig@@QAEHXZ 004132d0 f   LocalCorpsBossConfig.obj
 0001:000122f0       ?SetIsLocalCorpsBossSelectedToCfg@CLocalCorpsBossConfig@@QAEXH@Z 004132f0 f   LocalCorpsBossConfig.obj
 0001:00012310       ?SetLocalCorpsBossListSelectedToCfg@CLocalCorpsBossConfig@@QAEXAAV?$vector@HV?$allocator@H@std@@@std@@@Z 00413310 f   LocalCorpsBossConfig.obj
 0001:00012330       ?GetLocalCorpsBossSelectedListFromCfg@CLocalCorpsBossConfig@@QAE?AV?$vector@HV?$allocator@H@std@@@std@@XZ 00413330 f   LocalCorpsBossConfig.obj
 0001:00012360       ??0CNeutralBossConfig@@QAE@PB_W_N@Z 00413360 f   NeutralBossConfig.obj
 0001:000123d0       ??1CNeutralBossConfig@@QAE@XZ 004133d0 f   NeutralBossConfig.obj
 0001:000123f0       ?Init@CNeutralBossConfig@@QAEXXZ 004133f0 f   NeutralBossConfig.obj
 0001:00012430       ?IsNeutralBossSelectedFromCfg@CNeutralBossConfig@@QAEHXZ 00413430 f   NeutralBossConfig.obj
 0001:00012450       ?SetIsNeutralBossSelectedToCfg@CNeutralBossConfig@@QAEXH@Z 00413450 f   NeutralBossConfig.obj
 0001:00012470       ?SetNeutralBossListSelectedToCfg@CNeutralBossConfig@@QAEXAAV?$vector@HV?$allocator@H@std@@@std@@@Z 00413470 f   NeutralBossConfig.obj
 0001:00012490       ?GetNeutralBossSelectedListFromCfg@CNeutralBossConfig@@QAE?AV?$vector@HV?$allocator@H@std@@@std@@XZ 00413490 f   NeutralBossConfig.obj
 0001:000124c0       ??0COtherTaskConfig@@QAE@PB_W_N@Z 004134c0 f   OtherTaskConfig.obj
 0001:000124f0       ??1COtherTaskConfig@@QAE@XZ 004134f0 f   OtherTaskConfig.obj
 0001:00012510       ?IsCrossServerCollectSelectedFromCfg@COtherTaskConfig@@QAEHXZ 00413510 f   OtherTaskConfig.obj
 0001:00012540       ?SetCrossServerCollectToCfg@COtherTaskConfig@@QAEXH@Z 00413540 f   OtherTaskConfig.obj
 0001:00012570       ?IsRedHoodSelectedFromCfg@COtherTaskConfig@@QAEHXZ 00413570 f   OtherTaskConfig.obj
 0001:000125a0       ?SetSelectRedHoodToCfg@COtherTaskConfig@@QAEXH@Z 004135a0 f   OtherTaskConfig.obj
 0001:000125d0       ?IsJoinWorldServerFightFromCfg@COtherTaskConfig@@QAEHXZ 004135d0 f   OtherTaskConfig.obj
 0001:00012600       ?SetJoinWorldServerFightToCfg@COtherTaskConfig@@QAEXH@Z 00413600 f   OtherTaskConfig.obj
 0001:00012630       ?IsAutoLegionSignInFromCfg@COtherTaskConfig@@QAEHXZ 00413630 f   OtherTaskConfig.obj
 0001:00012660       ?SetAutoLegionSignInToCfg@COtherTaskConfig@@QAEXH@Z 00413660 f   OtherTaskConfig.obj
 0001:00012690       ?IsSpaceCorridorSelectedFromCfg@COtherTaskConfig@@QAEHXZ 00413690 f   OtherTaskConfig.obj
 0001:000126c0       ?SetSelectSpaceCorridorToCfg@COtherTaskConfig@@QAEXH@Z 004136c0 f   OtherTaskConfig.obj
 0001:000126f0       ?IsSpecialRoomSelectedFromCfg@COtherTaskConfig@@QAEHXZ 004136f0 f   OtherTaskConfig.obj
 0001:00012720       ?SetSelectSpecialRoomToCfg@COtherTaskConfig@@QAEXH@Z 00413720 f   OtherTaskConfig.obj
 0001:00012750       ?IsFastFightSelectedFromCfg@COtherTaskConfig@@QAEHXZ 00413750 f   OtherTaskConfig.obj
 0001:00012780       ?SetSelectFastFightToCfg@COtherTaskConfig@@QAEXH@Z 00413780 f   OtherTaskConfig.obj
 0001:000127b0       ?IsCampWarSelectedFromCfg@COtherTaskConfig@@QAEHXZ 004137b0 f   OtherTaskConfig.obj
 0001:000127e0       ?SetSelectCampWarToCfg@COtherTaskConfig@@QAEXH@Z 004137e0 f   OtherTaskConfig.obj
 0001:00012810       ?IsCertificateSelectedFromCfg@COtherTaskConfig@@QAEHXZ 00413810 f   OtherTaskConfig.obj
 0001:00012840       ?SetSelectCertificateToCfg@COtherTaskConfig@@QAEXH@Z 00413840 f   OtherTaskConfig.obj
 0001:00012870       ?IsPinkDiamondSelectedFromcCfg@COtherTaskConfig@@QAEHXZ 00413870 f   OtherTaskConfig.obj
 0001:000128a0       ?SetSelectPinkDiamondToCfg@COtherTaskConfig@@QAEXH@Z 004138a0 f   OtherTaskConfig.obj
 0001:000128d0       ?IsHorcruxSelectedFromCfg@COtherTaskConfig@@QAEHXZ 004138d0 f   OtherTaskConfig.obj
 0001:00012900       ?SetSelectHorcruxToCfg@COtherTaskConfig@@QAEXH@Z 00413900 f   OtherTaskConfig.obj
 0001:00012930       ?IsOriginalSinSelectedFromCfg@COtherTaskConfig@@QAEHXZ 00413930 f   OtherTaskConfig.obj
 0001:00012960       ?SetSelectOriginalSinToCfg@COtherTaskConfig@@QAEXH@Z 00413960 f   OtherTaskConfig.obj
 0001:00012990       ?IsFairyLandSelectedFromCfg@COtherTaskConfig@@QAEHXZ 00413990 f   OtherTaskConfig.obj
 0001:000129c0       ?SetSelectFairyLandToCfg@COtherTaskConfig@@QAEXH@Z 004139c0 f   OtherTaskConfig.obj
 0001:000129f0       ?GetFairyLandCountFromCfg@COtherTaskConfig@@QAEHXZ 004139f0 f   OtherTaskConfig.obj
 0001:00012a20       ?SetFairyLandCountToCfg@COtherTaskConfig@@QAEXH@Z 00413a20 f   OtherTaskConfig.obj
 0001:00012a50       ?IsOrcGodBlessSelectedFromCfg@COtherTaskConfig@@QAEHXZ 00413a50 f   OtherTaskConfig.obj
 0001:00012a80       ?SetSelectOrcGodBlessToCfg@COtherTaskConfig@@QAEXH@Z 00413a80 f   OtherTaskConfig.obj
 0001:00012ab0       ??0CPlatformConfig@@QAE@_N@Z 00413ab0 f   PlatformConfig.obj
 0001:00012b30       ?SetPlatformId@CPlatformConfig@@QAEXH@Z 00413b30 f i PlatformConfig.obj
 0001:00012b50       ?SetCfgFileName@CPlatformConfig@@QAEXPB_W@Z 00413b50 f i PlatformConfig.obj
 0001:00012b70       ??1CPlatformConfig@@QAE@XZ 00413b70 f   PlatformConfig.obj
 0001:00012b90       ?GetPlatformNameFromCfg@CPlatformConfig@@QAE?AV?$basic_string@_WU?$char_traits@_W@std@@V?$allocator@_W@2@@std@@XZ 00413b90 f   PlatformConfig.obj
 0001:00012c20       ?GetPlatformId@CPlatformConfig@@QAEHXZ 00413c20 f i PlatformConfig.obj
 0001:00012c40       ?SetPlatformNameToCfg@CPlatformConfig@@QAEXAAV?$basic_string@_WU?$char_traits@_W@std@@V?$allocator@_W@2@@std@@@Z 00413c40 f   PlatformConfig.obj
 0001:00012cc0       ??0CSkillConfig@@QAE@PB_W_N@Z 00413cc0 f   SkillConfig.obj
 0001:00012d30       ??_GCSkillConfig@@UAEPAXI@Z 00413d30 f i SkillConfig.obj
 0001:00012d30       ??_ECSkillConfig@@UAEPAXI@Z 00413d30 f i SkillConfig.obj
 0001:00012d60       ??1CSkillConfig@@UAE@XZ    00413d60 f   SkillConfig.obj
 0001:00012d80       ?Init@CSkillConfig@@QAEXXZ 00413d80 f   SkillConfig.obj
 0001:00012dc0       ?SetSkillListSelectedToCfg@CSkillConfig@@QAEXAAV?$vector@HV?$allocator@H@std@@@std@@@Z 00413dc0 f   SkillConfig.obj
 0001:00012f60       ?GetSkillSelectedListFromCfg@CSkillConfig@@QAE?AV?$vector@HV?$allocator@H@std@@@std@@XZ 00413f60 f   SkillConfig.obj
 0001:00013020       ?GetJobSkillTypeFromCfg@CSkillConfig@@QAEHXZ 00414020 f   SkillConfig.obj
 0001:00013050       ?SetJobSkillTypeToCfg@CSkillConfig@@QAEXH@Z 00414050 f   SkillConfig.obj
 0001:00013090       ?GetSkillTargetXFromCfg@CSkillConfig@@QAEHXZ 00414090 f   SkillConfig.obj
 0001:000130c0       ?SetSkillTargetXToCfg@CSkillConfig@@QAEXH@Z 004140c0 f   SkillConfig.obj
 0001:00013100       ?GetSkillTargetYFromCfg@CSkillConfig@@QAEHXZ 00414100 f   SkillConfig.obj
 0001:00013130       ?SetSkillTargetYToCfg@CSkillConfig@@QAEXH@Z 00414130 f   SkillConfig.obj
 0001:00013170       ?GetSkillSendIntervalFromCfg@CSkillConfig@@QAEHXZ 00414170 f   SkillConfig.obj
 0001:000131a0       ?SetSkillSendIntervalToCfg@CSkillConfig@@QAEXH@Z 004141a0 f   SkillConfig.obj
 0001:000131e0       ??D?$_Vector_iterator@HV?$allocator@H@std@@@std@@QBEAAHXZ 004141e0 f i SkillConfig.obj
 0001:00013200       ??E?$_Vector_iterator@HV?$allocator@H@std@@@std@@QAEAAV01@XZ 00414200 f i SkillConfig.obj
 0001:00013220       ??E?$_Vector_const_iterator@HV?$allocator@H@std@@@std@@QAEAAV01@XZ 00414220 f i SkillConfig.obj
 0001:00013320       ??0CSystemConfig@@QAE@PB_W_N@Z 00414320 f   SystemConfig.obj
 0001:00013350       ??1CSystemConfig@@QAE@XZ   00414350 f   SystemConfig.obj
 0001:00013370       ?IsXiaoHaoFromCfg@CSystemConfig@@QAEHXZ 00414370 f   SystemConfig.obj
 0001:000133a0       ?SetXiaoHaoToCfg@CSystemConfig@@QAEXH@Z 004143a0 f   SystemConfig.obj
 0001:000133d0       ?GetMinutesToReloginWhenLogoutByOtherFromCfg@CSystemConfig@@QAEHXZ 004143d0 f   SystemConfig.obj
 0001:00013410       ?SetMinutesToReloginWhenLogoutByOtherToCfg@CSystemConfig@@QAEXH@Z 00414410 f   SystemConfig.obj
 0001:00013440       ?GetMinutesToReloginWhenLogoutByDisconnectFromCfg@CSystemConfig@@QAEHXZ 00414440 f   SystemConfig.obj
 0001:00013480       ?SetMinutesToReloginWhenLogoutByDisconnectToCfg@CSystemConfig@@QAEXH@Z 00414480 f   SystemConfig.obj
 0001:000134b0       ?GetReviveTypeFromCfg@CSystemConfig@@QAEHXZ 004144b0 f   SystemConfig.obj
 0001:000134e0       ?SetReviveTypeToCfg@CSystemConfig@@QAEXH@Z 004144e0 f   SystemConfig.obj
 0001:00013510       ?GetBindModeFromCfg@CSystemConfig@@QAEHXZ 00414510 f   SystemConfig.obj
 0001:00013540       ?SetBindModeToCfg@CSystemConfig@@QAEXH@Z 00414540 f   SystemConfig.obj
 0001:00013570       ?GetLoadMapMaxWaitSecondsFromCfg@CSystemConfig@@QAEHXZ 00414570 f   SystemConfig.obj
 0001:000135a0       ?SetLoadMapMaxWaitSecondsToCfg@CSystemConfig@@QAEXH@Z 004145a0 f   SystemConfig.obj
 0001:000135d0       ??0CUserConfig@@QAE@PB_W_N@Z 004145d0 f   UserConfig.obj
 0001:00013600       ??1CUserConfig@@QAE@XZ     00414600 f   UserConfig.obj
 0001:00013620       ?SetUserNameToCfg@CUserConfig@@QAEXAAV?$basic_string@_WU?$char_traits@_W@std@@V?$allocator@_W@2@@std@@@Z 00414620 f   UserConfig.obj
 0001:00013670       ?GetUserNameFromCfg@CUserConfig@@QAE?AV?$basic_string@_WU?$char_traits@_W@std@@V?$allocator@_W@2@@std@@XZ 00414670 f   UserConfig.obj
 0001:00013740       ?SetPasswordToCfg@CUserConfig@@QAEXAAV?$basic_string@_WU?$char_traits@_W@std@@V?$allocator@_W@2@@std@@@Z 00414740 f   UserConfig.obj
 0001:00013780       ?GetPasswordFromCfg@CUserConfig@@QAE?AV?$basic_string@_WU?$char_traits@_W@std@@V?$allocator@_W@2@@std@@XZ 00414780 f   UserConfig.obj
 0001:00013830       ?SetPlatformIdToCfg@CUserConfig@@QAEXH@Z 00414830 f   UserConfig.obj
 0001:00013860       ?GetPlatformIdFromCfg@CUserConfig@@QAEHXZ 00414860 f   UserConfig.obj
 0001:00013890       ?SetServerIdToCfg@CUserConfig@@QAEXH@Z 00414890 f   UserConfig.obj
 0001:000138c0       ?GetServerIdFromCfg@CUserConfig@@QAEHXZ 004148c0 f   UserConfig.obj
 0001:000138f0       ?SetCookieToCfg@CUserConfig@@QAEXAAV?$basic_string@_WU?$char_traits@_W@std@@V?$allocator@_W@2@@std@@@Z 004148f0 f   UserConfig.obj
 0001:00013930       ?GetCookieFromCfg@CUserConfig@@QAE?AV?$basic_string@_WU?$char_traits@_W@std@@V?$allocator@_W@2@@std@@XZ 00414930 f   UserConfig.obj
 0001:00013980       ?IsUseCookieFromCfg@CUserConfig@@QAEHXZ 00414980 f   UserConfig.obj
 0001:000139b0       ?SetIsUseCookieToCfg@CUserConfig@@QAEXH@Z 004149b0 f   UserConfig.obj
 0001:000139e0       ?IsChosenToStartFromCfg@CUserConfig@@QAEHXZ 004149e0 f   UserConfig.obj
 0001:00013a10       ?SetIsChosenToStartToCfg@CUserConfig@@QAEXH@Z 00414a10 f   UserConfig.obj
 0001:00013a40       ??0CWorldBossConfig@@QAE@PB_W_N@Z 00414a40 f   WorldBossConfig.obj
 0001:00013ab0       ??1CWorldBossConfig@@QAE@XZ 00414ab0 f   WorldBossConfig.obj
 0001:00013ad0       ?Init@CWorldBossConfig@@QAEXXZ 00414ad0 f   WorldBossConfig.obj
 0001:00013b10       ?IsWorldBossSelectedFromCfg@CWorldBossConfig@@QAEHXZ 00414b10 f   WorldBossConfig.obj
 0001:00013b30       ?SetIsWorldBossSelectedToCfg@CWorldBossConfig@@QAEXH@Z 00414b30 f   WorldBossConfig.obj
 0001:00013b50       ?SetWorldBossListSelectedToCfg@CWorldBossConfig@@QAEXAAV?$vector@HV?$allocator@H@std@@@std@@@Z 00414b50 f   WorldBossConfig.obj
 0001:00013b70       ?GetWorldBossSelectedListFromCfg@CWorldBossConfig@@QAE?AV?$vector@HV?$allocator@H@std@@@std@@XZ 00414b70 f   WorldBossConfig.obj
 0001:00013ba0       ?_GetBaseClass@CDlgSettingSecretary3@@KGPAUCRuntimeClass@@XZ 00414ba0 f   DlgAsuramSettings.obj
 0001:00013bb0       ?GetThisClass@CDlgSettingSecretary3@@SGPAUCRuntimeClass@@XZ 00414bb0 f   DlgAsuramSettings.obj
 0001:00013bc0       ?GetRuntimeClass@CDlgSettingSecretary3@@UBEPAUCRuntimeClass@@XZ 00414bc0 f   DlgAsuramSettings.obj
 0001:00013bd0       ??0CDlgSettingSecretary3@@QAE@PAVCWnd@@@Z 00414bd0 f   DlgAsuramSettings.obj
 0001:00013c60       ?OnOK@CDlgSettingSecretary3@@UAEXXZ 00414c60 f i DlgAsuramSettings.obj
 0001:00013c70       ?OnCancel@CDlgSettingSecretary3@@UAEXXZ 00414c70 f i DlgAsuramSettings.obj
 0001:00013c80       ??_GCDlgSettingSecretary3@@UAEPAXI@Z 00414c80 f i DlgAsuramSettings.obj
 0001:00013c80       ??_ECDlgSettingSecretary3@@UAEPAXI@Z 00414c80 f i DlgAsuramSettings.obj
 0001:00013cb0       ??1CDlgSettingSecretary3@@UAE@XZ 00414cb0 f   DlgAsuramSettings.obj
 0001:00013d30       ?DoDataExchange@CDlgSettingSecretary3@@MAEXPAVCDataExchange@@@Z 00414d30 f   DlgAsuramSettings.obj
 0001:00013d50       ?GetMessageMap@CDlgSettingSecretary3@@MBEPBUAFX_MSGMAP@@XZ 00414d50 f   DlgAsuramSettings.obj
 0001:00013d60       ?GetThisMessageMap@CDlgSettingSecretary3@@KGPBUAFX_MSGMAP@@XZ 00414d60 f   DlgAsuramSettings.obj
 0001:00013d70       ?OnInitDialog@CDlgSettingSecretary3@@UAEHXZ 00414d70 f   DlgAsuramSettings.obj
 0001:00013db0       ?OnCtlColor@CDlgSettingSecretary3@@QAEPAUHBRUSH__@@PAVCDC@@PAVCWnd@@I@Z 00414db0 f   DlgAsuramSettings.obj
 0001:00013df0       ?InitCtrls@CDlgSettingSecretary3@@QAEXXZ 00414df0 f   DlgAsuramSettings.obj
 0001:00013eb0       ?ReadIniToCtrls@CDlgSettingSecretary3@@QAEXXZ 00414eb0 f   DlgAsuramSettings.obj
 0001:00014010       ?SaveCtrlsToIni@CDlgSettingSecretary3@@QAEXXZ 00415010 f   DlgAsuramSettings.obj
 0001:00014150       ?InitBtns@CDlgSettingSecretary3@@QAEXXZ 00415150 f   DlgAsuramSettings.obj
 0001:00014180       ?CheckAll@CDlgSettingSecretary3@@QAEX_N@Z 00415180 f   DlgAsuramSettings.obj
 0001:000141d0       ?InitListBox@CDlgSettingSecretary3@@QAEXXZ 004151d0 f   DlgAsuramSettings.obj
 0001:000141e0       ?GetInsertIndexInList@CDlgSettingSecretary3@@QAEHHPAVCListBox@@@Z 004151e0 f   DlgAsuramSettings.obj
 0001:00014210       ?OnBnClickedChkAsuramSettingsSelAll@CDlgSettingSecretary3@@QAEXXZ 00415210 f   DlgAsuramSettings.obj
 0001:00014240       ?OnBnClickedBtnDel@CDlgSettingSecretary3@@QAEXXZ 00415240 f   DlgAsuramSettings.obj
 0001:00014260       ?OnBnClickedBtnAdd@CDlgSettingSecretary3@@QAEXXZ 00415260 f   DlgAsuramSettings.obj
 0001:00014280       ?_GetBaseClass@CDlgBeastBossSetting@@KGPAUCRuntimeClass@@XZ 00415280 f   DlgBeastBossSettings.obj
 0001:00014290       ?GetThisClass@CDlgBeastBossSetting@@SGPAUCRuntimeClass@@XZ 00415290 f   DlgBeastBossSettings.obj
 0001:000142a0       ?GetRuntimeClass@CDlgBeastBossSetting@@UBEPAUCRuntimeClass@@XZ 004152a0 f   DlgBeastBossSettings.obj
 0001:000142b0       ??0CDlgBeastBossSetting@@QAE@PAVCWnd@@@Z 004152b0 f   DlgBeastBossSettings.obj
 0001:00014320       ?OnOK@CDlgBeastBossSetting@@UAEXXZ 00415320 f i DlgBeastBossSettings.obj
 0001:00014330       ?OnCancel@CDlgBeastBossSetting@@UAEXXZ 00415330 f i DlgBeastBossSettings.obj
 0001:00014340       ??_GCDlgBeastBossSetting@@UAEPAXI@Z 00415340 f i DlgBeastBossSettings.obj
 0001:00014340       ??_ECDlgBeastBossSetting@@UAEPAXI@Z 00415340 f i DlgBeastBossSettings.obj
 0001:00014370       ??1CDlgBeastBossSetting@@UAE@XZ 00415370 f   DlgBeastBossSettings.obj
 0001:000143e0       ?DoDataExchange@CDlgBeastBossSetting@@MAEXPAVCDataExchange@@@Z 004153e0 f   DlgBeastBossSettings.obj
 0001:00014400       ?GetMessageMap@CDlgBeastBossSetting@@MBEPBUAFX_MSGMAP@@XZ 00415400 f   DlgBeastBossSettings.obj
 0001:00014410       ?GetThisMessageMap@CDlgBeastBossSetting@@KGPBUAFX_MSGMAP@@XZ 00415410 f   DlgBeastBossSettings.obj
 0001:00014420       ?OnInitDialog@CDlgBeastBossSetting@@UAEHXZ 00415420 f   DlgBeastBossSettings.obj
 0001:00014460       ?OnCtlColor@CDlgBeastBossSetting@@QAEPAUHBRUSH__@@PAVCDC@@PAVCWnd@@I@Z 00415460 f   DlgBeastBossSettings.obj
 0001:000144a0       ?InitCtrls@CDlgBeastBossSetting@@QAEXXZ 004154a0 f   DlgBeastBossSettings.obj
 0001:00014520       ?ReadIniToCtrls@CDlgBeastBossSetting@@QAEXXZ 00415520 f   DlgBeastBossSettings.obj
 0001:000145d0       ?SaveCtrlsToIni@CDlgBeastBossSetting@@QAEXXZ 004155d0 f   DlgBeastBossSettings.obj
 0001:00014690       ?InitListBox@CDlgBeastBossSetting@@QAEXXZ 00415690 f   DlgBeastBossSettings.obj
 0001:000146a0       ?OnBnClickedBtnSelect@CDlgBeastBossSetting@@QAEXXZ 004156a0 f   DlgBeastBossSettings.obj
 0001:000146c0       ?OnBnClickedBtnUnselect@CDlgBeastBossSetting@@QAEXXZ 004156c0 f   DlgBeastBossSettings.obj
 0001:000146e0       ?GetInsertIndexInList@CDlgBeastBossSetting@@QAEHHPAVCListBox@@@Z 004156e0 f   DlgBeastBossSettings.obj
 0001:00014700       ?_GetBaseClass@CDlgBossSettings@@KGPAUCRuntimeClass@@XZ 00415700 f   DlgBossSettings.obj
 0001:00014710       ?GetThisClass@CDlgBossSettings@@SGPAUCRuntimeClass@@XZ 00415710 f   DlgBossSettings.obj
 0001:00014720       ?GetRuntimeClass@CDlgBossSettings@@UBEPAUCRuntimeClass@@XZ 00415720 f   DlgBossSettings.obj
 0001:00014730       ??0CDlgBossSettings@@QAE@PAVCWnd@@@Z 00415730 f   DlgBossSettings.obj
 0001:00014860       ?OnOK@CDlgBossSettings@@UAEXXZ 00415860 f i DlgBossSettings.obj
 0001:00014870       ?OnCancel@CDlgBossSettings@@UAEXXZ 00415870 f i DlgBossSettings.obj
 0001:00014880       ?SetPlayerIndex@CDlgBossSettings@@QAEXH@Z 00415880 f i DlgBossSettings.obj
 0001:000148a0       ??_ECDlgBossSettings@@UAEPAXI@Z 004158a0 f i DlgBossSettings.obj
 0001:000148a0       ??_GCDlgBossSettings@@UAEPAXI@Z 004158a0 f i DlgBossSettings.obj
 0001:000148d0       ??1CDlgBossSettings@@UAE@XZ 004158d0 f   DlgBossSettings.obj
 0001:000149d0       ?DoDataExchange@CDlgBossSettings@@MAEXPAVCDataExchange@@@Z 004159d0 f   DlgBossSettings.obj
 0001:000149f0       ?GetMessageMap@CDlgBossSettings@@MBEPBUAFX_MSGMAP@@XZ 004159f0 f   DlgBossSettings.obj
 0001:00014a00       ?GetThisMessageMap@CDlgBossSettings@@KGPBUAFX_MSGMAP@@XZ 00415a00 f   DlgBossSettings.obj
 0001:00014a10       ?OnInitDialog@CDlgBossSettings@@UAEHXZ 00415a10 f   DlgBossSettings.obj
 0001:00014b50       ?OnCtlColor@CDlgBossSettings@@QAEPAUHBRUSH__@@PAVCDC@@PAVCWnd@@I@Z 00415b50 f   DlgBossSettings.obj
 0001:00014b80       ?InitCtrls@CDlgBossSettings@@QAEXXZ 00415b80 f   DlgBossSettings.obj
 0001:00014bf0       ?AddDlgsToTab@CDlgBossSettings@@AAEXXZ 00415bf0 f   DlgBossSettings.obj
 0001:00014c70       ?InitChildDlgs@CDlgBossSettings@@AAEXXZ 00415c70 f   DlgBossSettings.obj
 0001:00014e10       ?SetPlayerIndex@CDlgNeutralBossSetting@@QAEXH@Z 00415e10 f i DlgBossSettings.obj
 0001:00014e30       ?SetPlayerIndex@CDlgWorldBossSetting@@QAEXH@Z 00415e30 f i DlgBossSettings.obj
 0001:00014e50       ?SetPlayerIndex@CDlgCrossBossSetting@@QAEXH@Z 00415e50 f i DlgBossSettings.obj
 0001:00014e70       ?SetPlayerIndex@CDlgLocalCorpsBossSetting@@QAEXH@Z 00415e70 f i DlgBossSettings.obj
 0001:00014e90       ?SetPlayerIndex@CDlgCrossCorpsBossSetting@@QAEXH@Z 00415e90 f i DlgBossSettings.obj
 0001:00014eb0       ?SetPlayerIndex@CDlgBeastBossSetting@@QAEXH@Z 00415eb0 f i DlgBossSettings.obj
 0001:00014ed0       ?DestroyAllChildDlgs@CDlgBossSettings@@AAEXXZ 00415ed0 f   DlgBossSettings.obj
 0001:00014f20       ?ReadIniToCtrls@CDlgBossSettings@@QAEXXZ 00415f20 f   DlgBossSettings.obj
 0001:00015050       ?GetNeutralBossConfig@CGameConfig@@QAEPAVCNeutralBossConfig@@XZ 00416050 f i DlgBossSettings.obj
 0001:00015070       ?GetWorldBossConfig@CGameConfig@@QAEPAVCWorldBossConfig@@XZ 00416070 f i DlgBossSettings.obj
 0001:00015090       ?GetCrossBossConfig@CGameConfig@@QAEPAVCCrossBossConfig@@XZ 00416090 f i DlgBossSettings.obj
 0001:000150b0       ?GetLocalCorpsBossConfig@CGameConfig@@QAEPAVCLocalCorpsBossConfig@@XZ 004160b0 f i DlgBossSettings.obj
 0001:000150d0       ?GetCrossCorpsBossConfig@CGameConfig@@QAEPAVCCrossCorpsBossConfig@@XZ 004160d0 f i DlgBossSettings.obj
 0001:000150f0       ?SetConfigObjectAndReadToCtrls@CDlgNeutralBossSetting@@QAEXPAVCNeutralBossConfig@@@Z 004160f0 f i DlgBossSettings.obj
 0001:00015120       ?SetConfigObject@CDlgNeutralBossSetting@@QAEXPAVCNeutralBossConfig@@@Z 00416120 f i DlgBossSettings.obj
 0001:00015140       ?SetConfigObjectAndReadToCtrls@CDlgWorldBossSetting@@QAEXPAVCWorldBossConfig@@@Z 00416140 f i DlgBossSettings.obj
 0001:00015170       ?SetConfigObject@CDlgWorldBossSetting@@QAEXPAVCWorldBossConfig@@@Z 00416170 f i DlgBossSettings.obj
 0001:00015190       ?SetConfigObjectAndReadToCtrls@CDlgCrossBossSetting@@QAEXPAVCCrossBossConfig@@@Z 00416190 f i DlgBossSettings.obj
 0001:000151c0       ?SetConfigObject@CDlgCrossBossSetting@@QAEXPAVCCrossBossConfig@@@Z 004161c0 f i DlgBossSettings.obj
 0001:000151e0       ?SetConfigObjectAndReadToCtrls@CDlgLocalCorpsBossSetting@@QAEXPAVCLocalCorpsBossConfig@@@Z 004161e0 f i DlgBossSettings.obj
 0001:00015210       ?SetConfigObject@CDlgLocalCorpsBossSetting@@QAEXPAVCLocalCorpsBossConfig@@@Z 00416210 f i DlgBossSettings.obj
 0001:00015230       ?SetConfigObjectAndReadToCtrls@CDlgCrossCorpsBossSetting@@QAEXPAVCCrossCorpsBossConfig@@@Z 00416230 f i DlgBossSettings.obj
 0001:00015260       ?SetConfigObject@CDlgCrossCorpsBossSetting@@QAEXPAVCCrossCorpsBossConfig@@@Z 00416260 f i DlgBossSettings.obj
 0001:00015280       ?SaveCtrlsToIni@CDlgBossSettings@@QAEXXZ 00416280 f   DlgBossSettings.obj
 0001:000153b0       ?SetConfigObjectAndSaveCtrlsToIni@CDlgNeutralBossSetting@@QAEXPAVCNeutralBossConfig@@@Z 004163b0 f i DlgBossSettings.obj
 0001:000153e0       ?SetConfigObjectAndSaveCtrlsToIni@CDlgWorldBossSetting@@QAEXPAVCWorldBossConfig@@@Z 004163e0 f i DlgBossSettings.obj
 0001:00015410       ?SetConfigObjectAndSaveCtrlsToIni@CDlgCrossBossSetting@@QAEXPAVCCrossBossConfig@@@Z 00416410 f i DlgBossSettings.obj
 0001:00015440       ?SetConfigObjectAndSaveCtrlsToIni@CDlgLocalCorpsBossSetting@@QAEXPAVCLocalCorpsBossConfig@@@Z 00416440 f i DlgBossSettings.obj
 0001:00015470       ?SetConfigObjectAndSaveCtrlsToIni@CDlgCrossCorpsBossSetting@@QAEXPAVCCrossCorpsBossConfig@@@Z 00416470 f i DlgBossSettings.obj
 0001:000154a0       ?OnClose@CDlgBossSettings@@QAEXXZ 004164a0 f   DlgBossSettings.obj
 0001:000154d0       ?OnBnClickedBtnSave@CDlgBossSettings@@QAEXXZ 004164d0 f   DlgBossSettings.obj
 0001:00015500       ?OnTcnSelchangeTabBossSetings@CDlgBossSettings@@QAEXPAUtagNMHDR@@PAJ@Z 00416500 f   DlgBossSettings.obj
 0001:00015580       ?_GetBaseClass@CDlgSettingSecretary2@@KGPAUCRuntimeClass@@XZ 00416580 f   DlgBotSetttings.obj
 0001:00015590       ?GetThisClass@CDlgSettingSecretary2@@SGPAUCRuntimeClass@@XZ 00416590 f   DlgBotSetttings.obj
 0001:000155a0       ?GetRuntimeClass@CDlgSettingSecretary2@@UBEPAUCRuntimeClass@@XZ 004165a0 f   DlgBotSetttings.obj
 0001:000155b0       ??0CDlgSettingSecretary2@@QAE@PAVCWnd@@@Z 004165b0 f   DlgBotSetttings.obj
 0001:00015640       ?OnOK@CDlgSettingSecretary2@@UAEXXZ 00416640 f i DlgBotSetttings.obj
 0001:00015650       ?OnCancel@CDlgSettingSecretary2@@UAEXXZ 00416650 f i DlgBotSetttings.obj
 0001:00015660       ??_GCDlgSettingSecretary2@@UAEPAXI@Z 00416660 f i DlgBotSetttings.obj
 0001:00015660       ??_ECDlgSettingSecretary2@@UAEPAXI@Z 00416660 f i DlgBotSetttings.obj
 0001:00015690       ??1CDlgSettingSecretary2@@UAE@XZ 00416690 f   DlgBotSetttings.obj
 0001:00015710       ?DoDataExchange@CDlgSettingSecretary2@@MAEXPAVCDataExchange@@@Z 00416710 f   DlgBotSetttings.obj
 0001:00015730       ?GetMessageMap@CDlgSettingSecretary2@@MBEPBUAFX_MSGMAP@@XZ 00416730 f   DlgBotSetttings.obj
 0001:00015740       ?GetThisMessageMap@CDlgSettingSecretary2@@KGPBUAFX_MSGMAP@@XZ 00416740 f   DlgBotSetttings.obj
 0001:00015750       ?OnInitDialog@CDlgSettingSecretary2@@UAEHXZ 00416750 f   DlgBotSetttings.obj
 0001:00015790       ?OnCtlColor@CDlgSettingSecretary2@@QAEPAUHBRUSH__@@PAVCDC@@PAVCWnd@@I@Z 00416790 f   DlgBotSetttings.obj
 0001:000157d0       ?ReadIniToCtrls@CDlgSettingSecretary2@@QAEXXZ 004167d0 f   DlgBotSetttings.obj
 0001:00015970       ?SaveCtrlsToIni@CDlgSettingSecretary2@@QAEXXZ 00416970 f   DlgBotSetttings.obj
 0001:00015ad0       ?InitCtrls@CDlgSettingSecretary2@@QAEXXZ 00416ad0 f   DlgBotSetttings.obj
 0001:00015bb0       ?InitBtns@CDlgSettingSecretary2@@QAEXXZ 00416bb0 f   DlgBotSetttings.obj
 0001:00015c20       ?InitListBox@CDlgSettingSecretary2@@AAEXXZ 00416c20 f   DlgBotSetttings.obj
 0001:00015c30       ?GetInsertIndexInList@CDlgSettingSecretary2@@AAEHHPAVCListBox@@@Z 00416c30 f   DlgBotSetttings.obj
 0001:00015c60       ?CheckAll@CDlgSettingSecretary2@@QAEX_N@Z 00416c60 f   DlgBotSetttings.obj
 0001:00015cb0       ?OnBnClickedChkBotSettingsSelAll@CDlgSettingSecretary2@@QAEXXZ 00416cb0 f   DlgBotSetttings.obj
 0001:00015ce0       ?OnBnClickedBtnDel@CDlgSettingSecretary2@@QAEXXZ 00416ce0 f   DlgBotSetttings.obj
 0001:00015cf0       ?OnBnClickedBtnAdd@CDlgSettingSecretary2@@QAEXXZ 00416cf0 f   DlgBotSetttings.obj
 0001:00015d00       ?_GetBaseClass@CDlgCrossBossSetting@@KGPAUCRuntimeClass@@XZ 00416d00 f   DlgCrossBossSettings.obj
 0001:00015d10       ?GetThisClass@CDlgCrossBossSetting@@SGPAUCRuntimeClass@@XZ 00416d10 f   DlgCrossBossSettings.obj
 0001:00015d20       ?GetRuntimeClass@CDlgCrossBossSetting@@UBEPAUCRuntimeClass@@XZ 00416d20 f   DlgCrossBossSettings.obj
 0001:00015d30       ??0CDlgCrossBossSetting@@QAE@PAVCWnd@@@Z 00416d30 f   DlgCrossBossSettings.obj
 0001:00015da0       ?OnOK@CDlgCrossBossSetting@@UAEXXZ 00416da0 f i DlgCrossBossSettings.obj
 0001:00015db0       ?OnCancel@CDlgCrossBossSetting@@UAEXXZ 00416db0 f i DlgCrossBossSettings.obj
 0001:00015dc0       ??_ECDlgCrossBossSetting@@UAEPAXI@Z 00416dc0 f i DlgCrossBossSettings.obj
 0001:00015dc0       ??_GCDlgCrossBossSetting@@UAEPAXI@Z 00416dc0 f i DlgCrossBossSettings.obj
 0001:00015df0       ??1CDlgCrossBossSetting@@UAE@XZ 00416df0 f   DlgCrossBossSettings.obj
 0001:00015e60       ?DoDataExchange@CDlgCrossBossSetting@@MAEXPAVCDataExchange@@@Z 00416e60 f   DlgCrossBossSettings.obj
 0001:00015e80       ?GetMessageMap@CDlgCrossBossSetting@@MBEPBUAFX_MSGMAP@@XZ 00416e80 f   DlgCrossBossSettings.obj
 0001:00015e90       ?GetThisMessageMap@CDlgCrossBossSetting@@KGPBUAFX_MSGMAP@@XZ 00416e90 f   DlgCrossBossSettings.obj
 0001:00015ea0       ?OnInitDialog@CDlgCrossBossSetting@@UAEHXZ 00416ea0 f   DlgCrossBossSettings.obj
 0001:00015ee0       ?OnCtlColor@CDlgCrossBossSetting@@QAEPAUHBRUSH__@@PAVCDC@@PAVCWnd@@I@Z 00416ee0 f   DlgCrossBossSettings.obj
 0001:00015f20       ?InitCtrls@CDlgCrossBossSetting@@QAEXXZ 00416f20 f   DlgCrossBossSettings.obj
 0001:00015fc0       ?ReadIniToCtrls@CDlgCrossBossSetting@@QAEXXZ 00416fc0 f   DlgCrossBossSettings.obj
 0001:000160b0       ?SaveCtrlsToIni@CDlgCrossBossSetting@@QAEXXZ 004170b0 f   DlgCrossBossSettings.obj
 0001:00016190       ?InitListBox@CDlgCrossBossSetting@@QAEXXZ 00417190 f   DlgCrossBossSettings.obj
 0001:000161a0       ?OnBnClickedBtnSelect@CDlgCrossBossSetting@@QAEXXZ 004171a0 f   DlgCrossBossSettings.obj
 0001:00016230       ?OnBnClickedBtnUnselect@CDlgCrossBossSetting@@QAEXXZ 00417230 f   DlgCrossBossSettings.obj
 0001:00016250       ?GetInsertIndexInList@CDlgCrossBossSetting@@QAEHHPAVCListBox@@@Z 00417250 f   DlgCrossBossSettings.obj
 0001:00016280       ??0?$CArray@HH@@QAE@XZ     00417280 f i DlgCrossBossSettings.obj
 0001:000162d0       ?SetSize@?$CArray@HH@@QAEXHH@Z 004172d0 f i DlgCrossBossSettings.obj
 0001:000166e0       ?memcpy_s@Checked@ATL@@YAXPAXIPBXI@Z 004176e0 f i DlgCrossBossSettings.obj
 0001:00016710       ?AfxCrtErrorCheck@@YAHH@Z  00417710 f i DlgCrossBossSettings.obj
 0001:000167c0       ?GetData@?$CArray@HH@@QAEPAHXZ 004177c0 f i DlgCrossBossSettings.obj
 0001:000167e0       ??1?$CArray@HH@@UAE@XZ     004177e0 f i DlgCrossBossSettings.obj
 0001:00016890       ?Serialize@?$CArray@HH@@UAEXAAVCArchive@@@Z 00417890 f i DlgCrossBossSettings.obj
 0001:00016910       ?Dump@?$CArray@HH@@UBEXAAVCDumpContext@@@Z 00417910 f i DlgCrossBossSettings.obj
 0001:00016990       ?AssertValid@?$CArray@HH@@UBEXXZ 00417990 f i DlgCrossBossSettings.obj
 0001:00016a80       ??_E?$CArray@HH@@UAEPAXI@Z 00417a80 f i DlgCrossBossSettings.obj
 0001:00016a80       ??_G?$CArray@HH@@UAEPAXI@Z 00417a80 f i DlgCrossBossSettings.obj
 0001:00016ab0       ??$SerializeElements@H@@YGXAAVCArchive@@PAHH@Z 00417ab0 f i DlgCrossBossSettings.obj
 0001:00016c00       ??$DumpElements@H@@YGXAAVCDumpContext@@PBHH@Z 00417c00 f i DlgCrossBossSettings.obj
 0001:00016c90       ?_GetBaseClass@CDlgCrossCorpsBossSetting@@KGPAUCRuntimeClass@@XZ 00417c90 f   DlgCrossCorpsBossSettings.obj
 0001:00016ca0       ?GetThisClass@CDlgCrossCorpsBossSetting@@SGPAUCRuntimeClass@@XZ 00417ca0 f   DlgCrossCorpsBossSettings.obj
 0001:00016cb0       ?GetRuntimeClass@CDlgCrossCorpsBossSetting@@UBEPAUCRuntimeClass@@XZ 00417cb0 f   DlgCrossCorpsBossSettings.obj
 0001:00016cc0       ??0CDlgCrossCorpsBossSetting@@QAE@PAVCWnd@@@Z 00417cc0 f   DlgCrossCorpsBossSettings.obj
 0001:00016d30       ?OnOK@CDlgCrossCorpsBossSetting@@UAEXXZ 00417d30 f i DlgCrossCorpsBossSettings.obj
 0001:00016d40       ?OnCancel@CDlgCrossCorpsBossSetting@@UAEXXZ 00417d40 f i DlgCrossCorpsBossSettings.obj
 0001:00016d50       ??_ECDlgCrossCorpsBossSetting@@UAEPAXI@Z 00417d50 f i DlgCrossCorpsBossSettings.obj
 0001:00016d50       ??_GCDlgCrossCorpsBossSetting@@UAEPAXI@Z 00417d50 f i DlgCrossCorpsBossSettings.obj
 0001:00016d80       ??1CDlgCrossCorpsBossSetting@@UAE@XZ 00417d80 f   DlgCrossCorpsBossSettings.obj
 0001:00016df0       ?DoDataExchange@CDlgCrossCorpsBossSetting@@MAEXPAVCDataExchange@@@Z 00417df0 f   DlgCrossCorpsBossSettings.obj
 0001:00016e10       ?GetMessageMap@CDlgCrossCorpsBossSetting@@MBEPBUAFX_MSGMAP@@XZ 00417e10 f   DlgCrossCorpsBossSettings.obj
 0001:00016e20       ?GetThisMessageMap@CDlgCrossCorpsBossSetting@@KGPBUAFX_MSGMAP@@XZ 00417e20 f   DlgCrossCorpsBossSettings.obj
 0001:00016e30       ?OnInitDialog@CDlgCrossCorpsBossSetting@@UAEHXZ 00417e30 f   DlgCrossCorpsBossSettings.obj
 0001:00016e70       ?OnCtlColor@CDlgCrossCorpsBossSetting@@QAEPAUHBRUSH__@@PAVCDC@@PAVCWnd@@I@Z 00417e70 f   DlgCrossCorpsBossSettings.obj
 0001:00016eb0       ?InitCtrls@CDlgCrossCorpsBossSetting@@QAEXXZ 00417eb0 f   DlgCrossCorpsBossSettings.obj
 0001:00016f40       ?ReadIniToCtrls@CDlgCrossCorpsBossSetting@@QAEXXZ 00417f40 f   DlgCrossCorpsBossSettings.obj
 0001:00016ff0       ?SaveCtrlsToIni@CDlgCrossCorpsBossSetting@@QAEXXZ 00417ff0 f   DlgCrossCorpsBossSettings.obj
 0001:000170d0       ?InitListBox@CDlgCrossCorpsBossSetting@@QAEXXZ 004180d0 f   DlgCrossCorpsBossSettings.obj
 0001:000170e0       ?OnBnClickedBtnSelect@CDlgCrossCorpsBossSetting@@QAEXXZ 004180e0 f   DlgCrossCorpsBossSettings.obj
 0001:00017100       ?OnBnClickedBtnUnselect@CDlgCrossCorpsBossSetting@@QAEXXZ 00418100 f   DlgCrossCorpsBossSettings.obj
 0001:00017120       ?GetInsertIndexInList@CDlgCrossCorpsBossSetting@@QAEHHPAVCListBox@@@Z 00418120 f   DlgCrossCorpsBossSettings.obj
 0001:00017150       ?_GetBaseClass@CDlgSettingSecretary1@@KGPAUCRuntimeClass@@XZ 00418150 f   DlgDailyTaskSettings.obj
 0001:00017160       ?GetThisClass@CDlgSettingSecretary1@@SGPAUCRuntimeClass@@XZ 00418160 f   DlgDailyTaskSettings.obj
 0001:00017170       ?GetRuntimeClass@CDlgSettingSecretary1@@UBEPAUCRuntimeClass@@XZ 00418170 f   DlgDailyTaskSettings.obj
 0001:00017180       ??0CDlgSettingSecretary1@@QAE@PAVCWnd@@@Z 00418180 f   DlgDailyTaskSettings.obj
 0001:000171f0       ?OnOK@CDlgSettingSecretary1@@UAEXXZ 004181f0 f i DlgDailyTaskSettings.obj
 0001:00017200       ?OnCancel@CDlgSettingSecretary1@@UAEXXZ 00418200 f i DlgDailyTaskSettings.obj
 0001:00017210       ??_ECDlgSettingSecretary1@@UAEPAXI@Z 00418210 f i DlgDailyTaskSettings.obj
 0001:00017210       ??_GCDlgSettingSecretary1@@UAEPAXI@Z 00418210 f i DlgDailyTaskSettings.obj
 0001:00017240       ??1CDlgSettingSecretary1@@UAE@XZ 00418240 f   DlgDailyTaskSettings.obj
 0001:000172b0       ?DoDataExchange@CDlgSettingSecretary1@@MAEXPAVCDataExchange@@@Z 004182b0 f   DlgDailyTaskSettings.obj
 0001:000172d0       ?GetMessageMap@CDlgSettingSecretary1@@MBEPBUAFX_MSGMAP@@XZ 004182d0 f   DlgDailyTaskSettings.obj
 0001:000172e0       ?GetThisMessageMap@CDlgSettingSecretary1@@KGPBUAFX_MSGMAP@@XZ 004182e0 f   DlgDailyTaskSettings.obj
 0001:000172f0       ?OnInitDialog@CDlgSettingSecretary1@@UAEHXZ 004182f0 f   DlgDailyTaskSettings.obj
 0001:00017330       ?OnCtlColor@CDlgSettingSecretary1@@QAEPAUHBRUSH__@@PAVCDC@@PAVCWnd@@I@Z 00418330 f   DlgDailyTaskSettings.obj
 0001:00017370       ?InitCtrls@CDlgSettingSecretary1@@QAEXXZ 00418370 f   DlgDailyTaskSettings.obj
 0001:00017510       ?ReadIniToCtrls@CDlgSettingSecretary1@@QAEXXZ 00418510 f   DlgDailyTaskSettings.obj
 0001:00017680       ?SaveCtrlsToIni@CDlgSettingSecretary1@@QAEXXZ 00418680 f   DlgDailyTaskSettings.obj
 0001:00017810       ?InitBtns@CDlgSettingSecretary1@@QAEXXZ 00418810 f   DlgDailyTaskSettings.obj
 0001:00017860       ?CheckAll@CDlgSettingSecretary1@@QAEX_N@Z 00418860 f   DlgDailyTaskSettings.obj
 0001:000178b0       ?OnBnClickedChkDailyTaskSelAll@CDlgSettingSecretary1@@QAEXXZ 004188b0 f   DlgDailyTaskSettings.obj
 0001:000178e0       ?InitCombo@CDlgSettingSecretary1@@QAEXXZ 004188e0 f   DlgDailyTaskSettings.obj
 0001:00017990       ?InitMapList@CDlgSettingSecretary1@@QAEXHPAVCComboBox@@@Z 00418990 f   DlgDailyTaskSettings.obj
 0001:000179a0       ?OnCbnSelchangeCbArenaMultiCount@CDlgSettingSecretary1@@QAEXXZ 004189a0 f   DlgDailyTaskSettings.obj
 0001:000179e0       ?OnBnClickedBtnReadCurRoleCoor@CDlgSettingSecretary1@@QAEXXZ 004189e0 f   DlgDailyTaskSettings.obj
 0001:00017b90       ?_GetBaseClass@CDlgGiftHallSettings@@KGPAUCRuntimeClass@@XZ 00418b90 f   DlgGiftHallSettings.obj
 0001:00017ba0       ?GetThisClass@CDlgGiftHallSettings@@SGPAUCRuntimeClass@@XZ 00418ba0 f   DlgGiftHallSettings.obj
 0001:00017bb0       ?GetRuntimeClass@CDlgGiftHallSettings@@UBEPAUCRuntimeClass@@XZ 00418bb0 f   DlgGiftHallSettings.obj
 0001:00017bc0       ??0CDlgGiftHallSettings@@QAE@PAVCWnd@@@Z 00418bc0 f   DlgGiftHallSettings.obj
 0001:00017c30       ?OnOK@CDlgGiftHallSettings@@UAEXXZ 00418c30 f i DlgGiftHallSettings.obj
 0001:00017c40       ?OnCancel@CDlgGiftHallSettings@@UAEXXZ 00418c40 f i DlgGiftHallSettings.obj
 0001:00017c50       ??_ECDlgGiftHallSettings@@UAEPAXI@Z 00418c50 f i DlgGiftHallSettings.obj
 0001:00017c50       ??_GCDlgGiftHallSettings@@UAEPAXI@Z 00418c50 f i DlgGiftHallSettings.obj
 0001:00017c80       ??1CDlgGiftHallSettings@@UAE@XZ 00418c80 f   DlgGiftHallSettings.obj
 0001:00017cf0       ?DoDataExchange@CDlgGiftHallSettings@@MAEXPAVCDataExchange@@@Z 00418cf0 f   DlgGiftHallSettings.obj
 0001:00017d10       ?GetMessageMap@CDlgGiftHallSettings@@MBEPBUAFX_MSGMAP@@XZ 00418d10 f   DlgGiftHallSettings.obj
 0001:00017d20       ?GetThisMessageMap@CDlgGiftHallSettings@@KGPBUAFX_MSGMAP@@XZ 00418d20 f   DlgGiftHallSettings.obj
 0001:00017d30       ?OnInitDialog@CDlgGiftHallSettings@@UAEHXZ 00418d30 f   DlgGiftHallSettings.obj
 0001:00017d70       ?OnCtlColor@CDlgGiftHallSettings@@QAEPAUHBRUSH__@@PAVCDC@@PAVCWnd@@I@Z 00418d70 f   DlgGiftHallSettings.obj
 0001:00017db0       ?InitCtrls@CDlgGiftHallSettings@@QAEXXZ 00418db0 f   DlgGiftHallSettings.obj
 0001:00017f10       ?ReadIniToCtrls@CDlgGiftHallSettings@@QAEXXZ 00418f10 f   DlgGiftHallSettings.obj
 0001:000180c0       ?SaveCtrlsToIni@CDlgGiftHallSettings@@QAEXXZ 004190c0 f   DlgGiftHallSettings.obj
 0001:00018270       ?InitBtns@CDlgGiftHallSettings@@QAEXXZ 00419270 f   DlgGiftHallSettings.obj
 0001:00018330       ?CheckAll@CDlgGiftHallSettings@@QAEX_N@Z 00419330 f   DlgGiftHallSettings.obj
 0001:00018370       ?OnBnClickedChkGiftHallSelAll@CDlgGiftHallSettings@@QAEXXZ 00419370 f   DlgGiftHallSettings.obj
 0001:000183a0       ?_GetBaseClass@CDlgLocalCorpsBossSetting@@KGPAUCRuntimeClass@@XZ 004193a0 f   DlgLocalCorpsBossSettings.obj
 0001:000183b0       ?GetThisClass@CDlgLocalCorpsBossSetting@@SGPAUCRuntimeClass@@XZ 004193b0 f   DlgLocalCorpsBossSettings.obj
 0001:000183c0       ?GetRuntimeClass@CDlgLocalCorpsBossSetting@@UBEPAUCRuntimeClass@@XZ 004193c0 f   DlgLocalCorpsBossSettings.obj
 0001:000183d0       ??0CDlgLocalCorpsBossSetting@@QAE@PAVCWnd@@@Z 004193d0 f   DlgLocalCorpsBossSettings.obj
 0001:00018440       ?OnOK@CDlgLocalCorpsBossSetting@@UAEXXZ 00419440 f i DlgLocalCorpsBossSettings.obj
 0001:00018450       ?OnCancel@CDlgLocalCorpsBossSetting@@UAEXXZ 00419450 f i DlgLocalCorpsBossSettings.obj
 0001:00018460       ??_GCDlgLocalCorpsBossSetting@@UAEPAXI@Z 00419460 f i DlgLocalCorpsBossSettings.obj
 0001:00018460       ??_ECDlgLocalCorpsBossSetting@@UAEPAXI@Z 00419460 f i DlgLocalCorpsBossSettings.obj
 0001:00018490       ??1CDlgLocalCorpsBossSetting@@UAE@XZ 00419490 f   DlgLocalCorpsBossSettings.obj
 0001:00018500       ?DoDataExchange@CDlgLocalCorpsBossSetting@@MAEXPAVCDataExchange@@@Z 00419500 f   DlgLocalCorpsBossSettings.obj
 0001:00018520       ?GetMessageMap@CDlgLocalCorpsBossSetting@@MBEPBUAFX_MSGMAP@@XZ 00419520 f   DlgLocalCorpsBossSettings.obj
 0001:00018530       ?GetThisMessageMap@CDlgLocalCorpsBossSetting@@KGPBUAFX_MSGMAP@@XZ 00419530 f   DlgLocalCorpsBossSettings.obj
 0001:00018540       ?OnInitDialog@CDlgLocalCorpsBossSetting@@UAEHXZ 00419540 f   DlgLocalCorpsBossSettings.obj
 0001:00018580       ?OnCtlColor@CDlgLocalCorpsBossSetting@@QAEPAUHBRUSH__@@PAVCDC@@PAVCWnd@@I@Z 00419580 f   DlgLocalCorpsBossSettings.obj
 0001:000185c0       ?InitCtrls@CDlgLocalCorpsBossSetting@@QAEXXZ 004195c0 f   DlgLocalCorpsBossSettings.obj
 0001:00018650       ?ReadIniToCtrls@CDlgLocalCorpsBossSetting@@QAEXXZ 00419650 f   DlgLocalCorpsBossSettings.obj
 0001:00018720       ?SaveCtrlsToIni@CDlgLocalCorpsBossSetting@@QAEXXZ 00419720 f   DlgLocalCorpsBossSettings.obj
 0001:00018800       ?InitListBox@CDlgLocalCorpsBossSetting@@QAEXXZ 00419800 f   DlgLocalCorpsBossSettings.obj
 0001:00018810       ?OnBnClickedBtnSelect@CDlgLocalCorpsBossSetting@@QAEXXZ 00419810 f   DlgLocalCorpsBossSettings.obj
 0001:00018830       ?OnBnClickedBtnUnselect@CDlgLocalCorpsBossSetting@@QAEXXZ 00419830 f   DlgLocalCorpsBossSettings.obj
 0001:00018850       ?GetInsertIndexInList@CDlgLocalCorpsBossSetting@@QAEHHPAVCListBox@@@Z 00419850 f   DlgLocalCorpsBossSettings.obj
 0001:00018880       ?_GetBaseClass@CDlgNeutralBossSetting@@KGPAUCRuntimeClass@@XZ 00419880 f   DlgNeutralBossSetting.obj
 0001:00018890       ?GetThisClass@CDlgNeutralBossSetting@@SGPAUCRuntimeClass@@XZ 00419890 f   DlgNeutralBossSetting.obj
 0001:000188a0       ?GetRuntimeClass@CDlgNeutralBossSetting@@UBEPAUCRuntimeClass@@XZ 004198a0 f   DlgNeutralBossSetting.obj
 0001:000188b0       ??0CDlgNeutralBossSetting@@QAE@PAVCWnd@@@Z 004198b0 f   DlgNeutralBossSetting.obj
 0001:00018920       ?OnOK@CDlgNeutralBossSetting@@UAEXXZ 00419920 f i DlgNeutralBossSetting.obj
 0001:00018930       ?OnCancel@CDlgNeutralBossSetting@@UAEXXZ 00419930 f i DlgNeutralBossSetting.obj
 0001:00018940       ??_ECDlgNeutralBossSetting@@UAEPAXI@Z 00419940 f i DlgNeutralBossSetting.obj
 0001:00018940       ??_GCDlgNeutralBossSetting@@UAEPAXI@Z 00419940 f i DlgNeutralBossSetting.obj
 0001:00018970       ??1CDlgNeutralBossSetting@@UAE@XZ 00419970 f   DlgNeutralBossSetting.obj
 0001:000189e0       ?DoDataExchange@CDlgNeutralBossSetting@@MAEXPAVCDataExchange@@@Z 004199e0 f   DlgNeutralBossSetting.obj
 0001:00018a00       ?GetMessageMap@CDlgNeutralBossSetting@@MBEPBUAFX_MSGMAP@@XZ 00419a00 f   DlgNeutralBossSetting.obj
 0001:00018a10       ?GetThisMessageMap@CDlgNeutralBossSetting@@KGPBUAFX_MSGMAP@@XZ 00419a10 f   DlgNeutralBossSetting.obj
 0001:00018a20       ?OnInitDialog@CDlgNeutralBossSetting@@UAEHXZ 00419a20 f   DlgNeutralBossSetting.obj
 0001:00018a60       ?OnCtlColor@CDlgNeutralBossSetting@@QAEPAUHBRUSH__@@PAVCDC@@PAVCWnd@@I@Z 00419a60 f   DlgNeutralBossSetting.obj
 0001:00018aa0       ?InitCtrls@CDlgNeutralBossSetting@@QAEXXZ 00419aa0 f   DlgNeutralBossSetting.obj
 0001:00018b50       ?ReadIniToCtrls@CDlgNeutralBossSetting@@QAEXXZ 00419b50 f   DlgNeutralBossSetting.obj
 0001:00018c20       ?SaveCtrlsToIni@CDlgNeutralBossSetting@@QAEXXZ 00419c20 f   DlgNeutralBossSetting.obj
 0001:00018d00       ?InitCombo@CDlgNeutralBossSetting@@QAEXXZ 00419d00 f   DlgNeutralBossSetting.obj
 0001:00018d20       ?InitListBox@CDlgNeutralBossSetting@@QAEXXZ 00419d20 f   DlgNeutralBossSetting.obj
 0001:00018d30       ?InitListCtrl@CDlgNeutralBossSetting@@QAEXXZ 00419d30 f   DlgNeutralBossSetting.obj
 0001:00018d80       ?OnBnClickedBtnSelect@CDlgNeutralBossSetting@@QAEXXZ 00419d80 f   DlgNeutralBossSetting.obj
 0001:00018da0       ?OnBnClickedBtnUnselect@CDlgNeutralBossSetting@@QAEXXZ 00419da0 f   DlgNeutralBossSetting.obj
 0001:00018dc0       ?GetInsertIndexInList@CDlgNeutralBossSetting@@QAEHHPAVCListBox@@@Z 00419dc0 f   DlgNeutralBossSetting.obj
 0001:00018de0       ?OnLbnDblclkListNeutralBossSelect@CDlgNeutralBossSetting@@QAEXXZ 00419de0 f   DlgNeutralBossSetting.obj
 0001:00018df0       ?OnNMDblclkLstBossPoint@CDlgNeutralBossSetting@@QAEXPAUtagNMHDR@@PAJ@Z 00419df0 f   DlgNeutralBossSetting.obj
 0001:00018e10       ?OnLbnSelchangeListNeutralBossSelect@CDlgNeutralBossSetting@@QAEXXZ 00419e10 f   DlgNeutralBossSetting.obj
 0001:00018e30       ?InitBossPointByConfigId@CDlgNeutralBossSetting@@QAEXH@Z 00419e30 f   DlgNeutralBossSetting.obj
 0001:00018e40       ?OnCbnSelchangeCbBossMap1@CDlgNeutralBossSetting@@QAEXXZ 00419e40 f   DlgNeutralBossSetting.obj
 0001:00018e60       ?_GetBaseClass@CDlgOtherSetting@@KGPAUCRuntimeClass@@XZ 00419e60 f   DlgOtherSetting.obj
 0001:00018e70       ?GetThisClass@CDlgOtherSetting@@SGPAUCRuntimeClass@@XZ 00419e70 f   DlgOtherSetting.obj
 0001:00018e80       ?GetRuntimeClass@CDlgOtherSetting@@UBEPAUCRuntimeClass@@XZ 00419e80 f   DlgOtherSetting.obj
 0001:00018e90       ??0CDlgOtherSetting@@QAE@PAVCWnd@@@Z 00419e90 f   DlgOtherSetting.obj
 0001:00018f60       ?OnOK@CDlgOtherSetting@@UAEXXZ 00419f60 f i DlgOtherSetting.obj
 0001:00018f70       ?OnCancel@CDlgOtherSetting@@UAEXXZ 00419f70 f i DlgOtherSetting.obj
 0001:00018f80       ?SetIndex@CDlgOtherSetting@@QAEXH@Z 00419f80 f i DlgOtherSetting.obj
 0001:00018fa0       ??_GCDlgOtherSetting@@UAEPAXI@Z 00419fa0 f i DlgOtherSetting.obj
 0001:00018fa0       ??_ECDlgOtherSetting@@UAEPAXI@Z 00419fa0 f i DlgOtherSetting.obj
 0001:00018fd0       ??1CDlgOtherSetting@@UAE@XZ 00419fd0 f   DlgOtherSetting.obj
 0001:00019070       ?DoDataExchange@CDlgOtherSetting@@MAEXPAVCDataExchange@@@Z 0041a070 f   DlgOtherSetting.obj
 0001:00019090       ?GetMessageMap@CDlgOtherSetting@@MBEPBUAFX_MSGMAP@@XZ 0041a090 f   DlgOtherSetting.obj
 0001:000190a0       ?GetThisMessageMap@CDlgOtherSetting@@KGPBUAFX_MSGMAP@@XZ 0041a0a0 f   DlgOtherSetting.obj
 0001:000190b0       ?OnInitDialog@CDlgOtherSetting@@UAEHXZ 0041a0b0 f   DlgOtherSetting.obj
 0001:000191f0       ?OnBnClickedBtnSave@CDlgOtherSetting@@QAEXXZ 0041a1f0 f   DlgOtherSetting.obj
 0001:00019210       ?OnTcnSelchangeTabOtherSetting@CDlgOtherSetting@@QAEXPAUtagNMHDR@@PAJ@Z 0041a210 f   DlgOtherSetting.obj
 0001:00019290       ?OnClose@CDlgOtherSetting@@QAEXXZ 0041a290 f   DlgOtherSetting.obj
 0001:000192c0       ?InitCtrls@CDlgOtherSetting@@QAEXXZ 0041a2c0 f   DlgOtherSetting.obj
 0001:00019320       ?InitChildDlgs@CDlgOtherSetting@@QAEXXZ 0041a320 f   DlgOtherSetting.obj
 0001:000193a0       ?SetCareer@CDlgSkillSetting@@QAEXH@Z 0041a3a0 f i DlgOtherSetting.obj
 0001:000193c0       ?ReadIniToCtrls@CDlgOtherSetting@@QAEXXZ 0041a3c0 f   DlgOtherSetting.obj
 0001:000194a0       ?GetSystemConfig@CGameConfig@@QAEPAVCSystemConfig@@XZ 0041a4a0 f i DlgOtherSetting.obj
 0001:000194c0       ?GetGiftHallConfig@CGameConfig@@QAEPAVCGiftHallConfig@@XZ 0041a4c0 f i DlgOtherSetting.obj
 0001:000194e0       ?GetSkillConfig@CGameConfig@@QAEPAVCSkillConfig@@XZ 0041a4e0 f i DlgOtherSetting.obj
 0001:00019500       ?SetConfigObjectAndReadToCtrls@CDlgSystemSettings@@QAEXPAVCSystemConfig@@@Z 0041a500 f i DlgOtherSetting.obj
 0001:00019530       ?SetConfigObject@CDlgSystemSettings@@QAEXPAVCSystemConfig@@@Z 0041a530 f i DlgOtherSetting.obj
 0001:00019550       ?SetConfigObjectAndReadToCtrls@CDlgGiftHallSettings@@QAEXPAVCGiftHallConfig@@@Z 0041a550 f i DlgOtherSetting.obj
 0001:00019580       ?SetConfigObject@CDlgGiftHallSettings@@QAEXPAVCGiftHallConfig@@@Z 0041a580 f i DlgOtherSetting.obj
 0001:000195a0       ?SetConfigObjectAndReadToCtrls@CDlgSkillSetting@@QAEXPAVCSkillConfig@@@Z 0041a5a0 f i DlgOtherSetting.obj
 0001:000195d0       ?SetConfigObject@CDlgSkillSetting@@QAEXPAVCSkillConfig@@@Z 0041a5d0 f i DlgOtherSetting.obj
 0001:000195f0       ?SaveCtrlsToIni@CDlgOtherSetting@@QAEXXZ 0041a5f0 f   DlgOtherSetting.obj
 0001:000196e0       ?SetConfigObjectAndSaveCtrlsToIni@CDlgSystemSettings@@QAEXPAVCSystemConfig@@@Z 0041a6e0 f i DlgOtherSetting.obj
 0001:00019710       ?SetConfigObjectAndSaveCtrlsToIni@CDlgGiftHallSettings@@QAEXPAVCGiftHallConfig@@@Z 0041a710 f i DlgOtherSetting.obj
 0001:00019740       ?SetConfigObjectAndSaveCtrlsToIni@CDlgSkillSetting@@QAEXPAVCSkillConfig@@@Z 0041a740 f i DlgOtherSetting.obj
 0001:00019770       ?DestroyAllChildDlgs@CDlgOtherSetting@@QAEXXZ 0041a770 f   DlgOtherSetting.obj
 0001:000197c0       ?_GetBaseClass@CDlgBossAssistSettings@@KGPAUCRuntimeClass@@XZ 0041a7c0 f   DlgOtherTaskSettings.obj
 0001:000197d0       ?GetThisClass@CDlgBossAssistSettings@@SGPAUCRuntimeClass@@XZ 0041a7d0 f   DlgOtherTaskSettings.obj
 0001:000197e0       ?GetRuntimeClass@CDlgBossAssistSettings@@UBEPAUCRuntimeClass@@XZ 0041a7e0 f   DlgOtherTaskSettings.obj
 0001:000197f0       ??0CDlgBossAssistSettings@@QAE@PAVCWnd@@@Z 0041a7f0 f   DlgOtherTaskSettings.obj
 0001:00019860       ?OnOK@CDlgBossAssistSettings@@UAEXXZ 0041a860 f i DlgOtherTaskSettings.obj
 0001:00019870       ?OnCancel@CDlgBossAssistSettings@@UAEXXZ 0041a870 f i DlgOtherTaskSettings.obj
 0001:00019880       ??_GCDlgBossAssistSettings@@UAEPAXI@Z 0041a880 f i DlgOtherTaskSettings.obj
 0001:00019880       ??_ECDlgBossAssistSettings@@UAEPAXI@Z 0041a880 f i DlgOtherTaskSettings.obj
 0001:000198b0       ??1CDlgBossAssistSettings@@UAE@XZ 0041a8b0 f   DlgOtherTaskSettings.obj
 0001:00019920       ?DoDataExchange@CDlgBossAssistSettings@@MAEXPAVCDataExchange@@@Z 0041a920 f   DlgOtherTaskSettings.obj
 0001:00019940       ?GetMessageMap@CDlgBossAssistSettings@@MBEPBUAFX_MSGMAP@@XZ 0041a940 f   DlgOtherTaskSettings.obj
 0001:00019950       ?GetThisMessageMap@CDlgBossAssistSettings@@KGPBUAFX_MSGMAP@@XZ 0041a950 f   DlgOtherTaskSettings.obj
 0001:00019960       ?OnInitDialog@CDlgBossAssistSettings@@UAEHXZ 0041a960 f   DlgOtherTaskSettings.obj
 0001:000199a0       ?OnCtlColor@CDlgBossAssistSettings@@QAEPAUHBRUSH__@@PAVCDC@@PAVCWnd@@I@Z 0041a9a0 f   DlgOtherTaskSettings.obj
 0001:000199e0       ?InitCtrls@CDlgBossAssistSettings@@QAEXXZ 0041a9e0 f   DlgOtherTaskSettings.obj
 0001:00019af0       ?ReadIniToCtrls@CDlgBossAssistSettings@@QAEXXZ 0041aaf0 f   DlgOtherTaskSettings.obj
 0001:00019cb0       ?SaveCtrlsToIni@CDlgBossAssistSettings@@QAEXXZ 0041acb0 f   DlgOtherTaskSettings.obj
 0001:00019e40       ?InitBtns@CDlgBossAssistSettings@@QAEXXZ 0041ae40 f   DlgOtherTaskSettings.obj
 0001:00019ed0       ?CheckAll@CDlgBossAssistSettings@@QAEX_N@Z 0041aed0 f   DlgOtherTaskSettings.obj
 0001:00019f10       ?OnBnClickedChkOtherTaskSelAll@CDlgBossAssistSettings@@QAEXXZ 0041af10 f   DlgOtherTaskSettings.obj
 0001:00019f40       ?_GetBaseClass@CDlgSecretarySettings@@KGPAUCRuntimeClass@@XZ 0041af40 f   DlgSettings.obj
 0001:00019f50       ?GetThisClass@CDlgSecretarySettings@@SGPAUCRuntimeClass@@XZ 0041af50 f   DlgSettings.obj
 0001:00019f60       ?GetRuntimeClass@CDlgSecretarySettings@@UBEPAUCRuntimeClass@@XZ 0041af60 f   DlgSettings.obj
 0001:00019f70       ??0CDlgSecretarySettings@@QAE@PAVCWnd@@@Z 0041af70 f   DlgSettings.obj
 0001:0001a080       ?SetAddUser@CDlgSecretarySettings@@QAEX_N@Z 0041b080 f i DlgSettings.obj
 0001:0001a0a0       ?OnOK@CDlgSecretarySettings@@UAEXXZ 0041b0a0 f i DlgSettings.obj
 0001:0001a0b0       ?OnCancel@CDlgSecretarySettings@@UAEXXZ 0041b0b0 f i DlgSettings.obj
 0001:0001a0c0       ?SetMainHwnd@CDlgSecretarySettings@@QAEXPAUHWND__@@@Z 0041b0c0 f i DlgSettings.obj
 0001:0001a0e0       ?SetIndex@CDlgSecretarySettings@@QAEXH@Z 0041b0e0 f i DlgSettings.obj
 0001:0001a100       ??_ECDlgSecretarySettings@@UAEPAXI@Z 0041b100 f i DlgSettings.obj
 0001:0001a100       ??_GCDlgSecretarySettings@@UAEPAXI@Z 0041b100 f i DlgSettings.obj
 0001:0001a130       ??1CDlgSecretarySettings@@UAE@XZ 0041b130 f   DlgSettings.obj
 0001:0001a1f0       ?DoDataExchange@CDlgSecretarySettings@@MAEXPAVCDataExchange@@@Z 0041b1f0 f   DlgSettings.obj
 0001:0001a210       ?GetMessageMap@CDlgSecretarySettings@@MBEPBUAFX_MSGMAP@@XZ 0041b210 f   DlgSettings.obj
 0001:0001a220       ?GetThisMessageMap@CDlgSecretarySettings@@KGPBUAFX_MSGMAP@@XZ 0041b220 f   DlgSettings.obj
 0001:0001a230       ?InitCtrls@CDlgSecretarySettings@@QAEXXZ 0041b230 f   DlgSettings.obj
 0001:0001a290       ?AddDlgsToTab@CDlgSecretarySettings@@QAEXXZ 0041b290 f   DlgSettings.obj
 0001:0001a2b0       ?InitChildDlgs@CDlgSecretarySettings@@QAEXXZ 0041b2b0 f   DlgSettings.obj
 0001:0001a350       ?DestroyAllChildDlgs@CDlgSecretarySettings@@QAEXXZ 0041b350 f   DlgSettings.obj
 0001:0001a3a0       ?OnTcnSelchangeTabSettings@CDlgSecretarySettings@@QAEXPAUtagNMHDR@@PAJ@Z 0041b3a0 f   DlgSettings.obj
 0001:0001a420       ?OnClose@CDlgSecretarySettings@@QAEXXZ 0041b420 f   DlgSettings.obj
 0001:0001a450       ?OnInitDialog@CDlgSecretarySettings@@UAEHXZ 0041b450 f   DlgSettings.obj
 0001:0001a580       ?ReadIniToCtrls@CDlgSecretarySettings@@QAEXXZ 0041b580 f   DlgSettings.obj
 0001:0001a6f0       ?GetConfigSecretary2@CGameConfig@@QAEPAVCConfigSecretary2@@XZ 0041b6f0 f i DlgSettings.obj
 0001:0001a710       ?SetConfigObjectAndReadToCtrls@CDlgSettingSecretary2@@QAEXPAVCConfigSecretary2@@@Z 0041b710 f i DlgSettings.obj
 0001:0001a740       ?SetConfigObject@CDlgSettingSecretary2@@QAEXPAVCConfigSecretary2@@@Z 0041b740 f i DlgSettings.obj
 0001:0001a760       ?SetConfigObjectAndReadToCtrls@CDlgSettingSecretary1@@QAEXPAVCConfigSecretary1@@@Z 0041b760 f i DlgSettings.obj
 0001:0001a790       ?SetConfigObject@CDlgSettingSecretary1@@QAEXPAVCConfigSecretary1@@@Z 0041b790 f i DlgSettings.obj
 0001:0001a7b0       ?GetAccountName@CDlgSecretarySettings@@QAE?AV?$basic_string@_WU?$char_traits@_W@std@@V?$allocator@_W@2@@std@@XZ 0041b7b0 f i DlgSettings.obj
 0001:0001a7f0       ?SaveCtrlsToIni@CDlgSecretarySettings@@QAEXXZ 0041b7f0 f   DlgSettings.obj
 0001:0001a8f0       ?SetConfigObjectAndSaveCtrlsToIni@CDlgSettingSecretary2@@QAEXPAVCConfigSecretary2@@@Z 0041b8f0 f i DlgSettings.obj
 0001:0001a920       ?SetConfigObjectAndSaveCtrlsToIni@CDlgSettingSecretary1@@QAEXPAVCConfigSecretary1@@@Z 0041b920 f i DlgSettings.obj
 0001:0001a950       ?OnBnClickedOk@CDlgSecretarySettings@@QAEXXZ 0041b950 f   DlgSettings.obj
 0001:0001ab70       ?SetSectionName@CConfig@@QAEXPB_W@Z 0041bb70 f i DlgSettings.obj
 0001:0001ab90       ?GetUserConfig@CGameConfig@@QAEPAVCUserConfig@@XZ 0041bb90 f i DlgSettings.obj
 0001:0001abb0       ?IsAddUser@CDlgSecretarySettings@@QAE_NXZ 0041bbb0 f i DlgSettings.obj
 0001:0001abd0       ?GetIndex@CDlgSecretarySettings@@QAEHXZ 0041bbd0 f i DlgSettings.obj
 0001:0001abf0       ?SetAccountName@CAccountInfo@@QAEXAAV?$basic_string@_WU?$char_traits@_W@std@@V?$allocator@_W@2@@std@@@Z 0041bbf0 f i DlgSettings.obj
 0001:0001ac10       ?SetServerId@CAccountInfo@@QAEXH@Z 0041bc10 f i DlgSettings.obj
 0001:0001ac30       ?SetPlatformIndex@CAccountInfo@@QAEXH@Z 0041bc30 f i DlgSettings.obj
 0001:0001ac50       ?SetIndex@CAccountInfo@@QAEXH@Z 0041bc50 f i DlgSettings.obj
 0001:0001ac70       ?SendMsgToMainWin@CDlgSecretarySettings@@QAEXIJ@Z 0041bc70 f   DlgSettings.obj
 0001:0001aca0       ?SetPlayerPointer@CDlgSecretarySettings@@QAEXPAVCPlayer@@@Z 0041bca0 f   DlgSettings.obj
 0001:0001acc0       ?SetPlayer@CDlgSettingSecretary1@@QAEXPAVCPlayer@@@Z 0041bcc0 f i DlgSettings.obj
 0001:0001ace0       ?_GetBaseClass@CDlgSettingSecretary4@@KGPAUCRuntimeClass@@XZ 0041bce0 f   DlgSettingSecretary4.obj
 0001:0001acf0       ?GetThisClass@CDlgSettingSecretary4@@SGPAUCRuntimeClass@@XZ 0041bcf0 f   DlgSettingSecretary4.obj
 0001:0001ad00       ?GetRuntimeClass@CDlgSettingSecretary4@@UBEPAUCRuntimeClass@@XZ 0041bd00 f   DlgSettingSecretary4.obj
 0001:0001ad10       ??0CDlgSettingSecretary4@@QAE@PAVCWnd@@@Z 0041bd10 f   DlgSettingSecretary4.obj
 0001:0001ad80       ?OnOK@CDlgSettingSecretary4@@UAEXXZ 0041bd80 f i DlgSettingSecretary4.obj
 0001:0001ad90       ?OnCancel@CDlgSettingSecretary4@@UAEXXZ 0041bd90 f i DlgSettingSecretary4.obj
 0001:0001ada0       ??_ECDlgSettingSecretary4@@UAEPAXI@Z 0041bda0 f i DlgSettingSecretary4.obj
 0001:0001ada0       ??_GCDlgSettingSecretary4@@UAEPAXI@Z 0041bda0 f i DlgSettingSecretary4.obj
 0001:0001add0       ??1CDlgSettingSecretary4@@UAE@XZ 0041bdd0 f   DlgSettingSecretary4.obj
 0001:0001ae30       ?DoDataExchange@CDlgSettingSecretary4@@MAEXPAVCDataExchange@@@Z 0041be30 f   DlgSettingSecretary4.obj
 0001:0001ae50       ?GetMessageMap@CDlgSettingSecretary4@@MBEPBUAFX_MSGMAP@@XZ 0041be50 f   DlgSettingSecretary4.obj
 0001:0001ae60       ?GetThisMessageMap@CDlgSettingSecretary4@@KGPBUAFX_MSGMAP@@XZ 0041be60 f   DlgSettingSecretary4.obj
 0001:0001ae70       ?OnInitDialog@CDlgSettingSecretary4@@UAEHXZ 0041be70 f   DlgSettingSecretary4.obj
 0001:0001aea0       ?OnCtlColor@CDlgSettingSecretary4@@QAEPAUHBRUSH__@@PAVCDC@@PAVCWnd@@I@Z 0041bea0 f   DlgSettingSecretary4.obj
 0001:0001aee0       ?InitCtrls@CDlgSettingSecretary4@@QAEXXZ 0041bee0 f   DlgSettingSecretary4.obj
 0001:0001b0b0       ?ReadIniToCtrls@CDlgSettingSecretary4@@QAEXXZ 0041c0b0 f   DlgSettingSecretary4.obj
 0001:0001b3e0       ?SaveCtrlsToIni@CDlgSettingSecretary4@@QAEXXZ 0041c3e0 f   DlgSettingSecretary4.obj
 0001:0001b6f0       ?InitBtns@CDlgSettingSecretary4@@QAEXXZ 0041c6f0 f   DlgSettingSecretary4.obj
 0001:0001b860       ?_GetBaseClass@CDlgSettingSecretary5@@KGPAUCRuntimeClass@@XZ 0041c860 f   DlgSettingSecretary5.obj
 0001:0001b870       ?GetThisClass@CDlgSettingSecretary5@@SGPAUCRuntimeClass@@XZ 0041c870 f   DlgSettingSecretary5.obj
 0001:0001b880       ?GetRuntimeClass@CDlgSettingSecretary5@@UBEPAUCRuntimeClass@@XZ 0041c880 f   DlgSettingSecretary5.obj
 0001:0001b890       ??0CDlgSettingSecretary5@@QAE@PAVCWnd@@@Z 0041c890 f   DlgSettingSecretary5.obj
 0001:0001b900       ?OnOK@CDlgSettingSecretary5@@UAEXXZ 0041c900 f i DlgSettingSecretary5.obj
 0001:0001b910       ?OnCancel@CDlgSettingSecretary5@@UAEXXZ 0041c910 f i DlgSettingSecretary5.obj
 0001:0001b920       ??_ECDlgSettingSecretary5@@UAEPAXI@Z 0041c920 f i DlgSettingSecretary5.obj
 0001:0001b920       ??_GCDlgSettingSecretary5@@UAEPAXI@Z 0041c920 f i DlgSettingSecretary5.obj
 0001:0001b950       ??1CDlgSettingSecretary5@@UAE@XZ 0041c950 f   DlgSettingSecretary5.obj
 0001:0001b9b0       ?DoDataExchange@CDlgSettingSecretary5@@MAEXPAVCDataExchange@@@Z 0041c9b0 f   DlgSettingSecretary5.obj
 0001:0001b9d0       ?GetMessageMap@CDlgSettingSecretary5@@MBEPBUAFX_MSGMAP@@XZ 0041c9d0 f   DlgSettingSecretary5.obj
 0001:0001b9e0       ?GetThisMessageMap@CDlgSettingSecretary5@@KGPBUAFX_MSGMAP@@XZ 0041c9e0 f   DlgSettingSecretary5.obj
 0001:0001b9f0       ?OnInitDialog@CDlgSettingSecretary5@@UAEHXZ 0041c9f0 f   DlgSettingSecretary5.obj
 0001:0001ba20       ?OnCtlColor@CDlgSettingSecretary5@@QAEPAUHBRUSH__@@PAVCDC@@PAVCWnd@@I@Z 0041ca20 f   DlgSettingSecretary5.obj
 0001:0001ba60       ?InitCtrls@CDlgSettingSecretary5@@QAEXXZ 0041ca60 f   DlgSettingSecretary5.obj
 0001:0001bbc0       ?ReadIniToCtrls@CDlgSettingSecretary5@@QAEXXZ 0041cbc0 f   DlgSettingSecretary5.obj
 0001:0001be20       ?SaveCtrlsToIni@CDlgSettingSecretary5@@QAEXXZ 0041ce20 f   DlgSettingSecretary5.obj
 0001:0001c070       ?CheckAll@CDlgSettingSecretary5@@QAEX_N@Z 0041d070 f   DlgSettingSecretary5.obj
 0001:0001c080       ?InitBtns@CDlgSettingSecretary5@@QAEXXZ 0041d080 f   DlgSettingSecretary5.obj
 0001:0001c090       ?_GetBaseClass@CDlgSkillSetting@@KGPAUCRuntimeClass@@XZ 0041d090 f   DlgSkillSetting.obj
 0001:0001c0a0       ?GetThisClass@CDlgSkillSetting@@SGPAUCRuntimeClass@@XZ 0041d0a0 f   DlgSkillSetting.obj
 0001:0001c0b0       ?GetRuntimeClass@CDlgSkillSetting@@UBEPAUCRuntimeClass@@XZ 0041d0b0 f   DlgSkillSetting.obj
 0001:0001c0c0       ??0CDlgSkillSetting@@QAE@PAVCWnd@@@Z 0041d0c0 f   DlgSkillSetting.obj
 0001:0001c170       ??_ECDlgSkillSetting@@UAEPAXI@Z 0041d170 f i DlgSkillSetting.obj
 0001:0001c170       ??_GCDlgSkillSetting@@UAEPAXI@Z 0041d170 f i DlgSkillSetting.obj
 0001:0001c1a0       ??1CDlgSkillSetting@@UAE@XZ 0041d1a0 f   DlgSkillSetting.obj
 0001:0001c220       ?DoDataExchange@CDlgSkillSetting@@MAEXPAVCDataExchange@@@Z 0041d220 f   DlgSkillSetting.obj
 0001:0001c240       ?GetMessageMap@CDlgSkillSetting@@MBEPBUAFX_MSGMAP@@XZ 0041d240 f   DlgSkillSetting.obj
 0001:0001c250       ?GetThisMessageMap@CDlgSkillSetting@@KGPBUAFX_MSGMAP@@XZ 0041d250 f   DlgSkillSetting.obj
 0001:0001c260       ?InitCtrls@CDlgSkillSetting@@QAEXXZ 0041d260 f   DlgSkillSetting.obj
 0001:0001c320       ?ReadIniToCtrls@CDlgSkillSetting@@QAEXXZ 0041d320 f   DlgSkillSetting.obj
 0001:0001c420       ?SaveCtrlsToIni@CDlgSkillSetting@@QAEXXZ 0041d420 f   DlgSkillSetting.obj
 0001:0001c4f0       ?InitListBox@CDlgSkillSetting@@QAEXXZ 0041d4f0 f   DlgSkillSetting.obj
 0001:0001c510       ?InitComboBox@CDlgSkillSetting@@QAEXXZ 0041d510 f   DlgSkillSetting.obj
 0001:0001c520       ?OnBnClickedBtnDel@CDlgSkillSetting@@QAEXXZ 0041d520 f   DlgSkillSetting.obj
 0001:0001c540       ?OnBnClickedBtnAdd@CDlgSkillSetting@@QAEXXZ 0041d540 f   DlgSkillSetting.obj
 0001:0001c560       ?OnCbnSelchangeCbSkillJob@CDlgSkillSetting@@QAEXXZ 0041d560 f   DlgSkillSetting.obj
 0001:0001c580       ?GetInsertIndexInList@CDlgSkillSetting@@QAEHHPAVCListBox@@@Z 0041d580 f   DlgSkillSetting.obj
 0001:0001c5b0       ?OnInitDialog@CDlgSkillSetting@@UAEHXZ 0041d5b0 f   DlgSkillSetting.obj
 0001:0001c5d0       ?ClearListBoxShow@CDlgSkillSetting@@QAEXPAVCListBox@@@Z 0041d5d0 f   DlgSkillSetting.obj
 0001:0001c610       ?OnBnClickedBtnSelExist@CDlgSkillSetting@@QAEXXZ 0041d610 f   DlgSkillSetting.obj
 0001:0001c620       ?_GetBaseClass@CDlgSystemSettings@@KGPAUCRuntimeClass@@XZ 0041d620 f   DlgSystemSettings.obj
 0001:0001c630       ?GetThisClass@CDlgSystemSettings@@SGPAUCRuntimeClass@@XZ 0041d630 f   DlgSystemSettings.obj
 0001:0001c640       ?GetRuntimeClass@CDlgSystemSettings@@UBEPAUCRuntimeClass@@XZ 0041d640 f   DlgSystemSettings.obj
 0001:0001c650       ??0CDlgSystemSettings@@QAE@PAVCWnd@@@Z 0041d650 f   DlgSystemSettings.obj
 0001:0001c6c0       ?OnOK@CDlgSystemSettings@@UAEXXZ 0041d6c0 f i DlgSystemSettings.obj
 0001:0001c6d0       ?OnCancel@CDlgSystemSettings@@UAEXXZ 0041d6d0 f i DlgSystemSettings.obj
 0001:0001c6e0       ??_GCDlgSystemSettings@@UAEPAXI@Z 0041d6e0 f i DlgSystemSettings.obj
 0001:0001c6e0       ??_ECDlgSystemSettings@@UAEPAXI@Z 0041d6e0 f i DlgSystemSettings.obj
 0001:0001c710       ??1CDlgSystemSettings@@UAE@XZ 0041d710 f   DlgSystemSettings.obj
 0001:0001c780       ?DoDataExchange@CDlgSystemSettings@@MAEXPAVCDataExchange@@@Z 0041d780 f   DlgSystemSettings.obj
 0001:0001c7a0       ?GetMessageMap@CDlgSystemSettings@@MBEPBUAFX_MSGMAP@@XZ 0041d7a0 f   DlgSystemSettings.obj
 0001:0001c7b0       ?GetThisMessageMap@CDlgSystemSettings@@KGPBUAFX_MSGMAP@@XZ 0041d7b0 f   DlgSystemSettings.obj
 0001:0001c7c0       ?OnInitDialog@CDlgSystemSettings@@UAEHXZ 0041d7c0 f   DlgSystemSettings.obj
 0001:0001c800       ?OnCtlColor@CDlgSystemSettings@@QAEPAUHBRUSH__@@PAVCDC@@PAVCWnd@@I@Z 0041d800 f   DlgSystemSettings.obj
 0001:0001c840       ?InitCtrls@CDlgSystemSettings@@QAEXXZ 0041d840 f   DlgSystemSettings.obj
 0001:0001c8d0       ?ReadIniToCtrls@CDlgSystemSettings@@QAEXXZ 0041d8d0 f   DlgSystemSettings.obj
 0001:0001c9f0       ?SaveCtrlsToIni@CDlgSystemSettings@@QAEXXZ 0041d9f0 f   DlgSystemSettings.obj
 0001:0001cb20       ?_GetBaseClass@CDlgUserSettings@@KGPAUCRuntimeClass@@XZ 0041db20 f   DlgUserSettings.obj
 0001:0001cb30       ?GetThisClass@CDlgUserSettings@@SGPAUCRuntimeClass@@XZ 0041db30 f   DlgUserSettings.obj
 0001:0001cb40       ?GetRuntimeClass@CDlgUserSettings@@UBEPAUCRuntimeClass@@XZ 0041db40 f   DlgUserSettings.obj
 0001:0001cb50       ??0CDlgUserSettings@@QAE@PAVCWnd@@@Z 0041db50 f   DlgUserSettings.obj
 0001:0001cc20       ?SetAddUser@CDlgUserSettings@@QAEX_N@Z 0041dc20 f i DlgUserSettings.obj
 0001:0001cc40       ?OnOK@CDlgUserSettings@@UAEXXZ 0041dc40 f i DlgUserSettings.obj
 0001:0001cc50       ?OnCancel@CDlgUserSettings@@UAEXXZ 0041dc50 f i DlgUserSettings.obj
 0001:0001cc60       ??_GCDlgUserSettings@@UAEPAXI@Z 0041dc60 f i DlgUserSettings.obj
 0001:0001cc60       ??_ECDlgUserSettings@@UAEPAXI@Z 0041dc60 f i DlgUserSettings.obj
 0001:0001cc90       ??1CDlgUserSettings@@UAE@XZ 0041dc90 f   DlgUserSettings.obj
 0001:0001cd50       ??_GCGameConfig@@QAEPAXI@Z 0041dd50 f i DlgUserSettings.obj
 0001:0001cd80       ?DoDataExchange@CDlgUserSettings@@MAEXPAVCDataExchange@@@Z 0041dd80 f   DlgUserSettings.obj
 0001:0001cda0       ?GetMessageMap@CDlgUserSettings@@MBEPBUAFX_MSGMAP@@XZ 0041dda0 f   DlgUserSettings.obj
 0001:0001cdb0       ?GetThisMessageMap@CDlgUserSettings@@KGPBUAFX_MSGMAP@@XZ 0041ddb0 f   DlgUserSettings.obj
 0001:0001cdc0       ?OnInitDialog@CDlgUserSettings@@UAEHXZ 0041ddc0 f   DlgUserSettings.obj
 0001:0001cea0       ?SetConfigObject@CDlgUserSettings@@QAEXPAVCUserConfig@@@Z 0041dea0 f i DlgUserSettings.obj
 0001:0001cec0       ?OnCtlColor@CDlgUserSettings@@QAEPAUHBRUSH__@@PAVCDC@@PAVCWnd@@I@Z 0041dec0 f   DlgUserSettings.obj
 0001:0001cf00       ?InitCtrls@CDlgUserSettings@@QAEXXZ 0041df00 f   DlgUserSettings.obj
 0001:0001cf90       ?InitCombo@CDlgUserSettings@@QAEXXZ 0041df90 f   DlgUserSettings.obj
 0001:0001d120       ?GetCfgFileName@CPlatformConfig@@QAEPA_WXZ 0041e120 f i DlgUserSettings.obj
 0001:0001d140       ??1?$_Vector_iterator@U?$pair@V?$basic_string@_WU?$char_traits@_W@std@@V?$allocator@_W@2@@std@@V12@@std@@V?$allocator@U?$pair@V?$basic_string@_WU?$char_traits@_W@std@@V?$allocator@_W@2@@std@@V12@@std@@@2@@std@@QAE@XZ 0041e140 f i DlgUserSettings.obj
 0001:0001d160       ?ReadIniToCtrls@CDlgUserSettings@@QAEXXZ 0041e160 f   DlgUserSettings.obj
 0001:0001d2f0       ?SaveCtrlsToIni@CDlgUserSettings@@QAEXXZ 0041e2f0 f   DlgUserSettings.obj
 0001:0001d4f0       ?OnBnClickedBtnConfirm@CDlgUserSettings@@QAEXXZ 0041e4f0 f   DlgUserSettings.obj
 0001:0001d630       ?IsAddUser@CDlgUserSettings@@QAE_NXZ 0041e630 f i DlgUserSettings.obj
 0001:0001d650       ?GetIndex@CDlgUserSettings@@QAEHXZ 0041e650 f i DlgUserSettings.obj
 0001:0001d670       ?OnClose@CDlgUserSettings@@QAEXXZ 0041e670 f   DlgUserSettings.obj
 0001:0001d690       ?CheckValid@CDlgUserSettings@@QAE_NXZ 0041e690 f   DlgUserSettings.obj
 0001:0001d790       ?begin@?$vector@U?$pair@V?$basic_string@_WU?$char_traits@_W@std@@V?$allocator@_W@2@@std@@V12@@std@@V?$allocator@U?$pair@V?$basic_string@_WU?$char_traits@_W@std@@V?$allocator@_W@2@@std@@V12@@std@@@2@@std@@QAE?AV?$_Vector_iterator@U?$pair@V?$basic_string@_WU?$char_traits@_W@std@@V?$allocator@_W@2@@std@@V12@@std@@V?$allocator@U?$pair@V?$basic_string@_WU?$char_traits@_W@std@@V?$allocator@_W@2@@std@@V12@@std@@@2@@2@XZ 0041e790 f i DlgUserSettings.obj
 0001:0001d7d0       ?end@?$vector@U?$pair@V?$basic_string@_WU?$char_traits@_W@std@@V?$allocator@_W@2@@std@@V12@@std@@V?$allocator@U?$pair@V?$basic_string@_WU?$char_traits@_W@std@@V?$allocator@_W@2@@std@@V12@@std@@@2@@std@@QAE?AV?$_Vector_iterator@U?$pair@V?$basic_string@_WU?$char_traits@_W@std@@V?$allocator@_W@2@@std@@V12@@std@@V?$allocator@U?$pair@V?$basic_string@_WU?$char_traits@_W@std@@V?$allocator@_W@2@@std@@V12@@std@@@2@@2@XZ 0041e7d0 f i DlgUserSettings.obj
 0001:0001d810       ??C?$_Vector_iterator@U?$pair@V?$basic_string@_WU?$char_traits@_W@std@@V?$allocator@_W@2@@std@@V12@@std@@V?$allocator@U?$pair@V?$basic_string@_WU?$char_traits@_W@std@@V?$allocator@_W@2@@std@@V12@@std@@@2@@std@@QBEPAU?$pair@V?$basic_string@_WU?$char_traits@_W@std@@V?$allocator@_W@2@@std@@V12@@1@XZ 0041e810 f i DlgUserSettings.obj
 0001:0001d830       ??E?$_Vector_iterator@U?$pair@V?$basic_string@_WU?$char_traits@_W@std@@V?$allocator@_W@2@@std@@V12@@std@@V?$allocator@U?$pair@V?$basic_string@_WU?$char_traits@_W@std@@V?$allocator@_W@2@@std@@V12@@std@@@2@@std@@QAEAAV01@XZ 0041e830 f i DlgUserSettings.obj
 0001:0001d850       ??0?$_Vector_iterator@U?$pair@V?$basic_string@_WU?$char_traits@_W@std@@V?$allocator@_W@2@@std@@V12@@std@@V?$allocator@U?$pair@V?$basic_string@_WU?$char_traits@_W@std@@V?$allocator@_W@2@@std@@V12@@std@@@2@@std@@QAE@PAU?$pair@V?$basic_string@_WU?$char_traits@_W@std@@V?$allocator@_W@2@@std@@V12@@1@PBV_Container_base_secure@1@@Z 0041e850 f i DlgUserSettings.obj
 0001:0001d870       ??D?$_Vector_iterator@U?$pair@V?$basic_string@_WU?$char_traits@_W@std@@V?$allocator@_W@2@@std@@V12@@std@@V?$allocator@U?$pair@V?$basic_string@_WU?$char_traits@_W@std@@V?$allocator@_W@2@@std@@V12@@std@@@2@@std@@QBEAAU?$pair@V?$basic_string@_WU?$char_traits@_W@std@@V?$allocator@_W@2@@std@@V12@@1@XZ 0041e870 f i DlgUserSettings.obj
 0001:0001d890       ?_GetBaseClass@CDlgWorldBossSetting@@KGPAUCRuntimeClass@@XZ 0041e890 f   DlgWorldBossSetting.obj
 0001:0001d8a0       ?GetThisClass@CDlgWorldBossSetting@@SGPAUCRuntimeClass@@XZ 0041e8a0 f   DlgWorldBossSetting.obj
 0001:0001d8b0       ?GetRuntimeClass@CDlgWorldBossSetting@@UBEPAUCRuntimeClass@@XZ 0041e8b0 f   DlgWorldBossSetting.obj
 0001:0001d8c0       ??0CDlgWorldBossSetting@@QAE@PAVCWnd@@@Z 0041e8c0 f   DlgWorldBossSetting.obj
 0001:0001d930       ?OnOK@CDlgWorldBossSetting@@UAEXXZ 0041e930 f i DlgWorldBossSetting.obj
 0001:0001d940       ?OnCancel@CDlgWorldBossSetting@@UAEXXZ 0041e940 f i DlgWorldBossSetting.obj
 0001:0001d950       ??_GCDlgWorldBossSetting@@UAEPAXI@Z 0041e950 f i DlgWorldBossSetting.obj
 0001:0001d950       ??_ECDlgWorldBossSetting@@UAEPAXI@Z 0041e950 f i DlgWorldBossSetting.obj
 0001:0001d980       ??1CDlgWorldBossSetting@@UAE@XZ 0041e980 f   DlgWorldBossSetting.obj
 0001:0001d9f0       ?DoDataExchange@CDlgWorldBossSetting@@MAEXPAVCDataExchange@@@Z 0041e9f0 f   DlgWorldBossSetting.obj
 0001:0001da10       ?GetMessageMap@CDlgWorldBossSetting@@MBEPBUAFX_MSGMAP@@XZ 0041ea10 f   DlgWorldBossSetting.obj
 0001:0001da20       ?GetThisMessageMap@CDlgWorldBossSetting@@KGPBUAFX_MSGMAP@@XZ 0041ea20 f   DlgWorldBossSetting.obj
 0001:0001da30       ?OnInitDialog@CDlgWorldBossSetting@@UAEHXZ 0041ea30 f   DlgWorldBossSetting.obj
 0001:0001da70       ?OnCtlColor@CDlgWorldBossSetting@@QAEPAUHBRUSH__@@PAVCDC@@PAVCWnd@@I@Z 0041ea70 f   DlgWorldBossSetting.obj
 0001:0001dab0       ?InitCtrls@CDlgWorldBossSetting@@QAEXXZ 0041eab0 f   DlgWorldBossSetting.obj
 0001:0001db40       ?ReadIniToCtrls@CDlgWorldBossSetting@@QAEXXZ 0041eb40 f   DlgWorldBossSetting.obj
 0001:0001dc50       ?SaveCtrlsToIni@CDlgWorldBossSetting@@QAEXXZ 0041ec50 f   DlgWorldBossSetting.obj
 0001:0001dd30       ?InitListBox@CDlgWorldBossSetting@@QAEXXZ 0041ed30 f   DlgWorldBossSetting.obj
 0001:0001dd40       ?OnBnClickedBtnSelect@CDlgWorldBossSetting@@QAEXXZ 0041ed40 f   DlgWorldBossSetting.obj
 0001:0001dd60       ?OnBnClickedBtnUnselect@CDlgWorldBossSetting@@QAEXXZ 0041ed60 f   DlgWorldBossSetting.obj
 0001:0001dd80       ?GetInsertIndexInList@CDlgWorldBossSetting@@QAEHHPAVCListBox@@@Z 0041ed80 f   DlgWorldBossSetting.obj
 0001:0001ddb0       ?_GetBaseClass@CDlgLoading@@KGPAUCRuntimeClass@@XZ 0041edb0 f   DlgLoading.obj
 0001:0001ddc0       ?GetThisClass@CDlgLoading@@SGPAUCRuntimeClass@@XZ 0041edc0 f   DlgLoading.obj
 0001:0001ddd0       ?GetRuntimeClass@CDlgLoading@@UBEPAUCRuntimeClass@@XZ 0041edd0 f   DlgLoading.obj
 0001:0001dde0       ??0CDlgLoading@@QAE@PAVCWnd@@@Z 0041ede0 f   DlgLoading.obj
 0001:0001de10       ??_GCDlgLoading@@UAEPAXI@Z 0041ee10 f i DlgLoading.obj
 0001:0001de10       ??_ECDlgLoading@@UAEPAXI@Z 0041ee10 f i DlgLoading.obj
 0001:0001de40       ??1CDlgLoading@@UAE@XZ     0041ee40 f   DlgLoading.obj
 0001:0001de60       ?DoDataExchange@CDlgLoading@@MAEXPAVCDataExchange@@@Z 0041ee60 f   DlgLoading.obj
 0001:0001de80       ?GetMessageMap@CDlgLoading@@MBEPBUAFX_MSGMAP@@XZ 0041ee80 f   DlgLoading.obj
 0001:0001de90       ?GetThisMessageMap@CDlgLoading@@KGPBUAFX_MSGMAP@@XZ 0041ee90 f   DlgLoading.obj
 0001:0001dea0       ?OnTimer@CDlgLoading@@QAEXI@Z 0041eea0 f   DlgLoading.obj
 0001:0001ded0       ?PlayAnimation@CDlgLoading@@QAEXXZ 0041eed0 f   DlgLoading.obj
 0001:0001dff0       ?OnInitDialog@CDlgLoading@@MAEHXZ 0041eff0 f   DlgLoading.obj
 0001:0001e020       ??0CDlgShowLog@@QAE@PAVCWnd@@@Z 0041f020 f   DlgShowLog.obj
 0001:0001e0c0       ??_GCDlgShowLog@@UAEPAXI@Z 0041f0c0 f i DlgShowLog.obj
 0001:0001e0c0       ??_ECDlgShowLog@@UAEPAXI@Z 0041f0c0 f i DlgShowLog.obj
 0001:0001e0f0       ??1CDlgShowLog@@UAE@XZ     0041f0f0 f i DlgShowLog.obj
 0001:0001e150       ?DoDataExchange@CDlgShowLog@@MAEXPAVCDataExchange@@@Z 0041f150 f   DlgShowLog.obj
 0001:0001e170       ?GetMessageMap@CDlgShowLog@@MBEPBUAFX_MSGMAP@@XZ 0041f170 f   DlgShowLog.obj
 0001:0001e180       ?GetThisMessageMap@CDlgShowLog@@KGPBUAFX_MSGMAP@@XZ 0041f180 f   DlgShowLog.obj
 0001:0001e190       ?OnClose@CDlgShowLog@@IAEXXZ 0041f190 f   DlgShowLog.obj
 0001:0001e1c0       ?OnInitDialog@CDlgShowLog@@MAEHXZ 0041f1c0 f   DlgShowLog.obj
 0001:0001e220       ?InitCtrls@CDlgShowLog@@QAEXXZ 0041f220 f   DlgShowLog.obj
 0001:0001e250       ?ClearText@CDlgShowLog@@QAEXXZ 0041f250 f   DlgShowLog.obj
 0001:0001e270       ?ReadLogToEdit@CDlgShowLog@@QAEHPB_W@Z 0041f270 f   DlgShowLog.obj
 0001:0001e290       ?WriteLogFile@CDlgShowLog@@QAEHPB_W0@Z 0041f290 f   DlgShowLog.obj
 0001:0001e2a0       ?OnBtnClearLog@CDlgShowLog@@IAEXXZ 0041f2a0 f   DlgShowLog.obj
 0001:0001e2b0       ?ClearLog@CDlgShowLog@@QAEXPB_W@Z 0041f2b0 f   DlgShowLog.obj
 0001:0001e2c0       ?_GetBaseClass@CDlgHotKeySetting@@KGPAUCRuntimeClass@@XZ 0041f2c0 f   DlgHotKeySetting.obj
 0001:0001e2d0       ?GetThisClass@CDlgHotKeySetting@@SGPAUCRuntimeClass@@XZ 0041f2d0 f   DlgHotKeySetting.obj
 0001:0001e2e0       ?GetRuntimeClass@CDlgHotKeySetting@@UBEPAUCRuntimeClass@@XZ 0041f2e0 f   DlgHotKeySetting.obj
 0001:0001e2f0       ??0CDlgHotKeySetting@@QAE@PAVCWnd@@@Z 0041f2f0 f   DlgHotKeySetting.obj
 0001:0001e320       ?OnOK@CDlgHotKeySetting@@UAEXXZ 0041f320 f i DlgHotKeySetting.obj
 0001:0001e330       ?OnCancel@CDlgHotKeySetting@@UAEXXZ 0041f330 f i DlgHotKeySetting.obj
 0001:0001e340       ??_ECDlgHotKeySetting@@UAEPAXI@Z 0041f340 f i DlgHotKeySetting.obj
 0001:0001e340       ??_GCDlgHotKeySetting@@UAEPAXI@Z 0041f340 f i DlgHotKeySetting.obj
 0001:0001e370       ??1CDlgHotKeySetting@@UAE@XZ 0041f370 f   DlgHotKeySetting.obj
 0001:0001e390       ?DoDataExchange@CDlgHotKeySetting@@MAEXPAVCDataExchange@@@Z 0041f390 f   DlgHotKeySetting.obj
 0001:0001e3b0       ?GetMessageMap@CDlgHotKeySetting@@MBEPBUAFX_MSGMAP@@XZ 0041f3b0 f   DlgHotKeySetting.obj
 0001:0001e3c0       ?GetThisMessageMap@CDlgHotKeySetting@@KGPBUAFX_MSGMAP@@XZ 0041f3c0 f   DlgHotKeySetting.obj
 0001:0001e3d0       ?PreTranslateMessage@CDlgHotKeySetting@@UAEHPAUtagMSG@@@Z 0041f3d0 f   DlgHotKeySetting.obj
 0001:0001e3f0       ?OnInitDialog@CDlgHotKeySetting@@UAEHXZ 0041f3f0 f   DlgHotKeySetting.obj
 0001:0001e420       ?OnClose@CDlgHotKeySetting@@QAEXXZ 0041f420 f   DlgHotKeySetting.obj
 0001:0001e440       ?InitCtrls@CDlgHotKeySetting@@QAEXXZ 0041f440 f   DlgHotKeySetting.obj
 0001:0001e520       ?OnBnClickedBtnSaveHotKey@CDlgHotKeySetting@@QAEXXZ 0041f520 f   DlgHotKeySetting.obj
 0001:0001e550       ?ShowKeyCodeString@CDlgHotKeySetting@@QAEXXZ 0041f550 f   DlgHotKeySetting.obj
 0001:0001e570       ?ReadIniToCtrls@CDlgHotKeySetting@@QAEXXZ 0041f570 f   DlgHotKeySetting.obj
 0001:0001e5b0       ?SaveIniFromCtrls@CDlgHotKeySetting@@QAEXXZ 0041f5b0 f   DlgHotKeySetting.obj
 0001:0001e5f0       ?OnCbnSelchangeCbHotKeyType@CDlgHotKeySetting@@QAEXXZ 0041f5f0 f   DlgHotKeySetting.obj
 0001:0001e610       ?_GetBaseClass@CDlgProcessList@@KGPAUCRuntimeClass@@XZ 0041f610 f   DlgProcessList.obj
 0001:0001e620       ?GetThisClass@CDlgProcessList@@SGPAUCRuntimeClass@@XZ 0041f620 f   DlgProcessList.obj
 0001:0001e630       ?GetRuntimeClass@CDlgProcessList@@UBEPAUCRuntimeClass@@XZ 0041f630 f   DlgProcessList.obj
 0001:0001e640       ??0CDlgProcessList@@QAE@PAVCWnd@@@Z 0041f640 f   DlgProcessList.obj
 0001:0001e6e0       ?OnOK@CDlgProcessList@@UAEXXZ 0041f6e0 f i DlgProcessList.obj
 0001:0001e6f0       ?OnCancel@CDlgProcessList@@UAEXXZ 0041f6f0 f i DlgProcessList.obj
 0001:0001e700       ??_ECDlgProcessList@@UAEPAXI@Z 0041f700 f i DlgProcessList.obj
 0001:0001e700       ??_GCDlgProcessList@@UAEPAXI@Z 0041f700 f i DlgProcessList.obj
 0001:0001e730       ??1CDlgProcessList@@UAE@XZ 0041f730 f   DlgProcessList.obj
 0001:0001e7b0       ??1?$map@V?$CStringT@_WV?$StrTraitMFC_DLL@_WV?$ChTraitsCRT@_W@ATL@@@@@ATL@@V12@U?$less@V?$CStringT@_WV?$StrTraitMFC_DLL@_WV?$ChTraitsCRT@_W@ATL@@@@@ATL@@@std@@V?$allocator@U?$pair@$$CBV?$CStringT@_WV?$StrTraitMFC_DLL@_WV?$ChTraitsCRT@_W@ATL@@@@@ATL@@V12@@std@@@4@@std@@QAE@XZ 0041f7b0 f i DlgProcessList.obj
 0001:0001e7d0       ?DoDataExchange@CDlgProcessList@@MAEXPAVCDataExchange@@@Z 0041f7d0 f   DlgProcessList.obj
 0001:0001e7f0       ?GetMessageMap@CDlgProcessList@@MBEPBUAFX_MSGMAP@@XZ 0041f7f0 f   DlgProcessList.obj
 0001:0001e800       ?GetThisMessageMap@CDlgProcessList@@KGPBUAFX_MSGMAP@@XZ 0041f800 f   DlgProcessList.obj
 0001:0001e810       ?OnClose@CDlgProcessList@@QAEXXZ 0041f810 f   DlgProcessList.obj
 0001:0001e830       ?OnInitDialog@CDlgProcessList@@UAEHXZ 0041f830 f   DlgProcessList.obj
 0001:0001e870       ?GetAllProcessList@CDlgProcessList@@QAEXXZ 0041f870 f   DlgProcessList.obj
 0001:0001ec30       ??0PROCESS_INFO@@QAE@XZ    0041fc30 f i DlgProcessList.obj
 0001:0001ec70       ??1PROCESS_INFO@@QAE@XZ    0041fc70 f i DlgProcessList.obj
 0001:0001eca0       ??1?$_Vector_iterator@UPROCESS_INFO@@V?$allocator@UPROCESS_INFO@@@std@@@std@@QAE@XZ 0041fca0 f i DlgProcessList.obj
 0001:0001ecc0       ??1?$_Vector_const_iterator@UPROCESS_INFO@@V?$allocator@UPROCESS_INFO@@@std@@@std@@QAE@XZ 0041fcc0 f i DlgProcessList.obj
 0001:0001ece0       ??1?$_Ranit@UPROCESS_INFO@@HPBU1@ABU1@@std@@QAE@XZ 0041fce0 f i DlgProcessList.obj
 0001:0001ed00       ??1?$_Iterator_with_base@Urandom_access_iterator_tag@std@@UPROCESS_INFO@@HPBU3@ABU3@V_Iterator_base@2@@std@@QAE@XZ 0041fd00 f i DlgProcessList.obj
 0001:0001ed20       ?InitCtrls@CDlgProcessList@@QAEXXZ 0041fd20 f   DlgProcessList.obj
 0001:0001edc0       ?InitListHeader@CDlgProcessList@@QAEXXZ 0041fdc0 f   DlgProcessList.obj
 0001:0001ee60       ?GetSelectProceeInfo@CDlgProcessList@@QAE?AUPROCESS_INFO@@XZ 0041fe60 f   DlgProcessList.obj
 0001:0001ef80       ??4PROCESS_INFO@@QAEAAU0@ABU0@@Z 0041ff80 f i DlgProcessList.obj
 0001:0001efe0       ??0PROCESS_INFO@@QAE@ABU0@@Z 0041ffe0 f i DlgProcessList.obj
 0001:0001f070       ?InitFilterMap@CDlgProcessList@@AAEXXZ 00420070 f   DlgProcessList.obj
 0001:0001f130       ?IsProcNeedToBeShown@CDlgProcessList@@AAE_NAAUPROCESS_INFO@@@Z 00420130 f   DlgProcessList.obj
 0001:0001f220       ??1iterator@?$_Tree@V?$_Tmap_traits@V?$CStringT@_WV?$StrTraitMFC_DLL@_WV?$ChTraitsCRT@_W@ATL@@@@@ATL@@V12@U?$less@V?$CStringT@_WV?$StrTraitMFC_DLL@_WV?$ChTraitsCRT@_W@ATL@@@@@ATL@@@std@@V?$allocator@U?$pair@$$CBV?$CStringT@_WV?$StrTraitMFC_DLL@_WV?$ChTraitsCRT@_W@ATL@@@@@ATL@@V12@@std@@@4@$0A@@std@@@std@@QAE@XZ 00420220 f i DlgProcessList.obj
 0001:0001f240       ??1const_iterator@?$_Tree@V?$_Tmap_traits@V?$CStringT@_WV?$StrTraitMFC_DLL@_WV?$ChTraitsCRT@_W@ATL@@@@@ATL@@V12@U?$less@V?$CStringT@_WV?$StrTraitMFC_DLL@_WV?$ChTraitsCRT@_W@ATL@@@@@ATL@@@std@@V?$allocator@U?$pair@$$CBV?$CStringT@_WV?$StrTraitMFC_DLL@_WV?$ChTraitsCRT@_W@ATL@@@@@ATL@@V12@@std@@@4@$0A@@std@@@std@@QAE@XZ 00420240 f i DlgProcessList.obj
 0001:0001f260       ??1?$_Bidit@U?$pair@$$CBV?$CStringT@_WV?$StrTraitMFC_DLL@_WV?$ChTraitsCRT@_W@ATL@@@@@ATL@@V12@@std@@HPBU12@ABU12@@std@@QAE@XZ 00420260 f i DlgProcessList.obj
 0001:0001f280       ??1?$_Iterator_with_base@Ubidirectional_iterator_tag@std@@U?$pair@$$CBV?$CStringT@_WV?$StrTraitMFC_DLL@_WV?$ChTraitsCRT@_W@ATL@@@@@ATL@@V12@@2@HPBU32@ABU32@V_Iterator_base@2@@std@@QAE@XZ 00420280 f i DlgProcessList.obj
 0001:0001f2a0       ?OnBnClickedBtnRefresh@CDlgProcessList@@QAEXXZ 004202a0 f   DlgProcessList.obj
 0001:0001f2c0       ?OnBnClickedBtnSel@CDlgProcessList@@QAEXXZ 004202c0 f   DlgProcessList.obj
 0001:0001f320       ??0?$vector@UPROCESS_INFO@@V?$allocator@UPROCESS_INFO@@@std@@@std@@QAE@XZ 00420320 f i DlgProcessList.obj
 0001:0001f390       ??1?$vector@UPROCESS_INFO@@V?$allocator@UPROCESS_INFO@@@std@@@std@@QAE@XZ 00420390 f i DlgProcessList.obj
 0001:0001f3f0       ?begin@?$vector@UPROCESS_INFO@@V?$allocator@UPROCESS_INFO@@@std@@@std@@QAE?AV?$_Vector_iterator@UPROCESS_INFO@@V?$allocator@UPROCESS_INFO@@@std@@@2@XZ 004203f0 f i DlgProcessList.obj
 0001:0001f430       ?end@?$vector@UPROCESS_INFO@@V?$allocator@UPROCESS_INFO@@@std@@@std@@QAE?AV?$_Vector_iterator@UPROCESS_INFO@@V?$allocator@UPROCESS_INFO@@@std@@@2@XZ 00420430 f i DlgProcessList.obj
 0001:0001f470       ?size@?$vector@UPROCESS_INFO@@V?$allocator@UPROCESS_INFO@@@std@@@std@@QBEIXZ 00420470 f i DlgProcessList.obj
 0001:0001f490       ?push_back@?$vector@UPROCESS_INFO@@V?$allocator@UPROCESS_INFO@@@std@@@std@@QAEXABUPROCESS_INFO@@@Z 00420490 f i DlgProcessList.obj
 0001:0001f570       ?clear@?$vector@UPROCESS_INFO@@V?$allocator@UPROCESS_INFO@@@std@@@std@@QAEXXZ 00420570 f i DlgProcessList.obj
 0001:0001f650       ??0?$map@V?$CStringT@_WV?$StrTraitMFC_DLL@_WV?$ChTraitsCRT@_W@ATL@@@@@ATL@@V12@U?$less@V?$CStringT@_WV?$StrTraitMFC_DLL@_WV?$ChTraitsCRT@_W@ATL@@@@@ATL@@@std@@V?$allocator@U?$pair@$$CBV?$CStringT@_WV?$StrTraitMFC_DLL@_WV?$ChTraitsCRT@_W@ATL@@@@@ATL@@V12@@std@@@4@@std@@QAE@XZ 00420650 f i DlgProcessList.obj
 0001:0001f680       ??A?$map@V?$CStringT@_WV?$StrTraitMFC_DLL@_WV?$ChTraitsCRT@_W@ATL@@@@@ATL@@V12@U?$less@V?$CStringT@_WV?$StrTraitMFC_DLL@_WV?$ChTraitsCRT@_W@ATL@@@@@ATL@@@std@@V?$allocator@U?$pair@$$CBV?$CStringT@_WV?$StrTraitMFC_DLL@_WV?$ChTraitsCRT@_W@ATL@@@@@ATL@@V12@@std@@@4@@std@@QAEAAV?$CStringT@_WV?$StrTraitMFC_DLL@_WV?$ChTraitsCRT@_W@ATL@@@@@ATL@@ABV23@@Z 00420680 f i DlgProcessList.obj
 0001:0001f830       ??1?$_Tree@V?$_Tmap_traits@V?$CStringT@_WV?$StrTraitMFC_DLL@_WV?$ChTraitsCRT@_W@ATL@@@@@ATL@@V12@U?$less@V?$CStringT@_WV?$StrTraitMFC_DLL@_WV?$ChTraitsCRT@_W@ATL@@@@@ATL@@@std@@V?$allocator@U?$pair@$$CBV?$CStringT@_WV?$StrTraitMFC_DLL@_WV?$ChTraitsCRT@_W@ATL@@@@@ATL@@V12@@std@@@4@$0A@@std@@@std@@QAE@XZ 00420830 f i DlgProcessList.obj
 0001:0001f890       ?end@?$_Tree@V?$_Tmap_traits@V?$CStringT@_WV?$StrTraitMFC_DLL@_WV?$ChTraitsCRT@_W@ATL@@@@@ATL@@V12@U?$less@V?$CStringT@_WV?$StrTraitMFC_DLL@_WV?$ChTraitsCRT@_W@ATL@@@@@ATL@@@std@@V?$allocator@U?$pair@$$CBV?$CStringT@_WV?$StrTraitMFC_DLL@_WV?$ChTraitsCRT@_W@ATL@@@@@ATL@@V12@@std@@@4@$0A@@std@@@std@@QAE?AViterator@12@XZ 00420890 f i DlgProcessList.obj
 0001:0001f8d0       ?find@?$_Tree@V?$_Tmap_traits@V?$CStringT@_WV?$StrTraitMFC_DLL@_WV?$ChTraitsCRT@_W@ATL@@@@@ATL@@V12@U?$less@V?$CStringT@_WV?$StrTraitMFC_DLL@_WV?$ChTraitsCRT@_W@ATL@@@@@ATL@@@std@@V?$allocator@U?$pair@$$CBV?$CStringT@_WV?$StrTraitMFC_DLL@_WV?$ChTraitsCRT@_W@ATL@@@@@ATL@@V12@@std@@@4@$0A@@std@@@std@@QAE?AViterator@12@ABV?$CStringT@_WV?$StrTraitMFC_DLL@_WV?$ChTraitsCRT@_W@ATL@@@@@ATL@@@Z 004208d0 f i DlgProcessList.obj
 0001:0001fa30       ??D?$_Vector_iterator@UPROCESS_INFO@@V?$allocator@UPROCESS_INFO@@@std@@@std@@QBEAAUPROCESS_INFO@@XZ 00420a30 f i DlgProcessList.obj
 0001:0001fa50       ??C?$_Vector_iterator@UPROCESS_INFO@@V?$allocator@UPROCESS_INFO@@@std@@@std@@QBEPAUPROCESS_INFO@@XZ 00420a50 f i DlgProcessList.obj
 0001:0001fa70       ??E?$_Vector_iterator@UPROCESS_INFO@@V?$allocator@UPROCESS_INFO@@@std@@@std@@QAEAAV01@XZ 00420a70 f i DlgProcessList.obj
 0001:0001fa90       ??9?$_Vector_const_iterator@UPROCESS_INFO@@V?$allocator@UPROCESS_INFO@@@std@@@std@@QBE_NABV01@@Z 00420a90 f i DlgProcessList.obj
 0001:0001fac0       ??8const_iterator@?$_Tree@V?$_Tmap_traits@V?$CStringT@_WV?$StrTraitMFC_DLL@_WV?$ChTraitsCRT@_W@ATL@@@@@ATL@@V12@U?$less@V?$CStringT@_WV?$StrTraitMFC_DLL@_WV?$ChTraitsCRT@_W@ATL@@@@@ATL@@@std@@V?$allocator@U?$pair@$$CBV?$CStringT@_WV?$StrTraitMFC_DLL@_WV?$ChTraitsCRT@_W@ATL@@@@@ATL@@V12@@std@@@4@$0A@@std@@@std@@QBE_NABV012@@Z 00420ac0 f i DlgProcessList.obj
 0001:0001fb50       ??1?$_Vector_val@UPROCESS_INFO@@V?$allocator@UPROCESS_INFO@@@std@@@std@@QAE@XZ 00420b50 f i DlgProcessList.obj
 0001:0001fb70       ??0?$_Vector_const_iterator@UPROCESS_INFO@@V?$allocator@UPROCESS_INFO@@@std@@@std@@QAE@ABV01@@Z 00420b70 f i DlgProcessList.obj
 0001:0001fba0       ??1?$pair@$$CBV?$CStringT@_WV?$StrTraitMFC_DLL@_WV?$ChTraitsCRT@_W@ATL@@@@@ATL@@V12@@std@@QAE@XZ 00420ba0 f i DlgProcessList.obj
 0001:0001fbc0       ??0const_iterator@?$_Tree@V?$_Tmap_traits@V?$CStringT@_WV?$StrTraitMFC_DLL@_WV?$ChTraitsCRT@_W@ATL@@@@@ATL@@V12@U?$less@V?$CStringT@_WV?$StrTraitMFC_DLL@_WV?$ChTraitsCRT@_W@ATL@@@@@ATL@@@std@@V?$allocator@U?$pair@$$CBV?$CStringT@_WV?$StrTraitMFC_DLL@_WV?$ChTraitsCRT@_W@ATL@@@@@ATL@@V12@@std@@@4@$0A@@std@@@std@@QAE@ABV012@@Z 00420bc0 f i DlgProcessList.obj
 0001:0001fbf0       ??4iterator@?$_Tree@V?$_Tmap_traits@V?$CStringT@_WV?$StrTraitMFC_DLL@_WV?$ChTraitsCRT@_W@ATL@@@@@ATL@@V12@U?$less@V?$CStringT@_WV?$StrTraitMFC_DLL@_WV?$ChTraitsCRT@_W@ATL@@@@@ATL@@@std@@V?$allocator@U?$pair@$$CBV?$CStringT@_WV?$StrTraitMFC_DLL@_WV?$ChTraitsCRT@_W@ATL@@@@@ATL@@V12@@std@@@4@$0A@@std@@@std@@QAEAAV012@ABV012@@Z 00420bf0 f i DlgProcessList.obj
 0001:0001fc10       ??1?$_Tree_val@V?$_Tmap_traits@V?$CStringT@_WV?$StrTraitMFC_DLL@_WV?$ChTraitsCRT@_W@ATL@@@@@ATL@@V12@U?$less@V?$CStringT@_WV?$StrTraitMFC_DLL@_WV?$ChTraitsCRT@_W@ATL@@@@@ATL@@@std@@V?$allocator@U?$pair@$$CBV?$CStringT@_WV?$StrTraitMFC_DLL@_WV?$ChTraitsCRT@_W@ATL@@@@@ATL@@V12@@std@@@4@$0A@@std@@@std@@QAE@XZ 00420c10 f i DlgProcessList.obj
 0001:0001fc30       ??0iterator@?$_Tree@V?$_Tmap_traits@V?$CStringT@_WV?$StrTraitMFC_DLL@_WV?$ChTraitsCRT@_W@ATL@@@@@ATL@@V12@U?$less@V?$CStringT@_WV?$StrTraitMFC_DLL@_WV?$ChTraitsCRT@_W@ATL@@@@@ATL@@@std@@V?$allocator@U?$pair@$$CBV?$CStringT@_WV?$StrTraitMFC_DLL@_WV?$ChTraitsCRT@_W@ATL@@@@@ATL@@V12@@std@@@4@$0A@@std@@@std@@QAE@ABV012@@Z 00420c30 f i DlgProcessList.obj
 0001:0001fc50       ??0?$_Ranit@UPROCESS_INFO@@HPBU1@ABU1@@std@@QAE@ABU01@@Z 00420c50 f i DlgProcessList.obj
 0001:0001fc70       ??0?$_Bidit@U?$pair@$$CBV?$CStringT@_WV?$StrTraitMFC_DLL@_WV?$ChTraitsCRT@_W@ATL@@@@@ATL@@V12@@std@@HPBU12@ABU12@@std@@QAE@ABU01@@Z 00420c70 f i DlgProcessList.obj
 0001:0001fc90       ??4const_iterator@?$_Tree@V?$_Tmap_traits@V?$CStringT@_WV?$StrTraitMFC_DLL@_WV?$ChTraitsCRT@_W@ATL@@@@@ATL@@V12@U?$less@V?$CStringT@_WV?$StrTraitMFC_DLL@_WV?$ChTraitsCRT@_W@ATL@@@@@ATL@@@std@@V?$allocator@U?$pair@$$CBV?$CStringT@_WV?$StrTraitMFC_DLL@_WV?$ChTraitsCRT@_W@ATL@@@@@ATL@@V12@@std@@@4@$0A@@std@@@std@@QAEAAV012@ABV012@@Z 00420c90 f i DlgProcessList.obj
 0001:0001fcc0       ??1?$_Tree_ptr@V?$_Tmap_traits@V?$CStringT@_WV?$StrTraitMFC_DLL@_WV?$ChTraitsCRT@_W@ATL@@@@@ATL@@V12@U?$less@V?$CStringT@_WV?$StrTraitMFC_DLL@_WV?$ChTraitsCRT@_W@ATL@@@@@ATL@@@std@@V?$allocator@U?$pair@$$CBV?$CStringT@_WV?$StrTraitMFC_DLL@_WV?$ChTraitsCRT@_W@ATL@@@@@ATL@@V12@@std@@@4@$0A@@std@@@std@@QAE@XZ 00420cc0 f i DlgProcessList.obj
 0001:0001fce0       ??0?$_Iterator_with_base@Urandom_access_iterator_tag@std@@UPROCESS_INFO@@HPBU3@ABU3@V_Iterator_base@2@@std@@QAE@ABU01@@Z 00420ce0 f i DlgProcessList.obj
 0001:0001fd00       ??0?$_Iterator_with_base@Ubidirectional_iterator_tag@std@@U?$pair@$$CBV?$CStringT@_WV?$StrTraitMFC_DLL@_WV?$ChTraitsCRT@_W@ATL@@@@@ATL@@V12@@2@HPBU32@ABU32@V_Iterator_base@2@@std@@QAE@ABU01@@Z 00420d00 f i DlgProcessList.obj
 0001:0001fd20       ??4?$_Bidit@U?$pair@$$CBV?$CStringT@_WV?$StrTraitMFC_DLL@_WV?$ChTraitsCRT@_W@ATL@@@@@ATL@@V12@@std@@HPBU12@ABU12@@std@@QAEAAU01@ABU01@@Z 00420d20 f i DlgProcessList.obj
 0001:0001fd40       ??1?$_Tree_nod@V?$_Tmap_traits@V?$CStringT@_WV?$StrTraitMFC_DLL@_WV?$ChTraitsCRT@_W@ATL@@@@@ATL@@V12@U?$less@V?$CStringT@_WV?$StrTraitMFC_DLL@_WV?$ChTraitsCRT@_W@ATL@@@@@ATL@@@std@@V?$allocator@U?$pair@$$CBV?$CStringT@_WV?$StrTraitMFC_DLL@_WV?$ChTraitsCRT@_W@ATL@@@@@ATL@@V12@@std@@@4@$0A@@std@@@std@@QAE@XZ 00420d40 f i DlgProcessList.obj
 0001:0001fd60       ??4?$_Iterator_with_base@Ubidirectional_iterator_tag@std@@U?$pair@$$CBV?$CStringT@_WV?$StrTraitMFC_DLL@_WV?$ChTraitsCRT@_W@ATL@@@@@ATL@@V12@@2@HPBU32@ABU32@V_Iterator_base@2@@std@@QAEAAU01@ABU01@@Z 00420d60 f i DlgProcessList.obj
 0001:0001fd80       ??1?$_Tmap_traits@V?$CStringT@_WV?$StrTraitMFC_DLL@_WV?$ChTraitsCRT@_W@ATL@@@@@ATL@@V12@U?$less@V?$CStringT@_WV?$StrTraitMFC_DLL@_WV?$ChTraitsCRT@_W@ATL@@@@@ATL@@@std@@V?$allocator@U?$pair@$$CBV?$CStringT@_WV?$StrTraitMFC_DLL@_WV?$ChTraitsCRT@_W@ATL@@@@@ATL@@V12@@std@@@4@$0A@@std@@QAE@XZ 00420d80 f i DlgProcessList.obj
 0001:0001fda0       ?capacity@?$vector@UPROCESS_INFO@@V?$allocator@UPROCESS_INFO@@@std@@@std@@QBEIXZ 00420da0 f i DlgProcessList.obj
 0001:0001fde0       ?insert@?$vector@UPROCESS_INFO@@V?$allocator@UPROCESS_INFO@@@std@@@std@@QAE?AV?$_Vector_iterator@UPROCESS_INFO@@V?$allocator@UPROCESS_INFO@@@std@@@2@V?$_Vector_const_iterator@UPROCESS_INFO@@V?$allocator@UPROCESS_INFO@@@std@@@2@ABUPROCESS_INFO@@@Z 00420de0 f i DlgProcessList.obj
 0001:0001ff00       ?erase@?$vector@UPROCESS_INFO@@V?$allocator@UPROCESS_INFO@@@std@@@std@@QAE?AV?$_Vector_iterator@UPROCESS_INFO@@V?$allocator@UPROCESS_INFO@@@std@@@2@V?$_Vector_const_iterator@UPROCESS_INFO@@V?$allocator@UPROCESS_INFO@@@std@@@2@0@Z 00420f00 f i DlgProcessList.obj
 0001:00020090       ?_Buy@?$vector@UPROCESS_INFO@@V?$allocator@UPROCESS_INFO@@@std@@@std@@IAE_NI@Z 00421090 f i DlgProcessList.obj
 0001:00020110       ?_Tidy@?$vector@UPROCESS_INFO@@V?$allocator@UPROCESS_INFO@@@std@@@std@@IAEXXZ 00421110 f i DlgProcessList.obj
 0001:00020190       ?_Ufill@?$vector@UPROCESS_INFO@@V?$allocator@UPROCESS_INFO@@@std@@@std@@IAEPAUPROCESS_INFO@@PAU3@IABU3@@Z 00421190 f i DlgProcessList.obj
 0001:000201d0       ?_Orphan_range@?$vector@UPROCESS_INFO@@V?$allocator@UPROCESS_INFO@@@std@@@std@@IBEXPAUPROCESS_INFO@@0@Z 004211d0 f i DlgProcessList.obj
 0001:00020250       ??0?$_Vector_val@UPROCESS_INFO@@V?$allocator@UPROCESS_INFO@@@std@@@std@@IAE@V?$allocator@UPROCESS_INFO@@@1@@Z 00421250 f i DlgProcessList.obj
 0001:00020290       ??1?$_Container_base_aux_alloc_empty@V?$allocator@UPROCESS_INFO@@@std@@@std@@IAE@XZ 00421290 f i DlgProcessList.obj
 0001:000202b0       ??0?$allocator@UPROCESS_INFO@@@std@@QAE@XZ 004212b0 f i DlgProcessList.obj
 0001:000202c0       ?_Key@?$_Tree@V?$_Tmap_traits@V?$CStringT@_WV?$StrTraitMFC_DLL@_WV?$ChTraitsCRT@_W@ATL@@@@@ATL@@V12@U?$less@V?$CStringT@_WV?$StrTraitMFC_DLL@_WV?$ChTraitsCRT@_W@ATL@@@@@ATL@@@std@@V?$allocator@U?$pair@$$CBV?$CStringT@_WV?$StrTraitMFC_DLL@_WV?$ChTraitsCRT@_W@ATL@@@@@ATL@@V12@@std@@@4@$0A@@std@@@std@@KAABV?$CStringT@_WV?$StrTraitMFC_DLL@_WV?$ChTraitsCRT@_W@ATL@@@@@ATL@@PAU_Node@?$_Tree_nod@V?$_Tmap_traits@V?$CStringT@_WV?$StrTraitMFC_DLL@_WV?$ChTraitsCRT@_W@ATL@@@@@ATL@@V12@U?$less@V?$CStringT@_WV?$StrTraitMFC_DLL@_WV?$ChTraitsCRT@_W@ATL@@@@@ATL@@@std@@V?$allocator@U?$pair@$$CBV?$CStringT@_WV?$StrTraitMFC_DLL@_WV?$ChTraitsCRT@_W@ATL@@@@@ATL@@V12@@std@@@4@$0A@@std@@@2@@Z 004212c0 f i DlgProcessList.obj
 0001:000202e0       ??0?$_Tree@V?$_Tmap_traits@V?$CStringT@_WV?$StrTraitMFC_DLL@_WV?$ChTraitsCRT@_W@ATL@@@@@ATL@@V12@U?$less@V?$CStringT@_WV?$StrTraitMFC_DLL@_WV?$ChTraitsCRT@_W@ATL@@@@@ATL@@@std@@V?$allocator@U?$pair@$$CBV?$CStringT@_WV?$StrTraitMFC_DLL@_WV?$ChTraitsCRT@_W@ATL@@@@@ATL@@V12@@std@@@4@$0A@@std@@@std@@QAE@ABU?$less@V?$CStringT@_WV?$StrTraitMFC_DLL@_WV?$ChTraitsCRT@_W@ATL@@@@@ATL@@@1@ABV?$allocator@U?$pair@$$CBV?$CStringT@_WV?$StrTraitMFC_DLL@_WV?$ChTraitsCRT@_W@ATL@@@@@ATL@@V12@@std@@@1@@Z 004212e0 f i DlgProcessList.obj
 0001:00020350       ?insert@?$_Tree@V?$_Tmap_traits@V?$CStringT@_WV?$StrTraitMFC_DLL@_WV?$ChTraitsCRT@_W@ATL@@@@@ATL@@V12@U?$less@V?$CStringT@_WV?$StrTraitMFC_DLL@_WV?$ChTraitsCRT@_W@ATL@@@@@ATL@@@std@@V?$allocator@U?$pair@$$CBV?$CStringT@_WV?$StrTraitMFC_DLL@_WV?$ChTraitsCRT@_W@ATL@@@@@ATL@@V12@@std@@@4@$0A@@std@@@std@@QAE?AViterator@12@Vconst_iterator@12@ABU?$pair@$$CBV?$CStringT@_WV?$StrTraitMFC_DLL@_WV?$ChTraitsCRT@_W@ATL@@@@@ATL@@V12@@2@@Z 00421350 f i DlgProcessList.obj
 0001:00020f00       ?lower_bound@?$_Tree@V?$_Tmap_traits@V?$CStringT@_WV?$StrTraitMFC_DLL@_WV?$ChTraitsCRT@_W@ATL@@@@@ATL@@V12@U?$less@V?$CStringT@_WV?$StrTraitMFC_DLL@_WV?$ChTraitsCRT@_W@ATL@@@@@ATL@@@std@@V?$allocator@U?$pair@$$CBV?$CStringT@_WV?$StrTraitMFC_DLL@_WV?$ChTraitsCRT@_W@ATL@@@@@ATL@@V12@@std@@@4@$0A@@std@@@std@@QAE?AViterator@12@ABV?$CStringT@_WV?$StrTraitMFC_DLL@_WV?$ChTraitsCRT@_W@ATL@@@@@ATL@@@Z 00421f00 f i DlgProcessList.obj
 0001:00020f40       ?_Tidy@?$_Tree@V?$_Tmap_traits@V?$CStringT@_WV?$StrTraitMFC_DLL@_WV?$ChTraitsCRT@_W@ATL@@@@@ATL@@V12@U?$less@V?$CStringT@_WV?$StrTraitMFC_DLL@_WV?$ChTraitsCRT@_W@ATL@@@@@ATL@@@std@@V?$allocator@U?$pair@$$CBV?$CStringT@_WV?$StrTraitMFC_DLL@_WV?$ChTraitsCRT@_W@ATL@@@@@ATL@@V12@@std@@@4@$0A@@std@@@std@@IAEXXZ 00421f40 f i DlgProcessList.obj
 0001:00021090       ??1?$_Container_base_aux_alloc_empty@V?$allocator@U?$pair@$$CBV?$CStringT@_WV?$StrTraitMFC_DLL@_WV?$ChTraitsCRT@_W@ATL@@@@@ATL@@V12@@std@@@std@@@std@@IAE@XZ 00422090 f i DlgProcessList.obj
 0001:000210b0       ??0?$allocator@U?$pair@$$CBV?$CStringT@_WV?$StrTraitMFC_DLL@_WV?$ChTraitsCRT@_W@ATL@@@@@ATL@@V12@@std@@@std@@QAE@XZ 004220b0 f i DlgProcessList.obj
 0001:000210c0       ??R?$less@V?$CStringT@_WV?$StrTraitMFC_DLL@_WV?$ChTraitsCRT@_W@ATL@@@@@ATL@@@std@@QBE_NABV?$CStringT@_WV?$StrTraitMFC_DLL@_WV?$ChTraitsCRT@_W@ATL@@@@@ATL@@0@Z 004220c0 f i DlgProcessList.obj
 0001:000210e0       ??0?$_Vector_iterator@UPROCESS_INFO@@V?$allocator@UPROCESS_INFO@@@std@@@std@@QAE@PAUPROCESS_INFO@@PBV_Container_base_secure@1@@Z 004220e0 f i DlgProcessList.obj
 0001:00021100       ??D?$_Vector_const_iterator@UPROCESS_INFO@@V?$allocator@UPROCESS_INFO@@@std@@@std@@QBEABUPROCESS_INFO@@XZ 00422100 f i DlgProcessList.obj
 0001:00021190       ??E?$_Vector_const_iterator@UPROCESS_INFO@@V?$allocator@UPROCESS_INFO@@@std@@@std@@QAEAAV01@XZ 00422190 f i DlgProcessList.obj
 0001:00021290       ??8?$_Vector_const_iterator@UPROCESS_INFO@@V?$allocator@UPROCESS_INFO@@@std@@@std@@QBE_NABV01@@Z 00422290 f i DlgProcessList.obj
 0001:000212c0       ??0iterator@?$_Tree@V?$_Tmap_traits@V?$CStringT@_WV?$StrTraitMFC_DLL@_WV?$ChTraitsCRT@_W@ATL@@@@@ATL@@V12@U?$less@V?$CStringT@_WV?$StrTraitMFC_DLL@_WV?$ChTraitsCRT@_W@ATL@@@@@ATL@@@std@@V?$allocator@U?$pair@$$CBV?$CStringT@_WV?$StrTraitMFC_DLL@_WV?$ChTraitsCRT@_W@ATL@@@@@ATL@@V12@@std@@@4@$0A@@std@@@std@@QAE@PAU_Node@?$_Tree_nod@V?$_Tmap_traits@V?$CStringT@_WV?$StrTraitMFC_DLL@_WV?$ChTraitsCRT@_W@ATL@@@@@ATL@@V12@U?$less@V?$CStringT@_WV?$StrTraitMFC_DLL@_WV?$ChTraitsCRT@_W@ATL@@@@@ATL@@@std@@V?$allocator@U?$pair@$$CBV?$CStringT@_WV?$StrTraitMFC_DLL@_WV?$ChTraitsCRT@_W@ATL@@@@@ATL@@V12@@std@@@4@$0A@@std@@@2@PBV12@@Z 004222c0 f i DlgProcessList.obj
 0001:000212e0       ??Diterator@?$_Tree@V?$_Tmap_traits@V?$CStringT@_WV?$StrTraitMFC_DLL@_WV?$ChTraitsCRT@_W@ATL@@@@@ATL@@V12@U?$less@V?$CStringT@_WV?$StrTraitMFC_DLL@_WV?$ChTraitsCRT@_W@ATL@@@@@ATL@@@std@@V?$allocator@U?$pair@$$CBV?$CStringT@_WV?$StrTraitMFC_DLL@_WV?$ChTraitsCRT@_W@ATL@@@@@ATL@@V12@@std@@@4@$0A@@std@@@std@@QBEAAU?$pair@$$CBV?$CStringT@_WV?$StrTraitMFC_DLL@_WV?$ChTraitsCRT@_W@ATL@@@@@ATL@@V12@@2@XZ 004222e0 f i DlgProcessList.obj
 0001:00021300       ?_Mynode@const_iterator@?$_Tree@V?$_Tmap_traits@V?$CStringT@_WV?$StrTraitMFC_DLL@_WV?$ChTraitsCRT@_W@ATL@@@@@ATL@@V12@U?$less@V?$CStringT@_WV?$StrTraitMFC_DLL@_WV?$ChTraitsCRT@_W@ATL@@@@@ATL@@@std@@V?$allocator@U?$pair@$$CBV?$CStringT@_WV?$StrTraitMFC_DLL@_WV?$ChTraitsCRT@_W@ATL@@@@@ATL@@V12@@std@@@4@$0A@@std@@@std@@QBEPAU_Node@?$_Tree_nod@V?$_Tmap_traits@V?$CStringT@_WV?$StrTraitMFC_DLL@_WV?$ChTraitsCRT@_W@ATL@@@@@ATL@@V12@U?$less@V?$CStringT@_WV?$StrTraitMFC_DLL@_WV?$ChTraitsCRT@_W@ATL@@@@@ATL@@@std@@V?$allocator@U?$pair@$$CBV?$CStringT@_WV?$StrTraitMFC_DLL@_WV?$ChTraitsCRT@_W@ATL@@@@@ATL@@V12@@std@@@4@$0A@@std@@@3@XZ 00422300 f i DlgProcessList.obj
 0001:00021320       ??0?$pair@$$CBV?$CStringT@_WV?$StrTraitMFC_DLL@_WV?$ChTraitsCRT@_W@ATL@@@@@ATL@@V12@@std@@QAE@ABV?$CStringT@_WV?$StrTraitMFC_DLL@_WV?$ChTraitsCRT@_W@ATL@@@@@ATL@@0@Z 00422320 f i DlgProcessList.obj
 0001:00021390       ??1?$pair@Viterator@?$_Tree@V?$_Tmap_traits@V?$CStringT@_WV?$StrTraitMFC_DLL@_WV?$ChTraitsCRT@_W@ATL@@@@@ATL@@V12@U?$less@V?$CStringT@_WV?$StrTraitMFC_DLL@_WV?$ChTraitsCRT@_W@ATL@@@@@ATL@@@std@@V?$allocator@U?$pair@$$CBV?$CStringT@_WV?$StrTraitMFC_DLL@_WV?$ChTraitsCRT@_W@ATL@@@@@ATL@@V12@@std@@@4@$0A@@std@@@std@@_N@std@@QAE@XZ 00422390 f i DlgProcessList.obj
 0001:000213b0       ??MATL@@YA_NABV?$CStringT@_WV?$StrTraitMFC_DLL@_WV?$ChTraitsCRT@_W@ATL@@@@@0@0@Z 004223b0 f i DlgProcessList.obj
 0001:000213e0       ?_Make_iter@?$vector@UPROCESS_INFO@@V?$allocator@UPROCESS_INFO@@@std@@@std@@QBE?AV?$_Vector_iterator@UPROCESS_INFO@@V?$allocator@UPROCESS_INFO@@@std@@@2@V?$_Vector_const_iterator@UPROCESS_INFO@@V?$allocator@UPROCESS_INFO@@@std@@@2@@Z 004223e0 f i DlgProcessList.obj
 0001:00021450       ?max_size@?$vector@UPROCESS_INFO@@V?$allocator@UPROCESS_INFO@@@std@@@std@@QBEIXZ 00422450 f i DlgProcessList.obj
 0001:00021470       ?_Destroy@?$vector@UPROCESS_INFO@@V?$allocator@UPROCESS_INFO@@@std@@@std@@IAEXPAUPROCESS_INFO@@0@Z 00422470 f i DlgProcessList.obj
 0001:000214a0       ?_Insert_n@?$vector@UPROCESS_INFO@@V?$allocator@UPROCESS_INFO@@@std@@@std@@IAEXV?$_Vector_const_iterator@UPROCESS_INFO@@V?$allocator@UPROCESS_INFO@@@std@@@2@IABUPROCESS_INFO@@@Z 004224a0 f i DlgProcessList.obj
 0001:000218f0       ?_Xlen@?$vector@UPROCESS_INFO@@V?$allocator@UPROCESS_INFO@@@std@@@std@@KAXXZ 004228f0 f i DlgProcessList.obj
 0001:00021970       ??0?$_Container_base_aux_alloc_empty@V?$allocator@UPROCESS_INFO@@@std@@@std@@IAE@V?$allocator@UPROCESS_INFO@@@1@@Z 00422970 f i DlgProcessList.obj
 0001:00021990       ??0?$allocator@UPROCESS_INFO@@@std@@QAE@ABV01@@Z 00422990 f i DlgProcessList.obj
 0001:000219a0       ?deallocate@?$allocator@UPROCESS_INFO@@@std@@QAEXPAUPROCESS_INFO@@I@Z 004229a0 f i DlgProcessList.obj
 0001:000219c0       ?allocate@?$allocator@UPROCESS_INFO@@@std@@QAEPAUPROCESS_INFO@@I@Z 004229c0 f i DlgProcessList.obj
 0001:000219e0       ?_Isnil@?$_Tree@V?$_Tmap_traits@V?$CStringT@_WV?$StrTraitMFC_DLL@_WV?$ChTraitsCRT@_W@ATL@@@@@ATL@@V12@U?$less@V?$CStringT@_WV?$StrTraitMFC_DLL@_WV?$ChTraitsCRT@_W@ATL@@@@@ATL@@@std@@V?$allocator@U?$pair@$$CBV?$CStringT@_WV?$StrTraitMFC_DLL@_WV?$ChTraitsCRT@_W@ATL@@@@@ATL@@V12@@std@@@4@$0A@@std@@@std@@KAAADPAU_Node@?$_Tree_nod@V?$_Tmap_traits@V?$CStringT@_WV?$StrTraitMFC_DLL@_WV?$ChTraitsCRT@_W@ATL@@@@@ATL@@V12@U?$less@V?$CStringT@_WV?$StrTraitMFC_DLL@_WV?$ChTraitsCRT@_W@ATL@@@@@ATL@@@std@@V?$allocator@U?$pair@$$CBV?$CStringT@_WV?$StrTraitMFC_DLL@_WV?$ChTraitsCRT@_W@ATL@@@@@ATL@@V12@@std@@@4@$0A@@std@@@2@@Z 004229e0 f i DlgProcessList.obj
 0001:000219f0       ?_Left@?$_Tree@V?$_Tmap_traits@V?$CStringT@_WV?$StrTraitMFC_DLL@_WV?$ChTraitsCRT@_W@ATL@@@@@ATL@@V12@U?$less@V?$CStringT@_WV?$StrTraitMFC_DLL@_WV?$ChTraitsCRT@_W@ATL@@@@@ATL@@@std@@V?$allocator@U?$pair@$$CBV?$CStringT@_WV?$StrTraitMFC_DLL@_WV?$ChTraitsCRT@_W@ATL@@@@@ATL@@V12@@std@@@4@$0A@@std@@@std@@KAAAPAU_Node@?$_Tree_nod@V?$_Tmap_traits@V?$CStringT@_WV?$StrTraitMFC_DLL@_WV?$ChTraitsCRT@_W@ATL@@@@@ATL@@V12@U?$less@V?$CStringT@_WV?$StrTraitMFC_DLL@_WV?$ChTraitsCRT@_W@ATL@@@@@ATL@@@std@@V?$allocator@U?$pair@$$CBV?$CStringT@_WV?$StrTraitMFC_DLL@_WV?$ChTraitsCRT@_W@ATL@@@@@ATL@@V12@@std@@@4@$0A@@std@@@2@PAU342@@Z 004229f0 f i DlgProcessList.obj
 0001:00021a00       ?_Parent@?$_Tree@V?$_Tmap_traits@V?$CStringT@_WV?$StrTraitMFC_DLL@_WV?$ChTraitsCRT@_W@ATL@@@@@ATL@@V12@U?$less@V?$CStringT@_WV?$StrTraitMFC_DLL@_WV?$ChTraitsCRT@_W@ATL@@@@@ATL@@@std@@V?$allocator@U?$pair@$$CBV?$CStringT@_WV?$StrTraitMFC_DLL@_WV?$ChTraitsCRT@_W@ATL@@@@@ATL@@V12@@std@@@4@$0A@@std@@@std@@KAAAPAU_Node@?$_Tree_nod@V?$_Tmap_traits@V?$CStringT@_WV?$StrTraitMFC_DLL@_WV?$ChTraitsCRT@_W@ATL@@@@@ATL@@V12@U?$less@V?$CStringT@_WV?$StrTraitMFC_DLL@_WV?$ChTraitsCRT@_W@ATL@@@@@ATL@@@std@@V?$allocator@U?$pair@$$CBV?$CStringT@_WV?$StrTraitMFC_DLL@_WV?$ChTraitsCRT@_W@ATL@@@@@ATL@@V12@@std@@@4@$0A@@std@@@2@PAU342@@Z 00422a00 f i DlgProcessList.obj
 0001:00021a10       ?_Right@?$_Tree@V?$_Tmap_traits@V?$CStringT@_WV?$StrTraitMFC_DLL@_WV?$ChTraitsCRT@_W@ATL@@@@@ATL@@V12@U?$less@V?$CStringT@_WV?$StrTraitMFC_DLL@_WV?$ChTraitsCRT@_W@ATL@@@@@ATL@@@std@@V?$allocator@U?$pair@$$CBV?$CStringT@_WV?$StrTraitMFC_DLL@_WV?$ChTraitsCRT@_W@ATL@@@@@ATL@@V12@@std@@@4@$0A@@std@@@std@@KAAAPAU_Node@?$_Tree_nod@V?$_Tmap_traits@V?$CStringT@_WV?$StrTraitMFC_DLL@_WV?$ChTraitsCRT@_W@ATL@@@@@ATL@@V12@U?$less@V?$CStringT@_WV?$StrTraitMFC_DLL@_WV?$ChTraitsCRT@_W@ATL@@@@@ATL@@@std@@V?$allocator@U?$pair@$$CBV?$CStringT@_WV?$StrTraitMFC_DLL@_WV?$ChTraitsCRT@_W@ATL@@@@@ATL@@V12@@std@@@4@$0A@@std@@@2@PAU342@@Z 00422a10 f i DlgProcessList.obj
 0001:00021a20       ?_Myval@?$_Tree@V?$_Tmap_traits@V?$CStringT@_WV?$StrTraitMFC_DLL@_WV?$ChTraitsCRT@_W@ATL@@@@@ATL@@V12@U?$less@V?$CStringT@_WV?$StrTraitMFC_DLL@_WV?$ChTraitsCRT@_W@ATL@@@@@ATL@@@std@@V?$allocator@U?$pair@$$CBV?$CStringT@_WV?$StrTraitMFC_DLL@_WV?$ChTraitsCRT@_W@ATL@@@@@ATL@@V12@@std@@@4@$0A@@std@@@std@@KAAAU?$pair@$$CBV?$CStringT@_WV?$StrTraitMFC_DLL@_WV?$ChTraitsCRT@_W@ATL@@@@@ATL@@V12@@2@PAU_Node@?$_Tree_nod@V?$_Tmap_traits@V?$CStringT@_WV?$StrTraitMFC_DLL@_WV?$ChTraitsCRT@_W@ATL@@@@@ATL@@V12@U?$less@V?$CStringT@_WV?$StrTraitMFC_DLL@_WV?$ChTraitsCRT@_W@ATL@@@@@ATL@@@std@@V?$allocator@U?$pair@$$CBV?$CStringT@_WV?$StrTraitMFC_DLL@_WV?$ChTraitsCRT@_W@ATL@@@@@ATL@@V12@@std@@@4@$0A@@std@@@2@@Z 00422a20 f i DlgProcessList.obj
 0001:00021a30       ?begin@?$_Tree@V?$_Tmap_traits@V?$CStringT@_WV?$StrTraitMFC_DLL@_WV?$ChTraitsCRT@_W@ATL@@@@@ATL@@V12@U?$less@V?$CStringT@_WV?$StrTraitMFC_DLL@_WV?$ChTraitsCRT@_W@ATL@@@@@ATL@@@std@@V?$allocator@U?$pair@$$CBV?$CStringT@_WV?$StrTraitMFC_DLL@_WV?$ChTraitsCRT@_W@ATL@@@@@ATL@@V12@@std@@@4@$0A@@std@@@std@@QAE?AViterator@12@XZ 00422a30 f i DlgProcessList.obj
 0001:00021a70       ?size@?$_Tree@V?$_Tmap_traits@V?$CStringT@_WV?$StrTraitMFC_DLL@_WV?$ChTraitsCRT@_W@ATL@@@@@ATL@@V12@U?$less@V?$CStringT@_WV?$StrTraitMFC_DLL@_WV?$ChTraitsCRT@_W@ATL@@@@@ATL@@@std@@V?$allocator@U?$pair@$$CBV?$CStringT@_WV?$StrTraitMFC_DLL@_WV?$ChTraitsCRT@_W@ATL@@@@@ATL@@V12@@std@@@4@$0A@@std@@@std@@QBEIXZ 00422a70 f i DlgProcessList.obj
 0001:00021a90       ?insert@?$_Tree@V?$_Tmap_traits@V?$CStringT@_WV?$StrTraitMFC_DLL@_WV?$ChTraitsCRT@_W@ATL@@@@@ATL@@V12@U?$less@V?$CStringT@_WV?$StrTraitMFC_DLL@_WV?$ChTraitsCRT@_W@ATL@@@@@ATL@@@std@@V?$allocator@U?$pair@$$CBV?$CStringT@_WV?$StrTraitMFC_DLL@_WV?$ChTraitsCRT@_W@ATL@@@@@ATL@@V12@@std@@@4@$0A@@std@@@std@@QAE?AU?$pair@Viterator@?$_Tree@V?$_Tmap_traits@V?$CStringT@_WV?$StrTraitMFC_DLL@_WV?$ChTraitsCRT@_W@ATL@@@@@ATL@@V12@U?$less@V?$CStringT@_WV?$StrTraitMFC_DLL@_WV?$ChTraitsCRT@_W@ATL@@@@@ATL@@@std@@V?$allocator@U?$pair@$$CBV?$CStringT@_WV?$StrTraitMFC_DLL@_WV?$ChTraitsCRT@_W@ATL@@@@@ATL@@V12@@std@@@4@$0A@@std@@@std@@_N@2@ABU?$pair@$$CBV?$CStringT@_WV?$StrTraitMFC_DLL@_WV?$ChTraitsCRT@_W@ATL@@@@@ATL@@V12@@2@@Z 00422a90 f i DlgProcessList.obj
 0001:00021da0       ?erase@?$_Tree@V?$_Tmap_traits@V?$CStringT@_WV?$StrTraitMFC_DLL@_WV?$ChTraitsCRT@_W@ATL@@@@@ATL@@V12@U?$less@V?$CStringT@_WV?$StrTraitMFC_DLL@_WV?$ChTraitsCRT@_W@ATL@@@@@ATL@@@std@@V?$allocator@U?$pair@$$CBV?$CStringT@_WV?$StrTraitMFC_DLL@_WV?$ChTraitsCRT@_W@ATL@@@@@ATL@@V12@@std@@@4@$0A@@std@@@std@@QAE?AViterator@12@Vconst_iterator@12@0@Z 00422da0 f i DlgProcessList.obj
 0001:00021f90       ?_Init@?$_Tree@V?$_Tmap_traits@V?$CStringT@_WV?$StrTraitMFC_DLL@_WV?$ChTraitsCRT@_W@ATL@@@@@ATL@@V12@U?$less@V?$CStringT@_WV?$StrTraitMFC_DLL@_WV?$ChTraitsCRT@_W@ATL@@@@@ATL@@@std@@V?$allocator@U?$pair@$$CBV?$CStringT@_WV?$StrTraitMFC_DLL@_WV?$ChTraitsCRT@_W@ATL@@@@@ATL@@V12@@std@@@4@$0A@@std@@@std@@IAEXXZ 00422f90 f i DlgProcessList.obj
 0001:00022000       ?_Insert@?$_Tree@V?$_Tmap_traits@V?$CStringT@_WV?$StrTraitMFC_DLL@_WV?$ChTraitsCRT@_W@ATL@@@@@ATL@@V12@U?$less@V?$CStringT@_WV?$StrTraitMFC_DLL@_WV?$ChTraitsCRT@_W@ATL@@@@@ATL@@@std@@V?$allocator@U?$pair@$$CBV?$CStringT@_WV?$StrTraitMFC_DLL@_WV?$ChTraitsCRT@_W@ATL@@@@@ATL@@V12@@std@@@4@$0A@@std@@@std@@IAE?AViterator@12@_NPAU_Node@?$_Tree_nod@V?$_Tmap_traits@V?$CStringT@_WV?$StrTraitMFC_DLL@_WV?$ChTraitsCRT@_W@ATL@@@@@ATL@@V12@U?$less@V?$CStringT@_WV?$StrTraitMFC_DLL@_WV?$ChTraitsCRT@_W@ATL@@@@@ATL@@@std@@V?$allocator@U?$pair@$$CBV?$CStringT@_WV?$StrTraitMFC_DLL@_WV?$ChTraitsCRT@_W@ATL@@@@@ATL@@V12@@std@@@4@$0A@@std@@@2@ABU?$pair@$$CBV?$CStringT@_WV?$StrTraitMFC_DLL@_WV?$ChTraitsCRT@_W@ATL@@@@@ATL@@V12@@2@@Z 00423000 f i DlgProcessList.obj
 0001:00022490       ?_Lbound@?$_Tree@V?$_Tmap_traits@V?$CStringT@_WV?$StrTraitMFC_DLL@_WV?$ChTraitsCRT@_W@ATL@@@@@ATL@@V12@U?$less@V?$CStringT@_WV?$StrTraitMFC_DLL@_WV?$ChTraitsCRT@_W@ATL@@@@@ATL@@@std@@V?$allocator@U?$pair@$$CBV?$CStringT@_WV?$StrTraitMFC_DLL@_WV?$ChTraitsCRT@_W@ATL@@@@@ATL@@V12@@std@@@4@$0A@@std@@@std@@IBEPAU_Node@?$_Tree_nod@V?$_Tmap_traits@V?$CStringT@_WV?$StrTraitMFC_DLL@_WV?$ChTraitsCRT@_W@ATL@@@@@ATL@@V12@U?$less@V?$CStringT@_WV?$StrTraitMFC_DLL@_WV?$ChTraitsCRT@_W@ATL@@@@@ATL@@@std@@V?$allocator@U?$pair@$$CBV?$CStringT@_WV?$StrTraitMFC_DLL@_WV?$ChTraitsCRT@_W@ATL@@@@@ATL@@V12@@std@@@4@$0A@@std@@@2@ABV?$CStringT@_WV?$StrTraitMFC_DLL@_WV?$ChTraitsCRT@_W@ATL@@@@@ATL@@@Z 00423490 f i DlgProcessList.obj
 0001:00022530       ?_Rmost@?$_Tree@V?$_Tmap_traits@V?$CStringT@_WV?$StrTraitMFC_DLL@_WV?$ChTraitsCRT@_W@ATL@@@@@ATL@@V12@U?$less@V?$CStringT@_WV?$StrTraitMFC_DLL@_WV?$ChTraitsCRT@_W@ATL@@@@@ATL@@@std@@V?$allocator@U?$pair@$$CBV?$CStringT@_WV?$StrTraitMFC_DLL@_WV?$ChTraitsCRT@_W@ATL@@@@@ATL@@V12@@std@@@4@$0A@@std@@@std@@IBEAAPAU_Node@?$_Tree_nod@V?$_Tmap_traits@V?$CStringT@_WV?$StrTraitMFC_DLL@_WV?$ChTraitsCRT@_W@ATL@@@@@ATL@@V12@U?$less@V?$CStringT@_WV?$StrTraitMFC_DLL@_WV?$ChTraitsCRT@_W@ATL@@@@@ATL@@@std@@V?$allocator@U?$pair@$$CBV?$CStringT@_WV?$StrTraitMFC_DLL@_WV?$ChTraitsCRT@_W@ATL@@@@@ATL@@V12@@std@@@4@$0A@@std@@@2@XZ 00423530 f i DlgProcessList.obj
 0001:00022550       ??0?$_Tree_val@V?$_Tmap_traits@V?$CStringT@_WV?$StrTraitMFC_DLL@_WV?$ChTraitsCRT@_W@ATL@@@@@ATL@@V12@U?$less@V?$CStringT@_WV?$StrTraitMFC_DLL@_WV?$ChTraitsCRT@_W@ATL@@@@@ATL@@@std@@V?$allocator@U?$pair@$$CBV?$CStringT@_WV?$StrTraitMFC_DLL@_WV?$ChTraitsCRT@_W@ATL@@@@@ATL@@V12@@std@@@4@$0A@@std@@@std@@IAE@ABU?$less@V?$CStringT@_WV?$StrTraitMFC_DLL@_WV?$ChTraitsCRT@_W@ATL@@@@@ATL@@@1@V?$allocator@U?$pair@$$CBV?$CStringT@_WV?$StrTraitMFC_DLL@_WV?$ChTraitsCRT@_W@ATL@@@@@ATL@@V12@@std@@@1@@Z 00423550 f i DlgProcessList.obj
 0001:00022590       ?_Kfn@?$_Tmap_traits@V?$CStringT@_WV?$StrTraitMFC_DLL@_WV?$ChTraitsCRT@_W@ATL@@@@@ATL@@V12@U?$less@V?$CStringT@_WV?$StrTraitMFC_DLL@_WV?$ChTraitsCRT@_W@ATL@@@@@ATL@@@std@@V?$allocator@U?$pair@$$CBV?$CStringT@_WV?$StrTraitMFC_DLL@_WV?$ChTraitsCRT@_W@ATL@@@@@ATL@@V12@@std@@@4@$0A@@std@@SAABV?$CStringT@_WV?$StrTraitMFC_DLL@_WV?$ChTraitsCRT@_W@ATL@@@@@ATL@@ABU?$pair@$$CBV?$CStringT@_WV?$StrTraitMFC_DLL@_WV?$ChTraitsCRT@_W@ATL@@@@@ATL@@V12@@2@@Z 00423590 f i DlgProcessList.obj
 0001:000225a0       ??0?$allocator@U?$pair@$$CBV?$CStringT@_WV?$StrTraitMFC_DLL@_WV?$ChTraitsCRT@_W@ATL@@@@@ATL@@V12@@std@@@std@@QAE@ABV01@@Z 004235a0 f i DlgProcessList.obj
 0001:000225b0       ?deallocate@?$allocator@U_Node@?$_Tree_nod@V?$_Tmap_traits@V?$CStringT@_WV?$StrTraitMFC_DLL@_WV?$ChTraitsCRT@_W@ATL@@@@@ATL@@V12@U?$less@V?$CStringT@_WV?$StrTraitMFC_DLL@_WV?$ChTraitsCRT@_W@ATL@@@@@ATL@@@std@@V?$allocator@U?$pair@$$CBV?$CStringT@_WV?$StrTraitMFC_DLL@_WV?$ChTraitsCRT@_W@ATL@@@@@ATL@@V12@@std@@@4@$0A@@std@@@std@@@std@@QAEXPAU_Node@?$_Tree_nod@V?$_Tmap_traits@V?$CStringT@_WV?$StrTraitMFC_DLL@_WV?$ChTraitsCRT@_W@ATL@@@@@ATL@@V12@U?$less@V?$CStringT@_WV?$StrTraitMFC_DLL@_WV?$ChTraitsCRT@_W@ATL@@@@@ATL@@@std@@V?$allocator@U?$pair@$$CBV?$CStringT@_WV?$StrTraitMFC_DLL@_WV?$ChTraitsCRT@_W@ATL@@@@@ATL@@V12@@std@@@4@$0A@@std@@@2@I@Z 004235b0 f i DlgProcessList.obj
 0001:000225d0       ?destroy@?$allocator@PAU_Node@?$_Tree_nod@V?$_Tmap_traits@V?$CStringT@_WV?$StrTraitMFC_DLL@_WV?$ChTraitsCRT@_W@ATL@@@@@ATL@@V12@U?$less@V?$CStringT@_WV?$StrTraitMFC_DLL@_WV?$ChTraitsCRT@_W@ATL@@@@@ATL@@@std@@V?$allocator@U?$pair@$$CBV?$CStringT@_WV?$StrTraitMFC_DLL@_WV?$ChTraitsCRT@_W@ATL@@@@@ATL@@V12@@std@@@4@$0A@@std@@@std@@@std@@QAEXPAPAU_Node@?$_Tree_nod@V?$_Tmap_traits@V?$CStringT@_WV?$StrTraitMFC_DLL@_WV?$ChTraitsCRT@_W@ATL@@@@@ATL@@V12@U?$less@V?$CStringT@_WV?$StrTraitMFC_DLL@_WV?$ChTraitsCRT@_W@ATL@@@@@ATL@@@std@@V?$allocator@U?$pair@$$CBV?$CStringT@_WV?$StrTraitMFC_DLL@_WV?$ChTraitsCRT@_W@ATL@@@@@ATL@@V12@@std@@@4@$0A@@std@@@2@@Z 004235d0 f i DlgProcessList.obj
 0001:000225f0       ??H?$_Vector_iterator@UPROCESS_INFO@@V?$allocator@UPROCESS_INFO@@@std@@@std@@QBE?AV01@H@Z 004235f0 f i DlgProcessList.obj
 0001:00022670       ??0?$_Vector_const_iterator@UPROCESS_INFO@@V?$allocator@UPROCESS_INFO@@@std@@@std@@QAE@PAUPROCESS_INFO@@PBV_Container_base_secure@1@@Z 00423670 f i DlgProcessList.obj
 0001:00022740       ??G?$_Vector_const_iterator@UPROCESS_INFO@@V?$allocator@UPROCESS_INFO@@@std@@@std@@QBEHABV01@@Z 00423740 f i DlgProcessList.obj
 0001:00022770       ??M?$_Vector_const_iterator@UPROCESS_INFO@@V?$allocator@UPROCESS_INFO@@@std@@@std@@QBE_NABV01@@Z 00423770 f i DlgProcessList.obj
 0001:000227a0       ?_Compat@?$_Vector_const_iterator@UPROCESS_INFO@@V?$allocator@UPROCESS_INFO@@@std@@@std@@QBEXABV12@@Z 004237a0 f i DlgProcessList.obj
 0001:00022820       ??0const_iterator@?$_Tree@V?$_Tmap_traits@V?$CStringT@_WV?$StrTraitMFC_DLL@_WV?$ChTraitsCRT@_W@ATL@@@@@ATL@@V12@U?$less@V?$CStringT@_WV?$StrTraitMFC_DLL@_WV?$ChTraitsCRT@_W@ATL@@@@@ATL@@@std@@V?$allocator@U?$pair@$$CBV?$CStringT@_WV?$StrTraitMFC_DLL@_WV?$ChTraitsCRT@_W@ATL@@@@@ATL@@V12@@std@@@4@$0A@@std@@@std@@QAE@XZ 00423820 f i DlgProcessList.obj
 0001:00022840       ??0const_iterator@?$_Tree@V?$_Tmap_traits@V?$CStringT@_WV?$StrTraitMFC_DLL@_WV?$ChTraitsCRT@_W@ATL@@@@@ATL@@V12@U?$less@V?$CStringT@_WV?$StrTraitMFC_DLL@_WV?$ChTraitsCRT@_W@ATL@@@@@ATL@@@std@@V?$allocator@U?$pair@$$CBV?$CStringT@_WV?$StrTraitMFC_DLL@_WV?$ChTraitsCRT@_W@ATL@@@@@ATL@@V12@@std@@@4@$0A@@std@@@std@@QAE@PAU_Node@?$_Tree_nod@V?$_Tmap_traits@V?$CStringT@_WV?$StrTraitMFC_DLL@_WV?$ChTraitsCRT@_W@ATL@@@@@ATL@@V12@U?$less@V?$CStringT@_WV?$StrTraitMFC_DLL@_WV?$ChTraitsCRT@_W@ATL@@@@@ATL@@@std@@V?$allocator@U?$pair@$$CBV?$CStringT@_WV?$StrTraitMFC_DLL@_WV?$ChTraitsCRT@_W@ATL@@@@@ATL@@V12@@std@@@4@$0A@@std@@@2@PBV12@@Z 00423840 f i DlgProcessList.obj
 0001:000228b0       ??Dconst_iterator@?$_Tree@V?$_Tmap_traits@V?$CStringT@_WV?$StrTraitMFC_DLL@_WV?$ChTraitsCRT@_W@ATL@@@@@ATL@@V12@U?$less@V?$CStringT@_WV?$StrTraitMFC_DLL@_WV?$ChTraitsCRT@_W@ATL@@@@@ATL@@@std@@V?$allocator@U?$pair@$$CBV?$CStringT@_WV?$StrTraitMFC_DLL@_WV?$ChTraitsCRT@_W@ATL@@@@@ATL@@V12@@std@@@4@$0A@@std@@@std@@QBEABU?$pair@$$CBV?$CStringT@_WV?$StrTraitMFC_DLL@_WV?$ChTraitsCRT@_W@ATL@@@@@ATL@@V12@@2@XZ 004238b0 f i DlgProcessList.obj
 0001:00022950       ??Econst_iterator@?$_Tree@V?$_Tmap_traits@V?$CStringT@_WV?$StrTraitMFC_DLL@_WV?$ChTraitsCRT@_W@ATL@@@@@ATL@@V12@U?$less@V?$CStringT@_WV?$StrTraitMFC_DLL@_WV?$ChTraitsCRT@_W@ATL@@@@@ATL@@@std@@V?$allocator@U?$pair@$$CBV?$CStringT@_WV?$StrTraitMFC_DLL@_WV?$ChTraitsCRT@_W@ATL@@@@@ATL@@V12@@std@@@4@$0A@@std@@@std@@QAEAAV012@XZ 00423950 f i DlgProcessList.obj
 0001:00022970       ??Fconst_iterator@?$_Tree@V?$_Tmap_traits@V?$CStringT@_WV?$StrTraitMFC_DLL@_WV?$ChTraitsCRT@_W@ATL@@@@@ATL@@V12@U?$less@V?$CStringT@_WV?$StrTraitMFC_DLL@_WV?$ChTraitsCRT@_W@ATL@@@@@ATL@@@std@@V?$allocator@U?$pair@$$CBV?$CStringT@_WV?$StrTraitMFC_DLL@_WV?$ChTraitsCRT@_W@ATL@@@@@ATL@@V12@@std@@@4@$0A@@std@@@std@@QAEAAV012@XZ 00423970 f i DlgProcessList.obj
 0001:00022990       ??0?$_Vector_iterator@UPROCESS_INFO@@V?$allocator@UPROCESS_INFO@@@std@@@std@@QAE@ABV01@@Z 00423990 f i DlgProcessList.obj
 0001:000229b0       ??0?$_Ranit@UPROCESS_INFO@@HPBU1@ABU1@@std@@QAE@XZ 004239b0 f i DlgProcessList.obj
 0001:000229d0       ??0?$_Bidit@U?$pair@$$CBV?$CStringT@_WV?$StrTraitMFC_DLL@_WV?$ChTraitsCRT@_W@ATL@@@@@ATL@@V12@@std@@HPBU12@ABU12@@std@@QAE@XZ 004239d0 f i DlgProcessList.obj
 0001:000229f0       ??0?$_Iterator_with_base@Urandom_access_iterator_tag@std@@UPROCESS_INFO@@HPBU3@ABU3@V_Iterator_base@2@@std@@QAE@XZ 004239f0 f i DlgProcessList.obj
 0001:00022a10       ??0?$_Iterator_with_base@Ubidirectional_iterator_tag@std@@U?$pair@$$CBV?$CStringT@_WV?$StrTraitMFC_DLL@_WV?$ChTraitsCRT@_W@ATL@@@@@ATL@@V12@@2@HPBU32@ABU32@V_Iterator_base@2@@std@@QAE@XZ 00423a10 f i DlgProcessList.obj
 0001:00022a30       ?max_size@?$allocator@UPROCESS_INFO@@@std@@QBEIXZ 00423a30 f i DlgProcessList.obj
 0001:00022a60       ?_Color@?$_Tree@V?$_Tmap_traits@V?$CStringT@_WV?$StrTraitMFC_DLL@_WV?$ChTraitsCRT@_W@ATL@@@@@ATL@@V12@U?$less@V?$CStringT@_WV?$StrTraitMFC_DLL@_WV?$ChTraitsCRT@_W@ATL@@@@@ATL@@@std@@V?$allocator@U?$pair@$$CBV?$CStringT@_WV?$StrTraitMFC_DLL@_WV?$ChTraitsCRT@_W@ATL@@@@@ATL@@V12@@std@@@4@$0A@@std@@@std@@KAAADPAU_Node@?$_Tree_nod@V?$_Tmap_traits@V?$CStringT@_WV?$StrTraitMFC_DLL@_WV?$ChTraitsCRT@_W@ATL@@@@@ATL@@V12@U?$less@V?$CStringT@_WV?$StrTraitMFC_DLL@_WV?$ChTraitsCRT@_W@ATL@@@@@ATL@@@std@@V?$allocator@U?$pair@$$CBV?$CStringT@_WV?$StrTraitMFC_DLL@_WV?$ChTraitsCRT@_W@ATL@@@@@ATL@@V12@@std@@@4@$0A@@std@@@2@@Z 00423a60 f i DlgProcessList.obj
 0001:00022a70       ?_Make_iter@?$_Tree@V?$_Tmap_traits@V?$CStringT@_WV?$StrTraitMFC_DLL@_WV?$ChTraitsCRT@_W@ATL@@@@@ATL@@V12@U?$less@V?$CStringT@_WV?$StrTraitMFC_DLL@_WV?$ChTraitsCRT@_W@ATL@@@@@ATL@@@std@@V?$allocator@U?$pair@$$CBV?$CStringT@_WV?$StrTraitMFC_DLL@_WV?$ChTraitsCRT@_W@ATL@@@@@ATL@@V12@@std@@@4@$0A@@std@@@std@@QBE?AViterator@12@Vconst_iterator@12@@Z 00423a70 f i DlgProcessList.obj
 0001:00022b10       ?max_size@?$_Tree@V?$_Tmap_traits@V?$CStringT@_WV?$StrTraitMFC_DLL@_WV?$ChTraitsCRT@_W@ATL@@@@@ATL@@V12@U?$less@V?$CStringT@_WV?$StrTraitMFC_DLL@_WV?$ChTraitsCRT@_W@ATL@@@@@ATL@@@std@@V?$allocator@U?$pair@$$CBV?$CStringT@_WV?$StrTraitMFC_DLL@_WV?$ChTraitsCRT@_W@ATL@@@@@ATL@@V12@@std@@@4@$0A@@std@@@std@@QBEIXZ 00423b10 f i DlgProcessList.obj
 0001:00022b30       ?erase@?$_Tree@V?$_Tmap_traits@V?$CStringT@_WV?$StrTraitMFC_DLL@_WV?$ChTraitsCRT@_W@ATL@@@@@ATL@@V12@U?$less@V?$CStringT@_WV?$StrTraitMFC_DLL@_WV?$ChTraitsCRT@_W@ATL@@@@@ATL@@@std@@V?$allocator@U?$pair@$$CBV?$CStringT@_WV?$StrTraitMFC_DLL@_WV?$ChTraitsCRT@_W@ATL@@@@@ATL@@V12@@std@@@4@$0A@@std@@@std@@QAE?AViterator@12@Vconst_iterator@12@@Z 00423b30 f i DlgProcessList.obj
 0001:00023330       ?clear@?$_Tree@V?$_Tmap_traits@V?$CStringT@_WV?$StrTraitMFC_DLL@_WV?$ChTraitsCRT@_W@ATL@@@@@ATL@@V12@U?$less@V?$CStringT@_WV?$StrTraitMFC_DLL@_WV?$ChTraitsCRT@_W@ATL@@@@@ATL@@@std@@V?$allocator@U?$pair@$$CBV?$CStringT@_WV?$StrTraitMFC_DLL@_WV?$ChTraitsCRT@_W@ATL@@@@@ATL@@V12@@std@@@4@$0A@@std@@@std@@QAEXXZ 00424330 f i DlgProcessList.obj
 0001:000233a0       ?_Lmost@?$_Tree@V?$_Tmap_traits@V?$CStringT@_WV?$StrTraitMFC_DLL@_WV?$ChTraitsCRT@_W@ATL@@@@@ATL@@V12@U?$less@V?$CStringT@_WV?$StrTraitMFC_DLL@_WV?$ChTraitsCRT@_W@ATL@@@@@ATL@@@std@@V?$allocator@U?$pair@$$CBV?$CStringT@_WV?$StrTraitMFC_DLL@_WV?$ChTraitsCRT@_W@ATL@@@@@ATL@@V12@@std@@@4@$0A@@std@@@std@@IBEAAPAU_Node@?$_Tree_nod@V?$_Tmap_traits@V?$CStringT@_WV?$StrTraitMFC_DLL@_WV?$ChTraitsCRT@_W@ATL@@@@@ATL@@V12@U?$less@V?$CStringT@_WV?$StrTraitMFC_DLL@_WV?$ChTraitsCRT@_W@ATL@@@@@ATL@@@std@@V?$allocator@U?$pair@$$CBV?$CStringT@_WV?$StrTraitMFC_DLL@_WV?$ChTraitsCRT@_W@ATL@@@@@ATL@@V12@@std@@@4@$0A@@std@@@2@XZ 004243a0 f i DlgProcessList.obj
 0001:000233c0       ?_Lrotate@?$_Tree@V?$_Tmap_traits@V?$CStringT@_WV?$StrTraitMFC_DLL@_WV?$ChTraitsCRT@_W@ATL@@@@@ATL@@V12@U?$less@V?$CStringT@_WV?$StrTraitMFC_DLL@_WV?$ChTraitsCRT@_W@ATL@@@@@ATL@@@std@@V?$allocator@U?$pair@$$CBV?$CStringT@_WV?$StrTraitMFC_DLL@_WV?$ChTraitsCRT@_W@ATL@@@@@ATL@@V12@@std@@@4@$0A@@std@@@std@@IAEXPAU_Node@?$_Tree_nod@V?$_Tmap_traits@V?$CStringT@_WV?$StrTraitMFC_DLL@_WV?$ChTraitsCRT@_W@ATL@@@@@ATL@@V12@U?$less@V?$CStringT@_WV?$StrTraitMFC_DLL@_WV?$ChTraitsCRT@_W@ATL@@@@@ATL@@@std@@V?$allocator@U?$pair@$$CBV?$CStringT@_WV?$StrTraitMFC_DLL@_WV?$ChTraitsCRT@_W@ATL@@@@@ATL@@V12@@std@@@4@$0A@@std@@@2@@Z 004243c0 f i DlgProcessList.obj
 0001:000234f0       ?_Root@?$_Tree@V?$_Tmap_traits@V?$CStringT@_WV?$StrTraitMFC_DLL@_WV?$ChTraitsCRT@_W@ATL@@@@@ATL@@V12@U?$less@V?$CStringT@_WV?$StrTraitMFC_DLL@_WV?$ChTraitsCRT@_W@ATL@@@@@ATL@@@std@@V?$allocator@U?$pair@$$CBV?$CStringT@_WV?$StrTraitMFC_DLL@_WV?$ChTraitsCRT@_W@ATL@@@@@ATL@@V12@@std@@@4@$0A@@std@@@std@@IBEAAPAU_Node@?$_Tree_nod@V?$_Tmap_traits@V?$CStringT@_WV?$StrTraitMFC_DLL@_WV?$ChTraitsCRT@_W@ATL@@@@@ATL@@V12@U?$less@V?$CStringT@_WV?$StrTraitMFC_DLL@_WV?$ChTraitsCRT@_W@ATL@@@@@ATL@@@std@@V?$allocator@U?$pair@$$CBV?$CStringT@_WV?$StrTraitMFC_DLL@_WV?$ChTraitsCRT@_W@ATL@@@@@ATL@@V12@@std@@@4@$0A@@std@@@2@XZ 004244f0 f i DlgProcessList.obj
 0001:00023510       ?_Rrotate@?$_Tree@V?$_Tmap_traits@V?$CStringT@_WV?$StrTraitMFC_DLL@_WV?$ChTraitsCRT@_W@ATL@@@@@ATL@@V12@U?$less@V?$CStringT@_WV?$StrTraitMFC_DLL@_WV?$ChTraitsCRT@_W@ATL@@@@@ATL@@@std@@V?$allocator@U?$pair@$$CBV?$CStringT@_WV?$StrTraitMFC_DLL@_WV?$ChTraitsCRT@_W@ATL@@@@@ATL@@V12@@std@@@4@$0A@@std@@@std@@IAEXPAU_Node@?$_Tree_nod@V?$_Tmap_traits@V?$CStringT@_WV?$StrTraitMFC_DLL@_WV?$ChTraitsCRT@_W@ATL@@@@@ATL@@V12@U?$less@V?$CStringT@_WV?$StrTraitMFC_DLL@_WV?$ChTraitsCRT@_W@ATL@@@@@ATL@@@std@@V?$allocator@U?$pair@$$CBV?$CStringT@_WV?$StrTraitMFC_DLL@_WV?$ChTraitsCRT@_W@ATL@@@@@ATL@@V12@@std@@@4@$0A@@std@@@2@@Z 00424510 f i DlgProcessList.obj
 0001:00023640       ?_Buynode@?$_Tree@V?$_Tmap_traits@V?$CStringT@_WV?$StrTraitMFC_DLL@_WV?$ChTraitsCRT@_W@ATL@@@@@ATL@@V12@U?$less@V?$CStringT@_WV?$StrTraitMFC_DLL@_WV?$ChTraitsCRT@_W@ATL@@@@@ATL@@@std@@V?$allocator@U?$pair@$$CBV?$CStringT@_WV?$StrTraitMFC_DLL@_WV?$ChTraitsCRT@_W@ATL@@@@@ATL@@V12@@std@@@4@$0A@@std@@@std@@IAEPAU_Node@?$_Tree_nod@V?$_Tmap_traits@V?$CStringT@_WV?$StrTraitMFC_DLL@_WV?$ChTraitsCRT@_W@ATL@@@@@ATL@@V12@U?$less@V?$CStringT@_WV?$StrTraitMFC_DLL@_WV?$ChTraitsCRT@_W@ATL@@@@@ATL@@@std@@V?$allocator@U?$pair@$$CBV?$CStringT@_WV?$StrTraitMFC_DLL@_WV?$ChTraitsCRT@_W@ATL@@@@@ATL@@V12@@std@@@4@$0A@@std@@@2@XZ 00424640 f i DlgProcessList.obj
 0001:000237c0       ?_Buynode@?$_Tree@V?$_Tmap_traits@V?$CStringT@_WV?$StrTraitMFC_DLL@_WV?$ChTraitsCRT@_W@ATL@@@@@ATL@@V12@U?$less@V?$CStringT@_WV?$StrTraitMFC_DLL@_WV?$ChTraitsCRT@_W@ATL@@@@@ATL@@@std@@V?$allocator@U?$pair@$$CBV?$CStringT@_WV?$StrTraitMFC_DLL@_WV?$ChTraitsCRT@_W@ATL@@@@@ATL@@V12@@std@@@4@$0A@@std@@@std@@IAEPAU_Node@?$_Tree_nod@V?$_Tmap_traits@V?$CStringT@_WV?$StrTraitMFC_DLL@_WV?$ChTraitsCRT@_W@ATL@@@@@ATL@@V12@U?$less@V?$CStringT@_WV?$StrTraitMFC_DLL@_WV?$ChTraitsCRT@_W@ATL@@@@@ATL@@@std@@V?$allocator@U?$pair@$$CBV?$CStringT@_WV?$StrTraitMFC_DLL@_WV?$ChTraitsCRT@_W@ATL@@@@@ATL@@V12@@std@@@4@$0A@@std@@@2@PAU342@00ABU?$pair@$$CBV?$CStringT@_WV?$StrTraitMFC_DLL@_WV?$ChTraitsCRT@_W@ATL@@@@@ATL@@V12@@2@D@Z 004247c0 f i DlgProcessList.obj
 0001:000238b0       ??0?$_Tree_ptr@V?$_Tmap_traits@V?$CStringT@_WV?$StrTraitMFC_DLL@_WV?$ChTraitsCRT@_W@ATL@@@@@ATL@@V12@U?$less@V?$CStringT@_WV?$StrTraitMFC_DLL@_WV?$ChTraitsCRT@_W@ATL@@@@@ATL@@@std@@V?$allocator@U?$pair@$$CBV?$CStringT@_WV?$StrTraitMFC_DLL@_WV?$ChTraitsCRT@_W@ATL@@@@@ATL@@V12@@std@@@4@$0A@@std@@@std@@QAE@ABU?$less@V?$CStringT@_WV?$StrTraitMFC_DLL@_WV?$ChTraitsCRT@_W@ATL@@@@@ATL@@@1@V?$allocator@U?$pair@$$CBV?$CStringT@_WV?$StrTraitMFC_DLL@_WV?$ChTraitsCRT@_W@ATL@@@@@ATL@@V12@@std@@@1@@Z 004248b0 f i DlgProcessList.obj
 0001:000238f0       ??Y?$_Vector_iterator@UPROCESS_INFO@@V?$allocator@UPROCESS_INFO@@@std@@@std@@QAEAAV01@H@Z 004248f0 f i DlgProcessList.obj
 0001:00023910       ??Fiterator@?$_Tree@V?$_Tmap_traits@V?$CStringT@_WV?$StrTraitMFC_DLL@_WV?$ChTraitsCRT@_W@ATL@@@@@ATL@@V12@U?$less@V?$CStringT@_WV?$StrTraitMFC_DLL@_WV?$ChTraitsCRT@_W@ATL@@@@@ATL@@@std@@V?$allocator@U?$pair@$$CBV?$CStringT@_WV?$StrTraitMFC_DLL@_WV?$ChTraitsCRT@_W@ATL@@@@@ATL@@V12@@std@@@4@$0A@@std@@@std@@QAEAAV012@XZ 00424910 f i DlgProcessList.obj
 0001:00023930       ??Econst_iterator@?$_Tree@V?$_Tmap_traits@V?$CStringT@_WV?$StrTraitMFC_DLL@_WV?$ChTraitsCRT@_W@ATL@@@@@ATL@@V12@U?$less@V?$CStringT@_WV?$StrTraitMFC_DLL@_WV?$ChTraitsCRT@_W@ATL@@@@@ATL@@@std@@V?$allocator@U?$pair@$$CBV?$CStringT@_WV?$StrTraitMFC_DLL@_WV?$ChTraitsCRT@_W@ATL@@@@@ATL@@V12@@std@@@4@$0A@@std@@@std@@QAE?AV012@H@Z 00424930 f i DlgProcessList.obj
 0001:000239b0       ??9const_iterator@?$_Tree@V?$_Tmap_traits@V?$CStringT@_WV?$StrTraitMFC_DLL@_WV?$ChTraitsCRT@_W@ATL@@@@@ATL@@V12@U?$less@V?$CStringT@_WV?$StrTraitMFC_DLL@_WV?$ChTraitsCRT@_W@ATL@@@@@ATL@@@std@@V?$allocator@U?$pair@$$CBV?$CStringT@_WV?$StrTraitMFC_DLL@_WV?$ChTraitsCRT@_W@ATL@@@@@ATL@@V12@@std@@@4@$0A@@std@@@std@@QBE_NABV012@@Z 004249b0 f i DlgProcessList.obj
 0001:000239e0       ?_Dec@const_iterator@?$_Tree@V?$_Tmap_traits@V?$CStringT@_WV?$StrTraitMFC_DLL@_WV?$ChTraitsCRT@_W@ATL@@@@@ATL@@V12@U?$less@V?$CStringT@_WV?$StrTraitMFC_DLL@_WV?$ChTraitsCRT@_W@ATL@@@@@ATL@@@std@@V?$allocator@U?$pair@$$CBV?$CStringT@_WV?$StrTraitMFC_DLL@_WV?$ChTraitsCRT@_W@ATL@@@@@ATL@@V12@@std@@@4@$0A@@std@@@std@@QAEXXZ 004249e0 f i DlgProcessList.obj
 0001:00023c10       ?_Inc@const_iterator@?$_Tree@V?$_Tmap_traits@V?$CStringT@_WV?$StrTraitMFC_DLL@_WV?$ChTraitsCRT@_W@ATL@@@@@ATL@@V12@U?$less@V?$CStringT@_WV?$StrTraitMFC_DLL@_WV?$ChTraitsCRT@_W@ATL@@@@@ATL@@@std@@V?$allocator@U?$pair@$$CBV?$CStringT@_WV?$StrTraitMFC_DLL@_WV?$ChTraitsCRT@_W@ATL@@@@@ATL@@V12@@std@@@4@$0A@@std@@@std@@QAEXXZ 00424c10 f i DlgProcessList.obj
 0001:00023d40       ??0?$pair@Viterator@?$_Tree@V?$_Tmap_traits@V?$CStringT@_WV?$StrTraitMFC_DLL@_WV?$ChTraitsCRT@_W@ATL@@@@@ATL@@V12@U?$less@V?$CStringT@_WV?$StrTraitMFC_DLL@_WV?$ChTraitsCRT@_W@ATL@@@@@ATL@@@std@@V?$allocator@U?$pair@$$CBV?$CStringT@_WV?$StrTraitMFC_DLL@_WV?$ChTraitsCRT@_W@ATL@@@@@ATL@@V12@@std@@@4@$0A@@std@@@std@@_N@std@@QAE@ABViterator@?$_Tree@V?$_Tmap_traits@V?$CStringT@_WV?$StrTraitMFC_DLL@_WV?$ChTraitsCRT@_W@ATL@@@@@ATL@@V12@U?$less@V?$CStringT@_WV?$StrTraitMFC_DLL@_WV?$ChTraitsCRT@_W@ATL@@@@@ATL@@@std@@V?$allocator@U?$pair@$$CBV?$CStringT@_WV?$StrTraitMFC_DLL@_WV?$ChTraitsCRT@_W@ATL@@@@@ATL@@V12@@std@@@4@$0A@@std@@@1@AB_N@Z 00424d40 f i DlgProcessList.obj
 0001:00023d70       ?_Erase@?$_Tree@V?$_Tmap_traits@V?$CStringT@_WV?$StrTraitMFC_DLL@_WV?$ChTraitsCRT@_W@ATL@@@@@ATL@@V12@U?$less@V?$CStringT@_WV?$StrTraitMFC_DLL@_WV?$ChTraitsCRT@_W@ATL@@@@@ATL@@@std@@V?$allocator@U?$pair@$$CBV?$CStringT@_WV?$StrTraitMFC_DLL@_WV?$ChTraitsCRT@_W@ATL@@@@@ATL@@V12@@std@@@4@$0A@@std@@@std@@IAEXPAU_Node@?$_Tree_nod@V?$_Tmap_traits@V?$CStringT@_WV?$StrTraitMFC_DLL@_WV?$ChTraitsCRT@_W@ATL@@@@@ATL@@V12@U?$less@V?$CStringT@_WV?$StrTraitMFC_DLL@_WV?$ChTraitsCRT@_W@ATL@@@@@ATL@@@std@@V?$allocator@U?$pair@$$CBV?$CStringT@_WV?$StrTraitMFC_DLL@_WV?$ChTraitsCRT@_W@ATL@@@@@ATL@@V12@@std@@@4@$0A@@std@@@2@@Z 00424d70 f i DlgProcessList.obj
 0001:00023df0       ?_Max@?$_Tree@V?$_Tmap_traits@V?$CStringT@_WV?$StrTraitMFC_DLL@_WV?$ChTraitsCRT@_W@ATL@@@@@ATL@@V12@U?$less@V?$CStringT@_WV?$StrTraitMFC_DLL@_WV?$ChTraitsCRT@_W@ATL@@@@@ATL@@@std@@V?$allocator@U?$pair@$$CBV?$CStringT@_WV?$StrTraitMFC_DLL@_WV?$ChTraitsCRT@_W@ATL@@@@@ATL@@V12@@std@@@4@$0A@@std@@@std@@KAPAU_Node@?$_Tree_nod@V?$_Tmap_traits@V?$CStringT@_WV?$StrTraitMFC_DLL@_WV?$ChTraitsCRT@_W@ATL@@@@@ATL@@V12@U?$less@V?$CStringT@_WV?$StrTraitMFC_DLL@_WV?$ChTraitsCRT@_W@ATL@@@@@ATL@@@std@@V?$allocator@U?$pair@$$CBV?$CStringT@_WV?$StrTraitMFC_DLL@_WV?$ChTraitsCRT@_W@ATL@@@@@ATL@@V12@@std@@@4@$0A@@std@@@2@PAU342@@Z 00424df0 f i DlgProcessList.obj
 0001:00023e30       ?_Min@?$_Tree@V?$_Tmap_traits@V?$CStringT@_WV?$StrTraitMFC_DLL@_WV?$ChTraitsCRT@_W@ATL@@@@@ATL@@V12@U?$less@V?$CStringT@_WV?$StrTraitMFC_DLL@_WV?$ChTraitsCRT@_W@ATL@@@@@ATL@@@std@@V?$allocator@U?$pair@$$CBV?$CStringT@_WV?$StrTraitMFC_DLL@_WV?$ChTraitsCRT@_W@ATL@@@@@ATL@@V12@@std@@@4@$0A@@std@@@std@@KAPAU_Node@?$_Tree_nod@V?$_Tmap_traits@V?$CStringT@_WV?$StrTraitMFC_DLL@_WV?$ChTraitsCRT@_W@ATL@@@@@ATL@@V12@U?$less@V?$CStringT@_WV?$StrTraitMFC_DLL@_WV?$ChTraitsCRT@_W@ATL@@@@@ATL@@@std@@V?$allocator@U?$pair@$$CBV?$CStringT@_WV?$StrTraitMFC_DLL@_WV?$ChTraitsCRT@_W@ATL@@@@@ATL@@V12@@std@@@4@$0A@@std@@@2@PAU342@@Z 00424e30 f i DlgProcessList.obj
 0001:00023e70       ?_Orphan_ptr@?$_Tree@V?$_Tmap_traits@V?$CStringT@_WV?$StrTraitMFC_DLL@_WV?$ChTraitsCRT@_W@ATL@@@@@ATL@@V12@U?$less@V?$CStringT@_WV?$StrTraitMFC_DLL@_WV?$ChTraitsCRT@_W@ATL@@@@@ATL@@@std@@V?$allocator@U?$pair@$$CBV?$CStringT@_WV?$StrTraitMFC_DLL@_WV?$ChTraitsCRT@_W@ATL@@@@@ATL@@V12@@std@@@4@$0A@@std@@@std@@IBEXAAV12@PAU_Node@?$_Tree_nod@V?$_Tmap_traits@V?$CStringT@_WV?$StrTraitMFC_DLL@_WV?$ChTraitsCRT@_W@ATL@@@@@ATL@@V12@U?$less@V?$CStringT@_WV?$StrTraitMFC_DLL@_WV?$ChTraitsCRT@_W@ATL@@@@@ATL@@@std@@V?$allocator@U?$pair@$$CBV?$CStringT@_WV?$StrTraitMFC_DLL@_WV?$ChTraitsCRT@_W@ATL@@@@@ATL@@V12@@std@@@4@$0A@@std@@@2@@Z 00424e70 f i DlgProcessList.obj
 0001:00023ef0       ??0?$_Tree_nod@V?$_Tmap_traits@V?$CStringT@_WV?$StrTraitMFC_DLL@_WV?$ChTraitsCRT@_W@ATL@@@@@ATL@@V12@U?$less@V?$CStringT@_WV?$StrTraitMFC_DLL@_WV?$ChTraitsCRT@_W@ATL@@@@@ATL@@@std@@V?$allocator@U?$pair@$$CBV?$CStringT@_WV?$StrTraitMFC_DLL@_WV?$ChTraitsCRT@_W@ATL@@@@@ATL@@V12@@std@@@4@$0A@@std@@@std@@IAE@ABU?$less@V?$CStringT@_WV?$StrTraitMFC_DLL@_WV?$ChTraitsCRT@_W@ATL@@@@@ATL@@@1@V?$allocator@U?$pair@$$CBV?$CStringT@_WV?$StrTraitMFC_DLL@_WV?$ChTraitsCRT@_W@ATL@@@@@ATL@@V12@@std@@@1@@Z 00424ef0 f i DlgProcessList.obj
 0001:00023f30       ?max_size@?$allocator@U?$pair@$$CBV?$CStringT@_WV?$StrTraitMFC_DLL@_WV?$ChTraitsCRT@_W@ATL@@@@@ATL@@V12@@std@@@std@@QBEIXZ 00424f30 f i DlgProcessList.obj
 0001:00023f60       ?allocate@?$allocator@U_Node@?$_Tree_nod@V?$_Tmap_traits@V?$CStringT@_WV?$StrTraitMFC_DLL@_WV?$ChTraitsCRT@_W@ATL@@@@@ATL@@V12@U?$less@V?$CStringT@_WV?$StrTraitMFC_DLL@_WV?$ChTraitsCRT@_W@ATL@@@@@ATL@@@std@@V?$allocator@U?$pair@$$CBV?$CStringT@_WV?$StrTraitMFC_DLL@_WV?$ChTraitsCRT@_W@ATL@@@@@ATL@@V12@@std@@@4@$0A@@std@@@std@@@std@@QAEPAU_Node@?$_Tree_nod@V?$_Tmap_traits@V?$CStringT@_WV?$StrTraitMFC_DLL@_WV?$ChTraitsCRT@_W@ATL@@@@@ATL@@V12@U?$less@V?$CStringT@_WV?$StrTraitMFC_DLL@_WV?$ChTraitsCRT@_W@ATL@@@@@ATL@@@std@@V?$allocator@U?$pair@$$CBV?$CStringT@_WV?$StrTraitMFC_DLL@_WV?$ChTraitsCRT@_W@ATL@@@@@ATL@@V12@@std@@@4@$0A@@std@@@2@I@Z 00424f60 f i DlgProcessList.obj
 0001:00023f80       ?destroy@?$allocator@U_Node@?$_Tree_nod@V?$_Tmap_traits@V?$CStringT@_WV?$StrTraitMFC_DLL@_WV?$ChTraitsCRT@_W@ATL@@@@@ATL@@V12@U?$less@V?$CStringT@_WV?$StrTraitMFC_DLL@_WV?$ChTraitsCRT@_W@ATL@@@@@ATL@@@std@@V?$allocator@U?$pair@$$CBV?$CStringT@_WV?$StrTraitMFC_DLL@_WV?$ChTraitsCRT@_W@ATL@@@@@ATL@@V12@@std@@@4@$0A@@std@@@std@@@std@@QAEXPAU_Node@?$_Tree_nod@V?$_Tmap_traits@V?$CStringT@_WV?$StrTraitMFC_DLL@_WV?$ChTraitsCRT@_W@ATL@@@@@ATL@@V12@U?$less@V?$CStringT@_WV?$StrTraitMFC_DLL@_WV?$ChTraitsCRT@_W@ATL@@@@@ATL@@@std@@V?$allocator@U?$pair@$$CBV?$CStringT@_WV?$StrTraitMFC_DLL@_WV?$ChTraitsCRT@_W@ATL@@@@@ATL@@V12@@std@@@4@$0A@@std@@@2@@Z 00424f80 f i DlgProcessList.obj
 0001:00023fa0       ?construct@?$allocator@PAU_Node@?$_Tree_nod@V?$_Tmap_traits@V?$CStringT@_WV?$StrTraitMFC_DLL@_WV?$ChTraitsCRT@_W@ATL@@@@@ATL@@V12@U?$less@V?$CStringT@_WV?$StrTraitMFC_DLL@_WV?$ChTraitsCRT@_W@ATL@@@@@ATL@@@std@@V?$allocator@U?$pair@$$CBV?$CStringT@_WV?$StrTraitMFC_DLL@_WV?$ChTraitsCRT@_W@ATL@@@@@ATL@@V12@@std@@@4@$0A@@std@@@std@@@std@@QAEXPAPAU_Node@?$_Tree_nod@V?$_Tmap_traits@V?$CStringT@_WV?$StrTraitMFC_DLL@_WV?$ChTraitsCRT@_W@ATL@@@@@ATL@@V12@U?$less@V?$CStringT@_WV?$StrTraitMFC_DLL@_WV?$ChTraitsCRT@_W@ATL@@@@@ATL@@@std@@V?$allocator@U?$pair@$$CBV?$CStringT@_WV?$StrTraitMFC_DLL@_WV?$ChTraitsCRT@_W@ATL@@@@@ATL@@V12@@std@@@4@$0A@@std@@@2@ABQAU342@@Z 00424fa0 f i DlgProcessList.obj
 0001:00023fc0       ??Y?$_Vector_const_iterator@UPROCESS_INFO@@V?$allocator@UPROCESS_INFO@@@std@@@std@@QAEAAV01@H@Z 00424fc0 f i DlgProcessList.obj
 0001:000240c0       ??0_Node@?$_Tree_nod@V?$_Tmap_traits@V?$CStringT@_WV?$StrTraitMFC_DLL@_WV?$ChTraitsCRT@_W@ATL@@@@@ATL@@V12@U?$less@V?$CStringT@_WV?$StrTraitMFC_DLL@_WV?$ChTraitsCRT@_W@ATL@@@@@ATL@@@std@@V?$allocator@U?$pair@$$CBV?$CStringT@_WV?$StrTraitMFC_DLL@_WV?$ChTraitsCRT@_W@ATL@@@@@ATL@@V12@@std@@@4@$0A@@std@@@std@@QAE@PAU012@00ABU?$pair@$$CBV?$CStringT@_WV?$StrTraitMFC_DLL@_WV?$ChTraitsCRT@_W@ATL@@@@@ATL@@V12@@2@D@Z 004250c0 f i DlgProcessList.obj
 0001:00024110       ??0?$pair@$$CBV?$CStringT@_WV?$StrTraitMFC_DLL@_WV?$ChTraitsCRT@_W@ATL@@@@@ATL@@V12@@std@@QAE@ABU01@@Z 00425110 f i DlgProcessList.obj
 0001:00024180       ??0?$_Tmap_traits@V?$CStringT@_WV?$StrTraitMFC_DLL@_WV?$ChTraitsCRT@_W@ATL@@@@@ATL@@V12@U?$less@V?$CStringT@_WV?$StrTraitMFC_DLL@_WV?$ChTraitsCRT@_W@ATL@@@@@ATL@@@std@@V?$allocator@U?$pair@$$CBV?$CStringT@_WV?$StrTraitMFC_DLL@_WV?$ChTraitsCRT@_W@ATL@@@@@ATL@@V12@@std@@@4@$0A@@std@@QAE@U?$less@V?$CStringT@_WV?$StrTraitMFC_DLL@_WV?$ChTraitsCRT@_W@ATL@@@@@ATL@@@1@V?$allocator@U?$pair@$$CBV?$CStringT@_WV?$StrTraitMFC_DLL@_WV?$ChTraitsCRT@_W@ATL@@@@@ATL@@V12@@std@@@1@@Z 00425180 f i DlgProcessList.obj
 0001:000241b0       ??0?$_Container_base_aux_alloc_empty@V?$allocator@U?$pair@$$CBV?$CStringT@_WV?$StrTraitMFC_DLL@_WV?$ChTraitsCRT@_W@ATL@@@@@ATL@@V12@@std@@@std@@@std@@IAE@V?$allocator@U?$pair@$$CBV?$CStringT@_WV?$StrTraitMFC_DLL@_WV?$ChTraitsCRT@_W@ATL@@@@@ATL@@V12@@std@@@1@@Z 004251b0 f i DlgProcessList.obj
 0001:000241d0       ??$_Debug_lt_pred@U?$less@V?$CStringT@_WV?$StrTraitMFC_DLL@_WV?$ChTraitsCRT@_W@ATL@@@@@ATL@@@std@@V?$CStringT@_WV?$StrTraitMFC_DLL@_WV?$ChTraitsCRT@_W@ATL@@@@@ATL@@V34@@std@@YA_NU?$less@V?$CStringT@_WV?$StrTraitMFC_DLL@_WV?$ChTraitsCRT@_W@ATL@@@@@ATL@@@0@ABV?$CStringT@_WV?$StrTraitMFC_DLL@_WV?$ChTraitsCRT@_W@ATL@@@@@ATL@@1PB_WI@Z 004251d0 f i DlgProcessList.obj
 0001:00024230       ??$unchecked_copy@PAUPROCESS_INFO@@PAU1@@stdext@@YAPAUPROCESS_INFO@@PAU1@00@Z 00425230 f i DlgProcessList.obj
 0001:000242a0       ??$unchecked_uninitialized_fill_n@PAUPROCESS_INFO@@IU1@V?$allocator@UPROCESS_INFO@@@std@@@stdext@@YAXPAUPROCESS_INFO@@IABU1@AAV?$allocator@UPROCESS_INFO@@@std@@@Z 004252a0 f i DlgProcessList.obj
 0001:000242f0       ??$_Destroy_range@V?$allocator@UPROCESS_INFO@@@std@@@std@@YAXPAUPROCESS_INFO@@0AAV?$allocator@UPROCESS_INFO@@@0@@Z 004252f0 f i DlgProcessList.obj
 0001:00024330       ??$_Umove@PAUPROCESS_INFO@@@?$vector@UPROCESS_INFO@@V?$allocator@UPROCESS_INFO@@@std@@@std@@IAEPAUPROCESS_INFO@@PAU2@00@Z 00425330 f i DlgProcessList.obj
 0001:00024360       ??$fill@PAUPROCESS_INFO@@U1@@std@@YAXPAUPROCESS_INFO@@0ABU1@@Z 00425360 f i DlgProcessList.obj
 0001:00024390       ??$_Unchecked_move_backward@PAUPROCESS_INFO@@PAU1@@stdext@@YAPAUPROCESS_INFO@@PAU1@00@Z 00425390 f i DlgProcessList.obj
 0001:00024400       ??$_Allocate@UPROCESS_INFO@@@std@@YAPAUPROCESS_INFO@@IPAU1@@Z 00425400 f i DlgProcessList.obj
 0001:00024450       ??$_Destroy@PAU_Node@?$_Tree_nod@V?$_Tmap_traits@V?$CStringT@_WV?$StrTraitMFC_DLL@_WV?$ChTraitsCRT@_W@ATL@@@@@ATL@@V12@U?$less@V?$CStringT@_WV?$StrTraitMFC_DLL@_WV?$ChTraitsCRT@_W@ATL@@@@@ATL@@@std@@V?$allocator@U?$pair@$$CBV?$CStringT@_WV?$StrTraitMFC_DLL@_WV?$ChTraitsCRT@_W@ATL@@@@@ATL@@V12@@std@@@4@$0A@@std@@@std@@@std@@YAXPAPAU_Node@?$_Tree_nod@V?$_Tmap_traits@V?$CStringT@_WV?$StrTraitMFC_DLL@_WV?$ChTraitsCRT@_W@ATL@@@@@ATL@@V12@U?$less@V?$CStringT@_WV?$StrTraitMFC_DLL@_WV?$ChTraitsCRT@_W@ATL@@@@@ATL@@@std@@V?$allocator@U?$pair@$$CBV?$CStringT@_WV?$StrTraitMFC_DLL@_WV?$ChTraitsCRT@_W@ATL@@@@@ATL@@V12@@std@@@4@$0A@@std@@@0@@Z 00425450 f i DlgProcessList.obj
 0001:00024460       ??$?0U?$pair@$$CBV?$CStringT@_WV?$StrTraitMFC_DLL@_WV?$ChTraitsCRT@_W@ATL@@@@@ATL@@V12@@std@@@?$allocator@PAU_Node@?$_Tree_nod@V?$_Tmap_traits@V?$CStringT@_WV?$StrTraitMFC_DLL@_WV?$ChTraitsCRT@_W@ATL@@@@@ATL@@V12@U?$less@V?$CStringT@_WV?$StrTraitMFC_DLL@_WV?$ChTraitsCRT@_W@ATL@@@@@ATL@@@std@@V?$allocator@U?$pair@$$CBV?$CStringT@_WV?$StrTraitMFC_DLL@_WV?$ChTraitsCRT@_W@ATL@@@@@ATL@@V12@@std@@@4@$0A@@std@@@std@@@std@@QAE@ABV?$allocator@U?$pair@$$CBV?$CStringT@_WV?$StrTraitMFC_DLL@_WV?$ChTraitsCRT@_W@ATL@@@@@ATL@@V12@@std@@@1@@Z 00425460 f i DlgProcessList.obj
 0001:00024470       ??$?0U?$pair@$$CBV?$CStringT@_WV?$StrTraitMFC_DLL@_WV?$ChTraitsCRT@_W@ATL@@@@@ATL@@V12@@std@@@?$allocator@U_Node@?$_Tree_nod@V?$_Tmap_traits@V?$CStringT@_WV?$StrTraitMFC_DLL@_WV?$ChTraitsCRT@_W@ATL@@@@@ATL@@V12@U?$less@V?$CStringT@_WV?$StrTraitMFC_DLL@_WV?$ChTraitsCRT@_W@ATL@@@@@ATL@@@std@@V?$allocator@U?$pair@$$CBV?$CStringT@_WV?$StrTraitMFC_DLL@_WV?$ChTraitsCRT@_W@ATL@@@@@ATL@@V12@@std@@@4@$0A@@std@@@std@@@std@@QAE@ABV?$allocator@U?$pair@$$CBV?$CStringT@_WV?$StrTraitMFC_DLL@_WV?$ChTraitsCRT@_W@ATL@@@@@ATL@@V12@@std@@@1@@Z 00425470 f i DlgProcessList.obj
 0001:00024480       ??$_Allocate@U_Node@?$_Tree_nod@V?$_Tmap_traits@V?$CStringT@_WV?$StrTraitMFC_DLL@_WV?$ChTraitsCRT@_W@ATL@@@@@ATL@@V12@U?$less@V?$CStringT@_WV?$StrTraitMFC_DLL@_WV?$ChTraitsCRT@_W@ATL@@@@@ATL@@@std@@V?$allocator@U?$pair@$$CBV?$CStringT@_WV?$StrTraitMFC_DLL@_WV?$ChTraitsCRT@_W@ATL@@@@@ATL@@V12@@std@@@4@$0A@@std@@@std@@@std@@YAPAU_Node@?$_Tree_nod@V?$_Tmap_traits@V?$CStringT@_WV?$StrTraitMFC_DLL@_WV?$ChTraitsCRT@_W@ATL@@@@@ATL@@V12@U?$less@V?$CStringT@_WV?$StrTraitMFC_DLL@_WV?$ChTraitsCRT@_W@ATL@@@@@ATL@@@std@@V?$allocator@U?$pair@$$CBV?$CStringT@_WV?$StrTraitMFC_DLL@_WV?$ChTraitsCRT@_W@ATL@@@@@ATL@@V12@@std@@@4@$0A@@std@@@0@IPAU120@@Z 00425480 f i DlgProcessList.obj
 0001:000244d0       ??$_Destroy@U_Node@?$_Tree_nod@V?$_Tmap_traits@V?$CStringT@_WV?$StrTraitMFC_DLL@_WV?$ChTraitsCRT@_W@ATL@@@@@ATL@@V12@U?$less@V?$CStringT@_WV?$StrTraitMFC_DLL@_WV?$ChTraitsCRT@_W@ATL@@@@@ATL@@@std@@V?$allocator@U?$pair@$$CBV?$CStringT@_WV?$StrTraitMFC_DLL@_WV?$ChTraitsCRT@_W@ATL@@@@@ATL@@V12@@std@@@4@$0A@@std@@@std@@@std@@YAXPAU_Node@?$_Tree_nod@V?$_Tmap_traits@V?$CStringT@_WV?$StrTraitMFC_DLL@_WV?$ChTraitsCRT@_W@ATL@@@@@ATL@@V12@U?$less@V?$CStringT@_WV?$StrTraitMFC_DLL@_WV?$ChTraitsCRT@_W@ATL@@@@@ATL@@@std@@V?$allocator@U?$pair@$$CBV?$CStringT@_WV?$StrTraitMFC_DLL@_WV?$ChTraitsCRT@_W@ATL@@@@@ATL@@V12@@std@@@4@$0A@@std@@@0@@Z 004254d0 f i DlgProcessList.obj
 0001:000244e0       ??$_Construct@PAU_Node@?$_Tree_nod@V?$_Tmap_traits@V?$CStringT@_WV?$StrTraitMFC_DLL@_WV?$ChTraitsCRT@_W@ATL@@@@@ATL@@V12@U?$less@V?$CStringT@_WV?$StrTraitMFC_DLL@_WV?$ChTraitsCRT@_W@ATL@@@@@ATL@@@std@@V?$allocator@U?$pair@$$CBV?$CStringT@_WV?$StrTraitMFC_DLL@_WV?$ChTraitsCRT@_W@ATL@@@@@ATL@@V12@@std@@@4@$0A@@std@@@std@@PAU123@@std@@YAXPAPAU_Node@?$_Tree_nod@V?$_Tmap_traits@V?$CStringT@_WV?$StrTraitMFC_DLL@_WV?$ChTraitsCRT@_W@ATL@@@@@ATL@@V12@U?$less@V?$CStringT@_WV?$StrTraitMFC_DLL@_WV?$ChTraitsCRT@_W@ATL@@@@@ATL@@@std@@V?$allocator@U?$pair@$$CBV?$CStringT@_WV?$StrTraitMFC_DLL@_WV?$ChTraitsCRT@_W@ATL@@@@@ATL@@V12@@std@@@4@$0A@@std@@@0@ABQAU120@@Z 004254e0 f i DlgProcessList.obj
 0001:00024520       ??_G_Node@?$_Tree_nod@V?$_Tmap_traits@V?$CStringT@_WV?$StrTraitMFC_DLL@_WV?$ChTraitsCRT@_W@ATL@@@@@ATL@@V12@U?$less@V?$CStringT@_WV?$StrTraitMFC_DLL@_WV?$ChTraitsCRT@_W@ATL@@@@@ATL@@@std@@V?$allocator@U?$pair@$$CBV?$CStringT@_WV?$StrTraitMFC_DLL@_WV?$ChTraitsCRT@_W@ATL@@@@@ATL@@V12@@std@@@4@$0A@@std@@@std@@QAEPAXI@Z 00425520 f i DlgProcessList.obj
 0001:00024550       ??1_Node@?$_Tree_nod@V?$_Tmap_traits@V?$CStringT@_WV?$StrTraitMFC_DLL@_WV?$ChTraitsCRT@_W@ATL@@@@@ATL@@V12@U?$less@V?$CStringT@_WV?$StrTraitMFC_DLL@_WV?$ChTraitsCRT@_W@ATL@@@@@ATL@@@std@@V?$allocator@U?$pair@$$CBV?$CStringT@_WV?$StrTraitMFC_DLL@_WV?$ChTraitsCRT@_W@ATL@@@@@ATL@@V12@@std@@@4@$0A@@std@@@std@@QAE@XZ 00425550 f i DlgProcessList.obj
 0001:00024570       ??$_Checked_base@PAUPROCESS_INFO@@@std@@YAPAUPROCESS_INFO@@AAPAU1@@Z 00425570 f i DlgProcessList.obj
 0001:00024590       ??$_Iter_random@PAUPROCESS_INFO@@PAU1@@std@@YA?AUrandom_access_iterator_tag@0@ABQAUPROCESS_INFO@@0@Z 00425590 f i DlgProcessList.obj
 0001:000245a0       ??$_Ptr_cat@PAUPROCESS_INFO@@PAU1@@std@@YA?AU_Nonscalar_ptr_iterator_tag@0@AAPAUPROCESS_INFO@@0@Z 004255a0 f i DlgProcessList.obj
 0001:000245b0       ??$_Copy_opt@PAUPROCESS_INFO@@PAU1@@std@@YAPAUPROCESS_INFO@@PAU1@00Urandom_access_iterator_tag@0@U_Nonscalar_ptr_iterator_tag@0@U_Range_checked_iterator_tag@0@@Z 004255b0 f i DlgProcessList.obj
 0001:00024610       ??$_Uninit_fill_n@PAUPROCESS_INFO@@IU1@V?$allocator@UPROCESS_INFO@@@std@@@std@@YAXPAUPROCESS_INFO@@IABU1@AAV?$allocator@UPROCESS_INFO@@@0@U_Nonscalar_ptr_iterator_tag@0@U_Range_checked_iterator_tag@0@@Z 00425610 f i DlgProcessList.obj
 0001:000246d0       ??$_Destroy_range@V?$allocator@UPROCESS_INFO@@@std@@@std@@YAXPAUPROCESS_INFO@@0AAV?$allocator@UPROCESS_INFO@@@0@U_Nonscalar_ptr_iterator_tag@0@@Z 004256d0 f i DlgProcessList.obj
 0001:00024700       ??$_Unchecked_uninitialized_move@PAUPROCESS_INFO@@PAU1@V?$allocator@UPROCESS_INFO@@@std@@@stdext@@YAPAUPROCESS_INFO@@PAU1@00AAV?$allocator@UPROCESS_INFO@@@std@@@Z 00425700 f i DlgProcessList.obj
 0001:00024750       ??$_Fill@PAUPROCESS_INFO@@U1@@std@@YAXPAUPROCESS_INFO@@0ABU1@@Z 00425750 f i DlgProcessList.obj
 0001:00024790       ??$_Move_cat@PAUPROCESS_INFO@@@std@@YA?AU_Undefined_move_tag@0@ABQAUPROCESS_INFO@@@Z 00425790 f i DlgProcessList.obj
 0001:000247a0       ??$_Move_backward_opt@PAUPROCESS_INFO@@PAU1@Urandom_access_iterator_tag@std@@U_Undefined_move_tag@3@@std@@YAPAUPROCESS_INFO@@PAU1@00Urandom_access_iterator_tag@0@U_Undefined_move_tag@0@U_Range_checked_iterator_tag@0@@Z 004257a0 f i DlgProcessList.obj
 0001:000247f0       ?construct@?$allocator@UPROCESS_INFO@@@std@@QAEXPAUPROCESS_INFO@@ABU3@@Z 004257f0 f i DlgProcessList.obj
 0001:00024810       ?destroy@?$allocator@UPROCESS_INFO@@@std@@QAEXPAUPROCESS_INFO@@@Z 00425810 f i DlgProcessList.obj
 0001:00024830       ??$_Checked_base@PAUPROCESS_INFO@@@std@@YAPAUPROCESS_INFO@@AAPAU1@U_Unchanged_checked_iterator_base_type_tag@0@@Z 00425830 f i DlgProcessList.obj
 0001:00024840       ??$_Copy_opt@PAUPROCESS_INFO@@PAU1@Uforward_iterator_tag@std@@@std@@YAPAUPROCESS_INFO@@PAU1@00Uforward_iterator_tag@0@U_Nonscalar_ptr_iterator_tag@0@U_Range_checked_iterator_tag@0@@Z 00425840 f i DlgProcessList.obj
 0001:00024890       ??$_Uninit_move@PAUPROCESS_INFO@@PAU1@V?$allocator@UPROCESS_INFO@@@std@@U_Undefined_move_tag@3@@std@@YAPAUPROCESS_INFO@@PAU1@00AAV?$allocator@UPROCESS_INFO@@@0@U_Undefined_move_tag@0@U_Range_checked_iterator_tag@0@@Z 00425890 f i DlgProcessList.obj
 0001:000248b0       ??$_Debug_range@PAUPROCESS_INFO@@@std@@YAXPAUPROCESS_INFO@@0PB_WI@Z 004258b0 f i DlgProcessList.obj
 0001:000248f0       ??$_Copy_backward_opt@PAUPROCESS_INFO@@PAU1@@std@@YAPAUPROCESS_INFO@@PAU1@00Urandom_access_iterator_tag@0@U_Nonscalar_ptr_iterator_tag@0@U_Range_checked_iterator_tag@0@@Z 004258f0 f i DlgProcessList.obj
 0001:00024950       ??$_Construct@UPROCESS_INFO@@U1@@std@@YAXPAUPROCESS_INFO@@ABU1@@Z 00425950 f i DlgProcessList.obj
 0001:000249d0       ??$_Destroy@UPROCESS_INFO@@@std@@YAXPAUPROCESS_INFO@@@Z 004259d0 f i DlgProcessList.obj
 0001:000249e0       ??_GPROCESS_INFO@@QAEPAXI@Z 004259e0 f i DlgProcessList.obj
 0001:00024a10       ??$unchecked_uninitialized_copy@PAUPROCESS_INFO@@PAU1@V?$allocator@UPROCESS_INFO@@@std@@@stdext@@YAPAUPROCESS_INFO@@PAU1@00AAV?$allocator@UPROCESS_INFO@@@std@@@Z 00425a10 f i DlgProcessList.obj
 0001:00024a70       ??$_Iter_cat@PAUPROCESS_INFO@@@std@@YA?AUrandom_access_iterator_tag@0@ABQAUPROCESS_INFO@@@Z 00425a70 f i DlgProcessList.obj
 0001:00024a80       ??$_Debug_range2@PAUPROCESS_INFO@@@std@@YAXPAUPROCESS_INFO@@0PB_WIUrandom_access_iterator_tag@0@@Z 00425a80 f i DlgProcessList.obj
 0001:00024ae0       ??$_Copy_backward_opt@PAUPROCESS_INFO@@PAU1@Uforward_iterator_tag@std@@@std@@YAPAUPROCESS_INFO@@PAU1@00Uforward_iterator_tag@0@U_Nonscalar_ptr_iterator_tag@0@U_Range_checked_iterator_tag@0@@Z 00425ae0 f i DlgProcessList.obj
 0001:00024b30       ??$_Uninit_copy@PAUPROCESS_INFO@@PAU1@V?$allocator@UPROCESS_INFO@@@std@@@std@@YAPAUPROCESS_INFO@@PAU1@00AAV?$allocator@UPROCESS_INFO@@@0@U_Nonscalar_ptr_iterator_tag@0@U_Range_checked_iterator_tag@0@@Z 00425b30 f i DlgProcessList.obj
 0001:00024c20       ??$_Debug_pointer@UPROCESS_INFO@@@std@@YAXPAUPROCESS_INFO@@PB_WI@Z 00425c20 f i DlgProcessList.obj
 0001:00024c50       ?_GetBaseClass@CDlgShowReadMe@@KGPAUCRuntimeClass@@XZ 00425c50 f   DlgShowReadMe.obj
 0001:00024c60       ?GetThisClass@CDlgShowReadMe@@SGPAUCRuntimeClass@@XZ 00425c60 f   DlgShowReadMe.obj
 0001:00024c70       ?GetRuntimeClass@CDlgShowReadMe@@UBEPAUCRuntimeClass@@XZ 00425c70 f   DlgShowReadMe.obj
 0001:00024c80       ??0CDlgShowReadMe@@QAE@AAV?$basic_string@_WU?$char_traits@_W@std@@V?$allocator@_W@2@@std@@PAVCWnd@@@Z 00425c80 f   DlgShowReadMe.obj
 0001:00024d20       ??_GCDlgShowReadMe@@UAEPAXI@Z 00425d20 f i DlgShowReadMe.obj
 0001:00024d20       ??_ECDlgShowReadMe@@UAEPAXI@Z 00425d20 f i DlgShowReadMe.obj
 0001:00024d50       ??1CDlgShowReadMe@@UAE@XZ  00425d50 f   DlgShowReadMe.obj
 0001:00024db0       ?DoDataExchange@CDlgShowReadMe@@MAEXPAVCDataExchange@@@Z 00425db0 f   DlgShowReadMe.obj
 0001:00024dd0       ?GetMessageMap@CDlgShowReadMe@@MBEPBUAFX_MSGMAP@@XZ 00425dd0 f   DlgShowReadMe.obj
 0001:00024de0       ?GetThisMessageMap@CDlgShowReadMe@@KGPBUAFX_MSGMAP@@XZ 00425de0 f   DlgShowReadMe.obj
 0001:00024df0       ?OnInitDialog@CDlgShowReadMe@@UAEHXZ 00425df0 f   DlgShowReadMe.obj
 0001:00024e40       ?OnClose@CDlgShowReadMe@@QAEXXZ 00425e40 f   DlgShowReadMe.obj
 0001:00024e60       ?InitCtrls@CDlgShowReadMe@@QAEXXZ 00425e60 f   DlgShowReadMe.obj
 0001:00024e90       ?ReadFileToEdit@CDlgShowReadMe@@QAEHPB_W@Z 00425e90 f   DlgShowReadMe.obj
 0001:00024eb0       ??0CFileHelper@@QAE@XZ     00425eb0 f   FileHelper.obj
 0001:00024f60       ??1CFileHelper@@QAE@XZ     00425f60 f   FileHelper.obj
 0001:00024ff0       ??_GCProcessMutex@@QAEPAXI@Z 00425ff0 f i FileHelper.obj
 0001:00025020       ?GetInstance@CFileHelper@@SAPAV1@XZ 00426020 f   FileHelper.obj
 0001:000250b0       ?DeleteInstance@CFileHelper@@SAXXZ 004260b0 f   FileHelper.obj
 0001:00025100       ??_GCFileHelper@@QAEPAXI@Z 00426100 f i FileHelper.obj
 0001:00025130       ?EncryptFileW@CFileHelper@@QAE_NPB_W_N@Z 00426130 f   FileHelper.obj
 0001:00025190       ?DecryptFileW@CFileHelper@@QAE_NPB_W_N@Z 00426190 f   FileHelper.obj
 0001:000251f0       ?LockFile@CFileHelper@@QAEX_N@Z 004261f0 f   FileHelper.obj
 0001:00025200       ?UnlockFile@CFileHelper@@QAEX_N@Z 00426200 f   FileHelper.obj
 0001:00025210       ??0CAccountInfo@@QAE@XZ    00426210 f   AccountInfo.obj
 0001:00025280       ??1CAccountInfo@@QAE@XZ    00426280 f   AccountInfo.obj
 0001:000252a0       ?Reset@CAccountInfo@@QAEXXZ 004262a0 f   AccountInfo.obj
 0001:000252d0       ??0CRole@@QAE@XZ           004262d0 f   Role.obj
 0001:000252e0       ??1CRole@@QAE@XZ           004262e0 f   Role.obj
 0001:000252f0       ?ParseInfoRoleToRoleStruct@CRole@@QAE_NPAX@Z 004262f0 f   Role.obj
 0001:00025320       ?GetRoleId@CInfoRoleSimpleInfo@@QAE_JXZ 00426320 f i Role.obj
 0001:00025340       ??0CBaseMessage@@QAE@XZ    00426340 f   BaseMessage.obj
 0001:00025370       ?Encode@CBaseMessage@@UAE_NPAVCStreamReadWrite@@@Z 00426370 f i BaseMessage.obj
 0001:00025390       ?Decode@CBaseMessage@@UAEHPAVCStreamReadWrite@@@Z 00426390 f i BaseMessage.obj
 0001:000253a0       ?SetCurrentServer@CBaseMessage@@QAEXPAVCServer@@@Z 004263a0 f i BaseMessage.obj
 0001:000253c0       ??_GCBaseMessage@@UAEPAXI@Z 004263c0 f i BaseMessage.obj
 0001:000253c0       ??_ECBaseMessage@@UAEPAXI@Z 004263c0 f i BaseMessage.obj
 0001:000253f0       ??1CBaseMessage@@UAE@XZ    004263f0 f   BaseMessage.obj
 0001:00025410       ?Init@CBaseMessage@@QAEXXZ 00426410 f   BaseMessage.obj
 0001:00025430       ?SetProtocolId@CBaseMessage@@QAEXG@Z 00426430 f i BaseMessage.obj
 0001:00025450       ?DecodeFirst@CBaseMessage@@QAEHPAVCStreamReadWrite@@@Z 00426450 f   BaseMessage.obj
 0001:000254f0       ?ReadBean@CBaseMessage@@QAEPAV1@PAVCStreamReadWrite@@@Z 004264f0 f   BaseMessage.obj
 0001:00025540       ?WriteBean@CBaseMessage@@QAEXPAVCStreamReadWrite@@PAV1@@Z 00426540 f   BaseMessage.obj
 0001:000255f0       ?GetProtocolBufLength@CBaseMessage@@QAEHXZ 004265f0 f i BaseMessage.obj
 0001:00025610       ?GetProtocolId@CBaseMessage@@QAEGXZ 00426610 f i BaseMessage.obj
 0001:00025630       ??0CInfoPlayerInfoStatus@@QAE@XZ 00426630 f   InfoPlayerInfoStatus.obj
 0001:00025720       ??_ECInfoPlayerInfoStatus@@UAEPAXI@Z 00426720 f i InfoPlayerInfoStatus.obj
 0001:00025720       ??_GCInfoPlayerInfoStatus@@UAEPAXI@Z 00426720 f i InfoPlayerInfoStatus.obj
 0001:00025750       ??1CInfoPlayerInfoStatus@@UAE@XZ 00426750 f   InfoPlayerInfoStatus.obj
 0001:00025800       ?Reset@CInfoPlayerInfoStatus@@QAEXXZ 00426800 f   InfoPlayerInfoStatus.obj
 0001:000258b0       ?Encode@CInfoPlayerInfoStatus@@UAE_NPAVCStreamReadWrite@@@Z 004268b0 f   InfoPlayerInfoStatus.obj
 0001:00025a70       ?ResetWritePostion@CBaseMessage@@QAEXXZ 00426a70 f i InfoPlayerInfoStatus.obj
 0001:00025a90       ?Decode@CInfoPlayerInfoStatus@@UAEHPAVCStreamReadWrite@@@Z 00426a90 f   InfoPlayerInfoStatus.obj
 0001:00025cf0       ?push_back@?$vector@HV?$allocator@H@std@@@std@@QAEXABH@Z 00426cf0 f i InfoPlayerInfoStatus.obj
 0001:00025dd0       ?insert@?$vector@HV?$allocator@H@std@@@std@@QAE?AV?$_Vector_iterator@HV?$allocator@H@std@@@2@V?$_Vector_const_iterator@HV?$allocator@H@std@@@2@ABH@Z 00426dd0 f i InfoPlayerInfoStatus.obj
 0001:00025ef0       ?_Ufill@?$vector@HV?$allocator@H@std@@@std@@IAEPAHPAHIABH@Z 00426ef0 f i InfoPlayerInfoStatus.obj
 0001:00025f30       ?_Insert_n@?$vector@HV?$allocator@H@std@@@std@@IAEXV?$_Vector_const_iterator@HV?$allocator@H@std@@@2@IABH@Z 00426f30 f i InfoPlayerInfoStatus.obj
 0001:00026350       ??H?$_Vector_iterator@HV?$allocator@H@std@@@std@@QBE?AV01@H@Z 00427350 f i InfoPlayerInfoStatus.obj
 0001:000263d0       ??0?$_Vector_iterator@HV?$allocator@H@std@@@std@@QAE@ABV01@@Z 004273d0 f i InfoPlayerInfoStatus.obj
 0001:000263f0       ??Y?$_Vector_iterator@HV?$allocator@H@std@@@std@@QAEAAV01@H@Z 004273f0 f i InfoPlayerInfoStatus.obj
 0001:00026410       ??Y?$_Vector_const_iterator@HV?$allocator@H@std@@@std@@QAEAAV01@H@Z 00427410 f i InfoPlayerInfoStatus.obj
 0001:00026510       ??$unchecked_uninitialized_fill_n@PAHIHV?$allocator@H@std@@@stdext@@YAXPAHIABHAAV?$allocator@H@std@@@Z 00427510 f i InfoPlayerInfoStatus.obj
 0001:00026560       ??$_Umove@PAH@?$vector@HV?$allocator@H@std@@@std@@IAEPAHPAH00@Z 00427560 f i InfoPlayerInfoStatus.obj
 0001:00026590       ??$fill@PAHH@std@@YAXPAH0ABH@Z 00427590 f i InfoPlayerInfoStatus.obj
 0001:000265c0       ??$_Unchecked_move_backward@PAHPAH@stdext@@YAPAHPAH00@Z 004275c0 f i InfoPlayerInfoStatus.obj
 0001:00026630       ??$_Uninit_fill_n@PAHIHV?$allocator@H@std@@@std@@YAXPAHIABHAAV?$allocator@H@0@U_Scalar_ptr_iterator_tag@0@U_Range_checked_iterator_tag@0@@Z 00427630 f i InfoPlayerInfoStatus.obj
 0001:00026650       ??$_Unchecked_uninitialized_move@PAHPAHV?$allocator@H@std@@@stdext@@YAPAHPAH00AAV?$allocator@H@std@@@Z 00427650 f i InfoPlayerInfoStatus.obj
 0001:000266a0       ??$_Fill@PAHH@std@@YAXPAH0ABH@Z 004276a0 f i InfoPlayerInfoStatus.obj
 0001:000266e0       ??$_Move_cat@PAH@std@@YA?AU_Undefined_move_tag@0@ABQAH@Z 004276e0 f i InfoPlayerInfoStatus.obj
 0001:000266f0       ??$_Move_backward_opt@PAHPAHUrandom_access_iterator_tag@std@@U_Undefined_move_tag@2@@std@@YAPAHPAH00Urandom_access_iterator_tag@0@U_Undefined_move_tag@0@U_Range_checked_iterator_tag@0@@Z 004276f0 f i InfoPlayerInfoStatus.obj
 0001:00026740       ??$unchecked_fill_n@PAHIH@stdext@@YAXPAHIABH@Z 00427740 f i InfoPlayerInfoStatus.obj
 0001:00026780       ??$_Uninit_move@PAHPAHV?$allocator@H@std@@U_Undefined_move_tag@2@@std@@YAPAHPAH00AAV?$allocator@H@0@U_Undefined_move_tag@0@U_Range_checked_iterator_tag@0@@Z 00427780 f i InfoPlayerInfoStatus.obj
 0001:000267a0       ??$_Copy_backward_opt@PAHPAHUrandom_access_iterator_tag@std@@@std@@YAPAHPAH00Urandom_access_iterator_tag@0@U_Scalar_ptr_iterator_tag@0@U_Range_checked_iterator_tag@0@@Z 004277a0 f i InfoPlayerInfoStatus.obj
 0001:00026830       ??$_Fill_n@PAHIH@std@@YAXPAHIABHUrandom_access_iterator_tag@0@U_Range_checked_iterator_tag@0@@Z 00427830 f i InfoPlayerInfoStatus.obj
 0001:00026870       ??$_Fill_n@PAHIH@std@@YAXPAHIABHU_Range_checked_iterator_tag@0@@Z 00427870 f i InfoPlayerInfoStatus.obj
 0001:000268a0       ??0CMessageClientPlayerInfoStatus@@QAE@XZ 004278a0 f   MessageClientPlayerInfoStatus.obj
 0001:00026910       ??_GCMessageClientPlayerInfoStatus@@UAEPAXI@Z 00427910 f i MessageClientPlayerInfoStatus.obj
 0001:00026910       ??_ECMessageClientPlayerInfoStatus@@UAEPAXI@Z 00427910 f i MessageClientPlayerInfoStatus.obj
 0001:00026940       ??1CMessageClientPlayerInfoStatus@@UAE@XZ 00427940 f   MessageClientPlayerInfoStatus.obj
 0001:000269a0       ?Encode@CMessageClientPlayerInfoStatus@@UAE_NPAVCStreamReadWrite@@@Z 004279a0 f   MessageClientPlayerInfoStatus.obj
 0001:000269f0       ?Decode@CMessageClientPlayerInfoStatus@@UAEHPAVCStreamReadWrite@@@Z 004279f0 f   MessageClientPlayerInfoStatus.obj
 0001:00026a60       ?MakeClientPlayerInfoStatusMessage@CMessageClientPlayerInfoStatus@@QAEXHPAVCInfoPlayerInfoStatus@@@Z 00427a60 f   MessageClientPlayerInfoStatus.obj
 0001:00026a90       ??0CMessageClientPlayerTaskStatus@@QAE@XZ 00427a90 f   MessageClientPlayerTaskStatus.obj
 0001:00026b20       ??_GCMessageClientPlayerTaskStatus@@UAEPAXI@Z 00427b20 f i MessageClientPlayerTaskStatus.obj
 0001:00026b20       ??_ECMessageClientPlayerTaskStatus@@UAEPAXI@Z 00427b20 f i MessageClientPlayerTaskStatus.obj
 0001:00026b50       ??1CMessageClientPlayerTaskStatus@@UAE@XZ 00427b50 f   MessageClientPlayerTaskStatus.obj
 0001:00026bb0       ?Encode@CMessageClientPlayerTaskStatus@@UAE_NPAVCStreamReadWrite@@@Z 00427bb0 f   MessageClientPlayerTaskStatus.obj
 0001:00026c10       ?Decode@CMessageClientPlayerTaskStatus@@UAEHPAVCStreamReadWrite@@@Z 00427c10 f   MessageClientPlayerTaskStatus.obj
 0001:00026cc0       ?MakeClientPlayerTaskStatusMessage@CMessageClientPlayerTaskStatus@@QAEXHAAV?$basic_string@_WU?$char_traits@_W@std@@V?$allocator@_W@2@@std@@@Z 00427cc0 f   MessageClientPlayerTaskStatus.obj
 0001:00026cf0       ??0CMessageClientQuitReq@@QAE@XZ 00427cf0 f   MessageClientQuitReq.obj
 0001:00026d60       ??_GCMessageClientQuitReq@@UAEPAXI@Z 00427d60 f i MessageClientQuitReq.obj
 0001:00026d60       ??_ECMessageClientQuitReq@@UAEPAXI@Z 00427d60 f i MessageClientQuitReq.obj
 0001:00026d90       ??1CMessageClientQuitReq@@UAE@XZ 00427d90 f   MessageClientQuitReq.obj
 0001:00026db0       ?Encode@CMessageClientQuitReq@@UAE_NPAVCStreamReadWrite@@@Z 00427db0 f   MessageClientQuitReq.obj
 0001:00026e00       ?Decode@CMessageClientQuitReq@@UAEHPAVCStreamReadWrite@@@Z 00427e00 f   MessageClientQuitReq.obj
 0001:00026e40       ?MakeClientQuitMessage@CMessageClientQuitReq@@QAEXH@Z 00427e40 f   MessageClientQuitReq.obj
 0001:00026e60       ??0CMessageClientQuitRes@@QAE@XZ 00427e60 f   MessageClientQuitRes.obj
 0001:00026ed0       ??_GCMessageClientQuitRes@@UAEPAXI@Z 00427ed0 f i MessageClientQuitRes.obj
 0001:00026ed0       ??_ECMessageClientQuitRes@@UAEPAXI@Z 00427ed0 f i MessageClientQuitRes.obj
 0001:00026f00       ??1CMessageClientQuitRes@@UAE@XZ 00427f00 f   MessageClientQuitRes.obj
 0001:00026f20       ?Encode@CMessageClientQuitRes@@UAE_NPAVCStreamReadWrite@@@Z 00427f20 f   MessageClientQuitRes.obj
 0001:00026f70       ?Decode@CMessageClientQuitRes@@UAEHPAVCStreamReadWrite@@@Z 00427f70 f   MessageClientQuitRes.obj
 0001:00026fb0       ?MakeClientQuitMessage@CMessageClientQuitRes@@QAEXH@Z 00427fb0 f   MessageClientQuitRes.obj
 0001:00026fd0       ??0CMessageClientStatus@@QAE@XZ 00427fd0 f   MessageClientStatus.obj
 0001:00027040       ??_GCMessageClientStatus@@UAEPAXI@Z 00428040 f i MessageClientStatus.obj
 0001:00027040       ??_ECMessageClientStatus@@UAEPAXI@Z 00428040 f i MessageClientStatus.obj
 0001:00027070       ??1CMessageClientStatus@@UAE@XZ 00428070 f   MessageClientStatus.obj
 0001:00027090       ?Encode@CMessageClientStatus@@UAE_NPAVCStreamReadWrite@@@Z 00428090 f   MessageClientStatus.obj
 0001:000270b0       ?Decode@CMessageClientStatus@@UAEHPAVCStreamReadWrite@@@Z 004280b0 f   MessageClientStatus.obj
 0001:000270f0       ??0CMessageControlClientReq@@QAE@XZ 004280f0 f   MessageControlClientReq.obj
 0001:00027160       ??_ECMessageControlClientReq@@UAEPAXI@Z 00428160 f i MessageControlClientReq.obj
 0001:00027160       ??_GCMessageControlClientReq@@UAEPAXI@Z 00428160 f i MessageControlClientReq.obj
 0001:00027190       ??1CMessageControlClientReq@@UAE@XZ 00428190 f   MessageControlClientReq.obj
 0001:000271b0       ?Encode@CMessageControlClientReq@@UAE_NPAVCStreamReadWrite@@@Z 004281b0 f   MessageControlClientReq.obj
 0001:00027200       ?Decode@CMessageControlClientReq@@UAEHPAVCStreamReadWrite@@@Z 00428200 f   MessageControlClientReq.obj
 0001:00027240       ?MakeControlMessage@CMessageControlClientReq@@QAEXH@Z 00428240 f   MessageControlClientReq.obj
 0001:00027260       ??0CMessageDoGameOperationReq@@QAE@XZ 00428260 f   MessageDoGameOperationReq.obj
 0001:000272d0       ??_ECMessageDoGameOperationReq@@UAEPAXI@Z 004282d0 f i MessageDoGameOperationReq.obj
 0001:000272d0       ??_GCMessageDoGameOperationReq@@UAEPAXI@Z 004282d0 f i MessageDoGameOperationReq.obj
 0001:00027300       ??1CMessageDoGameOperationReq@@UAE@XZ 00428300 f   MessageDoGameOperationReq.obj
 0001:00027320       ?Encode@CMessageDoGameOperationReq@@UAE_NPAVCStreamReadWrite@@@Z 00428320 f   MessageDoGameOperationReq.obj
 0001:00027390       ?Decode@CMessageDoGameOperationReq@@UAEHPAVCStreamReadWrite@@@Z 00428390 f   MessageDoGameOperationReq.obj
 0001:00027420       ?MakeDoGameOperationMessage@CMessageDoGameOperationReq@@QAEXHHPAD@Z 00428420 f   MessageDoGameOperationReq.obj
 0001:00027460       ??0CMessageHeartBeatReq@@QAE@XZ 00428460 f   MessageHeartBeatReq.obj
 0001:000274d0       ??_GCMessageHeartBeatReq@@UAEPAXI@Z 004284d0 f i MessageHeartBeatReq.obj
 0001:000274d0       ??_ECMessageHeartBeatReq@@UAEPAXI@Z 004284d0 f i MessageHeartBeatReq.obj
 0001:00027500       ??1CMessageHeartBeatReq@@UAE@XZ 00428500 f   MessageHeartBeatReq.obj
 0001:00027520       ?Encode@CMessageHeartBeatReq@@UAE_NPAVCStreamReadWrite@@@Z 00428520 f   MessageHeartBeatReq.obj
 0001:00027570       ?Decode@CMessageHeartBeatReq@@UAEHPAVCStreamReadWrite@@@Z 00428570 f   MessageHeartBeatReq.obj
 0001:000275b0       ?MakeHeartBeatMessage@CMessageHeartBeatReq@@QAEXH@Z 004285b0 f   MessageHeartBeatReq.obj
 0001:000275d0       ??0CMessageHeartBeatRes@@QAE@XZ 004285d0 f   MessageHeartBeatRes.obj
 0001:00027640       ??_ECMessageHeartBeatRes@@UAEPAXI@Z 00428640 f i MessageHeartBeatRes.obj
 0001:00027640       ??_GCMessageHeartBeatRes@@UAEPAXI@Z 00428640 f i MessageHeartBeatRes.obj
 0001:00027670       ??1CMessageHeartBeatRes@@UAE@XZ 00428670 f   MessageHeartBeatRes.obj
 0001:00027690       ?Encode@CMessageHeartBeatRes@@UAE_NPAVCStreamReadWrite@@@Z 00428690 f   MessageHeartBeatRes.obj
 0001:000276e0       ?Decode@CMessageHeartBeatRes@@UAEHPAVCStreamReadWrite@@@Z 004286e0 f   MessageHeartBeatRes.obj
 0001:00027720       ?MakeHeartBeatResMessage@CMessageHeartBeatRes@@QAEXH@Z 00428720 f   MessageHeartBeatRes.obj
 0001:00027740       ??0CMessageLoginReq@@QAE@XZ 00428740 f   MessageLoginReq.obj
 0001:000277b0       ??_GCMessageLoginReq@@UAEPAXI@Z 004287b0 f i MessageLoginReq.obj
 0001:000277b0       ??_ECMessageLoginReq@@UAEPAXI@Z 004287b0 f i MessageLoginReq.obj
 0001:000277e0       ??1CMessageLoginReq@@UAE@XZ 004287e0 f   MessageLoginReq.obj
 0001:00027800       ?Encode@CMessageLoginReq@@UAE_NPAVCStreamReadWrite@@@Z 00428800 f   MessageLoginReq.obj
 0001:00027850       ?Decode@CMessageLoginReq@@UAEHPAVCStreamReadWrite@@@Z 00428850 f   MessageLoginReq.obj
 0001:00027890       ?MakeLoginMessage@CMessageLoginReq@@QAEXH@Z 00428890 f   MessageLoginReq.obj
 0001:000278b0       ??0CMessageLoginRes@@QAE@XZ 004288b0 f   MessageLoginRes.obj
 0001:00027920       ??_ECMessageLoginRes@@UAEPAXI@Z 00428920 f i MessageLoginRes.obj
 0001:00027920       ??_GCMessageLoginRes@@UAEPAXI@Z 00428920 f i MessageLoginRes.obj
 0001:00027950       ??1CMessageLoginRes@@UAE@XZ 00428950 f   MessageLoginRes.obj
 0001:00027970       ?Encode@CMessageLoginRes@@UAE_NPAVCStreamReadWrite@@@Z 00428970 f   MessageLoginRes.obj
 0001:000279d0       ?Decode@CMessageLoginRes@@UAEHPAVCStreamReadWrite@@@Z 004289d0 f   MessageLoginRes.obj
 0001:00027a20       ?MakeLoginResMessage@CMessageLoginRes@@QAEXHH@Z 00428a20 f   MessageLoginRes.obj
 0001:00027a40       ??0CMessageReportDetail@@QAE@XZ 00428a40 f   MessageReportDetail.obj
 0001:00027ab0       ??_GCMessageReportDetail@@UAEPAXI@Z 00428ab0 f i MessageReportDetail.obj
 0001:00027ab0       ??_ECMessageReportDetail@@UAEPAXI@Z 00428ab0 f i MessageReportDetail.obj
 0001:00027ae0       ??1CMessageReportDetail@@UAE@XZ 00428ae0 f   MessageReportDetail.obj
 0001:00027b00       ?Encode@CMessageReportDetail@@UAE_NPAVCStreamReadWrite@@@Z 00428b00 f   MessageReportDetail.obj
 0001:00027b90       ?Decode@CMessageReportDetail@@UAEHPAVCStreamReadWrite@@@Z 00428b90 f   MessageReportDetail.obj
 0001:00027c10       ?MakeReportDetailMessage@CMessageReportDetail@@QAEXHPA_JH@Z 00428c10 f   MessageReportDetail.obj
 0001:00027c40       ??0CMessageWriteText@@QAE@XZ 00428c40 f   MessageWriteText.obj
 0001:00027cd0       ??_ECMessageWriteText@@UAEPAXI@Z 00428cd0 f i MessageWriteText.obj
 0001:00027cd0       ??_GCMessageWriteText@@UAEPAXI@Z 00428cd0 f i MessageWriteText.obj
 0001:00027d00       ??1CMessageWriteText@@UAE@XZ 00428d00 f   MessageWriteText.obj
 0001:00027d70       ?Encode@CMessageWriteText@@UAE_NPAVCStreamReadWrite@@@Z 00428d70 f   MessageWriteText.obj
 0001:00027de0       ?Decode@CMessageWriteText@@UAEHPAVCStreamReadWrite@@@Z 00428de0 f   MessageWriteText.obj
 0001:00027f10       ?MakeWriteDataMessage@CMessageWriteText@@QAEXHABV?$basic_string@_WU?$char_traits@_W@std@@V?$allocator@_W@2@@std@@PBDH@Z 00428f10 f   MessageWriteText.obj
 0001:00027f70       ?GetMessageMap@CGameBotApp@@MBEPBUAFX_MSGMAP@@XZ 00428f70 f   GameBot.obj
 0001:00027f80       ?GetThisMessageMap@CGameBotApp@@KGPBUAFX_MSGMAP@@XZ 00428f80 f   GameBot.obj
 0001:00027f90       ??0CGameBotApp@@QAE@XZ     00428f90 f   GameBot.obj
 0001:00027fc0       ??_ECGameBotApp@@UAEPAXI@Z 00428fc0 f i GameBot.obj
 0001:00027fc0       ??_GCGameBotApp@@UAEPAXI@Z 00428fc0 f i GameBot.obj
 0001:00027ff0       ??1CGameBotApp@@UAE@XZ     00428ff0 f i GameBot.obj
 0001:00028010       ?InitInstance@CGameBotApp@@UAEHXZ 00429010 f   GameBot.obj
 0001:000280f0       ??1CGameBotDlg@@UAE@XZ     004290f0 f i GameBot.obj
 0001:000281d0       ??1?$map@KKU?$less@K@std@@V?$allocator@U?$pair@$$CBKK@std@@@2@@std@@QAE@XZ 004291d0 f i GameBot.obj
 0001:000281f0       ??1?$vector@PAVCPlayer@@V?$allocator@PAVCPlayer@@@std@@@std@@QAE@XZ 004291f0 f i GameBot.obj
 0001:00028250       ??1?$_Tree@V?$_Tmap_traits@KKU?$less@K@std@@V?$allocator@U?$pair@$$CBKK@std@@@2@$0A@@std@@@std@@QAE@XZ 00429250 f i GameBot.obj
 0001:000282b0       ??1?$vector@PAVCInjector@@V?$allocator@PAVCInjector@@@std@@@std@@QAE@XZ 004292b0 f i GameBot.obj
 0001:00028310       ??1?$_Vector_val@PAVCPlayer@@V?$allocator@PAVCPlayer@@@std@@@std@@QAE@XZ 00429310 f i GameBot.obj
 0001:00028330       ??1?$_Tree_val@V?$_Tmap_traits@KKU?$less@K@std@@V?$allocator@U?$pair@$$CBKK@std@@@2@$0A@@std@@@std@@QAE@XZ 00429330 f i GameBot.obj
 0001:00028350       ??1?$_Vector_val@PAVCInjector@@V?$allocator@PAVCInjector@@@std@@@std@@QAE@XZ 00429350 f i GameBot.obj
 0001:00028370       ??1?$_Tree_ptr@V?$_Tmap_traits@KKU?$less@K@std@@V?$allocator@U?$pair@$$CBKK@std@@@2@$0A@@std@@@std@@QAE@XZ 00429370 f i GameBot.obj
 0001:00028390       ??1?$_Tree_nod@V?$_Tmap_traits@KKU?$less@K@std@@V?$allocator@U?$pair@$$CBKK@std@@@2@$0A@@std@@@std@@QAE@XZ 00429390 f i GameBot.obj
 0001:000283b0       ??1?$_Tmap_traits@KKU?$less@K@std@@V?$allocator@U?$pair@$$CBKK@std@@@2@$0A@@std@@QAE@XZ 004293b0 f i GameBot.obj
 0001:000283d0       ?_Tidy@?$vector@PAVCPlayer@@V?$allocator@PAVCPlayer@@@std@@@std@@IAEXXZ 004293d0 f i GameBot.obj
 0001:00028450       ??1?$_Container_base_aux_alloc_empty@V?$allocator@PAVCPlayer@@@std@@@std@@IAE@XZ 00429450 f i GameBot.obj
 0001:00028470       ?_Tidy@?$_Tree@V?$_Tmap_traits@KKU?$less@K@std@@V?$allocator@U?$pair@$$CBKK@std@@@2@$0A@@std@@@std@@IAEXXZ 00429470 f i GameBot.obj
 0001:000285c0       ??1?$_Container_base_aux_alloc_empty@V?$allocator@U?$pair@$$CBKK@std@@@std@@@std@@IAE@XZ 004295c0 f i GameBot.obj
 0001:000285e0       ?_Tidy@?$vector@PAVCInjector@@V?$allocator@PAVCInjector@@@std@@@std@@IAEXXZ 004295e0 f i GameBot.obj
 0001:00028660       ??1?$_Container_base_aux_alloc_empty@V?$allocator@PAVCInjector@@@std@@@std@@IAE@XZ 00429660 f i GameBot.obj
 0001:00028680       ??1iterator@?$_Tree@V?$_Tmap_traits@KKU?$less@K@std@@V?$allocator@U?$pair@$$CBKK@std@@@2@$0A@@std@@@std@@QAE@XZ 00429680 f i GameBot.obj
 0001:000286a0       ??0const_iterator@?$_Tree@V?$_Tmap_traits@KKU?$less@K@std@@V?$allocator@U?$pair@$$CBKK@std@@@2@$0A@@std@@@std@@QAE@ABV012@@Z 004296a0 f i GameBot.obj
 0001:000286d0       ??1const_iterator@?$_Tree@V?$_Tmap_traits@KKU?$less@K@std@@V?$allocator@U?$pair@$$CBKK@std@@@2@$0A@@std@@@std@@QAE@XZ 004296d0 f i GameBot.obj
 0001:000286f0       ??0?$_Bidit@U?$pair@$$CBKK@std@@HPBU12@ABU12@@std@@QAE@ABU01@@Z 004296f0 f i GameBot.obj
 0001:00028710       ??1?$_Bidit@U?$pair@$$CBKK@std@@HPBU12@ABU12@@std@@QAE@XZ 00429710 f i GameBot.obj
 0001:00028730       ??0?$_Iterator_with_base@Ubidirectional_iterator_tag@std@@U?$pair@$$CBKK@2@HPBU32@ABU32@V_Iterator_base@2@@std@@QAE@ABU01@@Z 00429730 f i GameBot.obj
 0001:00028750       ??1?$_Iterator_with_base@Ubidirectional_iterator_tag@std@@U?$pair@$$CBKK@2@HPBU32@ABU32@V_Iterator_base@2@@std@@QAE@XZ 00429750 f i GameBot.obj
 0001:00028770       ?_Destroy@?$vector@PAVCPlayer@@V?$allocator@PAVCPlayer@@@std@@@std@@IAEXPAPAVCPlayer@@0@Z 00429770 f i GameBot.obj
 0001:000287a0       ?deallocate@?$allocator@PAVCPlayer@@@std@@QAEXPAPAVCPlayer@@I@Z 004297a0 f i GameBot.obj
 0001:000287c0       ?_Left@?$_Tree@V?$_Tmap_traits@KKU?$less@K@std@@V?$allocator@U?$pair@$$CBKK@std@@@2@$0A@@std@@@std@@KAAAPAU_Node@?$_Tree_nod@V?$_Tmap_traits@KKU?$less@K@std@@V?$allocator@U?$pair@$$CBKK@std@@@2@$0A@@std@@@2@PAU342@@Z 004297c0 f i GameBot.obj
 0001:000287d0       ?_Parent@?$_Tree@V?$_Tmap_traits@KKU?$less@K@std@@V?$allocator@U?$pair@$$CBKK@std@@@2@$0A@@std@@@std@@KAAAPAU_Node@?$_Tree_nod@V?$_Tmap_traits@KKU?$less@K@std@@V?$allocator@U?$pair@$$CBKK@std@@@2@$0A@@std@@@2@PAU342@@Z 004297d0 f i GameBot.obj
 0001:000287e0       ?_Right@?$_Tree@V?$_Tmap_traits@KKU?$less@K@std@@V?$allocator@U?$pair@$$CBKK@std@@@2@$0A@@std@@@std@@KAAAPAU_Node@?$_Tree_nod@V?$_Tmap_traits@KKU?$less@K@std@@V?$allocator@U?$pair@$$CBKK@std@@@2@$0A@@std@@@2@PAU342@@Z 004297e0 f i GameBot.obj
 0001:000287f0       ?begin@?$_Tree@V?$_Tmap_traits@KKU?$less@K@std@@V?$allocator@U?$pair@$$CBKK@std@@@2@$0A@@std@@@std@@QAE?AViterator@12@XZ 004297f0 f i GameBot.obj
 0001:00028830       ?end@?$_Tree@V?$_Tmap_traits@KKU?$less@K@std@@V?$allocator@U?$pair@$$CBKK@std@@@2@$0A@@std@@@std@@QAE?AViterator@12@XZ 00429830 f i GameBot.obj
 0001:00028870       ?erase@?$_Tree@V?$_Tmap_traits@KKU?$less@K@std@@V?$allocator@U?$pair@$$CBKK@std@@@2@$0A@@std@@@std@@QAE?AViterator@12@Vconst_iterator@12@0@Z 00429870 f i GameBot.obj
 0001:00028a60       ?deallocate@?$allocator@U_Node@?$_Tree_nod@V?$_Tmap_traits@KKU?$less@K@std@@V?$allocator@U?$pair@$$CBKK@std@@@2@$0A@@std@@@std@@@std@@QAEXPAU_Node@?$_Tree_nod@V?$_Tmap_traits@KKU?$less@K@std@@V?$allocator@U?$pair@$$CBKK@std@@@2@$0A@@std@@@2@I@Z 00429a60 f i GameBot.obj
 0001:00028a80       ?destroy@?$allocator@PAU_Node@?$_Tree_nod@V?$_Tmap_traits@KKU?$less@K@std@@V?$allocator@U?$pair@$$CBKK@std@@@2@$0A@@std@@@std@@@std@@QAEXPAPAU_Node@?$_Tree_nod@V?$_Tmap_traits@KKU?$less@K@std@@V?$allocator@U?$pair@$$CBKK@std@@@2@$0A@@std@@@2@@Z 00429a80 f i GameBot.obj
 0001:00028aa0       ?_Destroy@?$vector@PAVCInjector@@V?$allocator@PAVCInjector@@@std@@@std@@IAEXPAPAVCInjector@@0@Z 00429aa0 f i GameBot.obj
 0001:00028ad0       ?deallocate@?$allocator@PAVCInjector@@@std@@QAEXPAPAVCInjector@@I@Z 00429ad0 f i GameBot.obj
 0001:00028af0       ?_Make_iter@?$_Tree@V?$_Tmap_traits@KKU?$less@K@std@@V?$allocator@U?$pair@$$CBKK@std@@@2@$0A@@std@@@std@@QBE?AViterator@12@Vconst_iterator@12@@Z 00429af0 f i GameBot.obj
 0001:00028b90       ?erase@?$_Tree@V?$_Tmap_traits@KKU?$less@K@std@@V?$allocator@U?$pair@$$CBKK@std@@@2@$0A@@std@@@std@@QAE?AViterator@12@Vconst_iterator@12@@Z 00429b90 f i GameBot.obj
 0001:00029390       ?clear@?$_Tree@V?$_Tmap_traits@KKU?$less@K@std@@V?$allocator@U?$pair@$$CBKK@std@@@2@$0A@@std@@@std@@QAEXXZ 0042a390 f i GameBot.obj
 0001:00029400       ?_Lmost@?$_Tree@V?$_Tmap_traits@KKU?$less@K@std@@V?$allocator@U?$pair@$$CBKK@std@@@2@$0A@@std@@@std@@IBEAAPAU_Node@?$_Tree_nod@V?$_Tmap_traits@KKU?$less@K@std@@V?$allocator@U?$pair@$$CBKK@std@@@2@$0A@@std@@@2@XZ 0042a400 f i GameBot.obj
 0001:00029420       ??0iterator@?$_Tree@V?$_Tmap_traits@KKU?$less@K@std@@V?$allocator@U?$pair@$$CBKK@std@@@2@$0A@@std@@@std@@QAE@PAU_Node@?$_Tree_nod@V?$_Tmap_traits@KKU?$less@K@std@@V?$allocator@U?$pair@$$CBKK@std@@@2@$0A@@std@@@2@PBV12@@Z 0042a420 f i GameBot.obj
 0001:00029440       ??Econst_iterator@?$_Tree@V?$_Tmap_traits@KKU?$less@K@std@@V?$allocator@U?$pair@$$CBKK@std@@@2@$0A@@std@@@std@@QAE?AV012@H@Z 0042a440 f i GameBot.obj
 0001:000294c0       ??8const_iterator@?$_Tree@V?$_Tmap_traits@KKU?$less@K@std@@V?$allocator@U?$pair@$$CBKK@std@@@2@$0A@@std@@@std@@QBE_NABV012@@Z 0042a4c0 f i GameBot.obj
 0001:00029550       ??9const_iterator@?$_Tree@V?$_Tmap_traits@KKU?$less@K@std@@V?$allocator@U?$pair@$$CBKK@std@@@2@$0A@@std@@@std@@QBE_NABV012@@Z 0042a550 f i GameBot.obj
 0001:00029580       ??0iterator@?$_Tree@V?$_Tmap_traits@KKU?$less@K@std@@V?$allocator@U?$pair@$$CBKK@std@@@2@$0A@@std@@@std@@QAE@ABV012@@Z 0042a580 f i GameBot.obj
 0001:000295a0       ?_Color@?$_Tree@V?$_Tmap_traits@KKU?$less@K@std@@V?$allocator@U?$pair@$$CBKK@std@@@2@$0A@@std@@@std@@KAAADPAU_Node@?$_Tree_nod@V?$_Tmap_traits@KKU?$less@K@std@@V?$allocator@U?$pair@$$CBKK@std@@@2@$0A@@std@@@2@@Z 0042a5a0 f i GameBot.obj
 0001:000295b0       ?_Isnil@?$_Tree@V?$_Tmap_traits@KKU?$less@K@std@@V?$allocator@U?$pair@$$CBKK@std@@@2@$0A@@std@@@std@@KAAADPAU_Node@?$_Tree_nod@V?$_Tmap_traits@KKU?$less@K@std@@V?$allocator@U?$pair@$$CBKK@std@@@2@$0A@@std@@@2@@Z 0042a5b0 f i GameBot.obj
 0001:000295c0       ?_Erase@?$_Tree@V?$_Tmap_traits@KKU?$less@K@std@@V?$allocator@U?$pair@$$CBKK@std@@@2@$0A@@std@@@std@@IAEXPAU_Node@?$_Tree_nod@V?$_Tmap_traits@KKU?$less@K@std@@V?$allocator@U?$pair@$$CBKK@std@@@2@$0A@@std@@@2@@Z 0042a5c0 f i GameBot.obj
 0001:00029640       ?_Lrotate@?$_Tree@V?$_Tmap_traits@KKU?$less@K@std@@V?$allocator@U?$pair@$$CBKK@std@@@2@$0A@@std@@@std@@IAEXPAU_Node@?$_Tree_nod@V?$_Tmap_traits@KKU?$less@K@std@@V?$allocator@U?$pair@$$CBKK@std@@@2@$0A@@std@@@2@@Z 0042a640 f i GameBot.obj
 0001:00029770       ?_Max@?$_Tree@V?$_Tmap_traits@KKU?$less@K@std@@V?$allocator@U?$pair@$$CBKK@std@@@2@$0A@@std@@@std@@KAPAU_Node@?$_Tree_nod@V?$_Tmap_traits@KKU?$less@K@std@@V?$allocator@U?$pair@$$CBKK@std@@@2@$0A@@std@@@2@PAU342@@Z 0042a770 f i GameBot.obj
 0001:000297b0       ?_Min@?$_Tree@V?$_Tmap_traits@KKU?$less@K@std@@V?$allocator@U?$pair@$$CBKK@std@@@2@$0A@@std@@@std@@KAPAU_Node@?$_Tree_nod@V?$_Tmap_traits@KKU?$less@K@std@@V?$allocator@U?$pair@$$CBKK@std@@@2@$0A@@std@@@2@PAU342@@Z 0042a7b0 f i GameBot.obj
 0001:000297f0       ?_Rmost@?$_Tree@V?$_Tmap_traits@KKU?$less@K@std@@V?$allocator@U?$pair@$$CBKK@std@@@2@$0A@@std@@@std@@IBEAAPAU_Node@?$_Tree_nod@V?$_Tmap_traits@KKU?$less@K@std@@V?$allocator@U?$pair@$$CBKK@std@@@2@$0A@@std@@@2@XZ 0042a7f0 f i GameBot.obj
 0001:00029810       ?_Root@?$_Tree@V?$_Tmap_traits@KKU?$less@K@std@@V?$allocator@U?$pair@$$CBKK@std@@@2@$0A@@std@@@std@@IBEAAPAU_Node@?$_Tree_nod@V?$_Tmap_traits@KKU?$less@K@std@@V?$allocator@U?$pair@$$CBKK@std@@@2@$0A@@std@@@2@XZ 0042a810 f i GameBot.obj
 0001:00029830       ?_Rrotate@?$_Tree@V?$_Tmap_traits@KKU?$less@K@std@@V?$allocator@U?$pair@$$CBKK@std@@@2@$0A@@std@@@std@@IAEXPAU_Node@?$_Tree_nod@V?$_Tmap_traits@KKU?$less@K@std@@V?$allocator@U?$pair@$$CBKK@std@@@2@$0A@@std@@@2@@Z 0042a830 f i GameBot.obj
 0001:00029960       ?_Orphan_ptr@?$_Tree@V?$_Tmap_traits@KKU?$less@K@std@@V?$allocator@U?$pair@$$CBKK@std@@@2@$0A@@std@@@std@@IBEXAAV12@PAU_Node@?$_Tree_nod@V?$_Tmap_traits@KKU?$less@K@std@@V?$allocator@U?$pair@$$CBKK@std@@@2@$0A@@std@@@2@@Z 0042a960 f i GameBot.obj
 0001:000299e0       ?destroy@?$allocator@U_Node@?$_Tree_nod@V?$_Tmap_traits@KKU?$less@K@std@@V?$allocator@U?$pair@$$CBKK@std@@@2@$0A@@std@@@std@@@std@@QAEXPAU_Node@?$_Tree_nod@V?$_Tmap_traits@KKU?$less@K@std@@V?$allocator@U?$pair@$$CBKK@std@@@2@$0A@@std@@@2@@Z 0042a9e0 f i GameBot.obj
 0001:00029a00       ??0const_iterator@?$_Tree@V?$_Tmap_traits@KKU?$less@K@std@@V?$allocator@U?$pair@$$CBKK@std@@@2@$0A@@std@@@std@@QAE@PAU_Node@?$_Tree_nod@V?$_Tmap_traits@KKU?$less@K@std@@V?$allocator@U?$pair@$$CBKK@std@@@2@$0A@@std@@@2@PBV12@@Z 0042aa00 f i GameBot.obj
 0001:00029a70       ??Econst_iterator@?$_Tree@V?$_Tmap_traits@KKU?$less@K@std@@V?$allocator@U?$pair@$$CBKK@std@@@2@$0A@@std@@@std@@QAEAAV012@XZ 0042aa70 f i GameBot.obj
 0001:00029a90       ?_Mynode@const_iterator@?$_Tree@V?$_Tmap_traits@KKU?$less@K@std@@V?$allocator@U?$pair@$$CBKK@std@@@2@$0A@@std@@@std@@QBEPAU_Node@?$_Tree_nod@V?$_Tmap_traits@KKU?$less@K@std@@V?$allocator@U?$pair@$$CBKK@std@@@2@$0A@@std@@@3@XZ 0042aa90 f i GameBot.obj
 0001:00029ab0       ??0?$_Bidit@U?$pair@$$CBKK@std@@HPBU12@ABU12@@std@@QAE@XZ 0042aab0 f i GameBot.obj
 0001:00029ad0       ??0?$_Iterator_with_base@Ubidirectional_iterator_tag@std@@U?$pair@$$CBKK@2@HPBU32@ABU32@V_Iterator_base@2@@std@@QAE@XZ 0042aad0 f i GameBot.obj
 0001:00029af0       ?_Inc@const_iterator@?$_Tree@V?$_Tmap_traits@KKU?$less@K@std@@V?$allocator@U?$pair@$$CBKK@std@@@2@$0A@@std@@@std@@QAEXXZ 0042aaf0 f i GameBot.obj
 0001:00029c20       ??$_Destroy_range@V?$allocator@PAVCPlayer@@@std@@@std@@YAXPAPAVCPlayer@@0AAV?$allocator@PAVCPlayer@@@0@@Z 0042ac20 f i GameBot.obj
 0001:00029c60       ??$_Destroy@PAU_Node@?$_Tree_nod@V?$_Tmap_traits@KKU?$less@K@std@@V?$allocator@U?$pair@$$CBKK@std@@@2@$0A@@std@@@std@@@std@@YAXPAPAU_Node@?$_Tree_nod@V?$_Tmap_traits@KKU?$less@K@std@@V?$allocator@U?$pair@$$CBKK@std@@@2@$0A@@std@@@0@@Z 0042ac60 f i GameBot.obj
 0001:00029c70       ??$_Destroy_range@V?$allocator@PAVCInjector@@@std@@@std@@YAXPAPAVCInjector@@0AAV?$allocator@PAVCInjector@@@0@@Z 0042ac70 f i GameBot.obj
 0001:00029cb0       ??$_Destroy@U_Node@?$_Tree_nod@V?$_Tmap_traits@KKU?$less@K@std@@V?$allocator@U?$pair@$$CBKK@std@@@2@$0A@@std@@@std@@@std@@YAXPAU_Node@?$_Tree_nod@V?$_Tmap_traits@KKU?$less@K@std@@V?$allocator@U?$pair@$$CBKK@std@@@2@$0A@@std@@@0@@Z 0042acb0 f i GameBot.obj
 0001:00029cc0       ??$_Ptr_cat@PAPAVCPlayer@@PAPAV1@@std@@YA?AU_Scalar_ptr_iterator_tag@0@AAPAPAVCPlayer@@0@Z 0042acc0 f i GameBot.obj
 0001:00029cd0       ??$_Destroy_range@V?$allocator@PAVCPlayer@@@std@@@std@@YAXPAPAVCPlayer@@0AAV?$allocator@PAVCPlayer@@@0@U_Scalar_ptr_iterator_tag@0@@Z 0042acd0 f i GameBot.obj
 0001:00029ce0       ??$_Ptr_cat@PAPAVCInjector@@PAPAV1@@std@@YA?AU_Scalar_ptr_iterator_tag@0@AAPAPAVCInjector@@0@Z 0042ace0 f i GameBot.obj
 0001:00029cf0       ??$_Destroy_range@V?$allocator@PAVCInjector@@@std@@@std@@YAXPAPAVCInjector@@0AAV?$allocator@PAVCInjector@@@0@U_Scalar_ptr_iterator_tag@0@@Z 0042acf0 f i GameBot.obj
 0001:00029d00       ?TestReadFile@@YAPADPB_WAAH@Z 0042ad00 f   GameBotDlg.obj
 0001:00029e40       ??0CAboutDlg@@QAE@XZ       0042ae40 f   GameBotDlg.obj
 0001:00029e70       ??_GCAboutDlg@@UAEPAXI@Z   0042ae70 f i GameBotDlg.obj
 0001:00029e70       ??_ECAboutDlg@@UAEPAXI@Z   0042ae70 f i GameBotDlg.obj
 0001:00029ea0       ??1CAboutDlg@@UAE@XZ       0042aea0 f i GameBotDlg.obj
 0001:00029ec0       ?DoDataExchange@CAboutDlg@@MAEXPAVCDataExchange@@@Z 0042aec0 f   GameBotDlg.obj
 0001:00029ee0       ?GetMessageMap@CAboutDlg@@MBEPBUAFX_MSGMAP@@XZ 0042aee0 f   GameBotDlg.obj
 0001:00029ef0       ?GetThisMessageMap@CAboutDlg@@KGPBUAFX_MSGMAP@@XZ 0042aef0 f   GameBotDlg.obj
 0001:00029f00       ??0CGameBotDlg@@QAE@PAVCWnd@@@Z 0042af00 f   GameBotDlg.obj
 0001:0002a090       ?OnOK@CGameBotDlg@@MAEXXZ  0042b090 f i GameBotDlg.obj
 0001:0002a0a0       ?OnCancel@CGameBotDlg@@MAEXXZ 0042b0a0 f i GameBotDlg.obj
 0001:0002a0b0       ??_ECGameBotDlg@@UAEPAXI@Z 0042b0b0 f i GameBotDlg.obj
 0001:0002a0b0       ??_GCGameBotDlg@@UAEPAXI@Z 0042b0b0 f i GameBotDlg.obj
 0001:0002a0e0       ?DoDataExchange@CGameBotDlg@@MAEXPAVCDataExchange@@@Z 0042b0e0 f   GameBotDlg.obj
 0001:0002a120       ?GetMessageMap@CGameBotDlg@@MBEPBUAFX_MSGMAP@@XZ 0042b120 f   GameBotDlg.obj
 0001:0002a130       ?GetThisMessageMap@CGameBotDlg@@KGPBUAFX_MSGMAP@@XZ 0042b130 f   GameBotDlg.obj
 0001:0002a140       ?OnInitDialog@CGameBotDlg@@MAEHXZ 0042b140 f   GameBotDlg.obj
 0001:0002a570       ?SetInit@CGameBotDlg@@IAEX_N@Z 0042b570 f i GameBotDlg.obj
 0001:0002a590       ?OnSysCommand@CGameBotDlg@@IAEXIJ@Z 0042b590 f   GameBotDlg.obj
 0001:0002a5d0       ?OnPaint@CGameBotDlg@@IAEXXZ 0042b5d0 f   GameBotDlg.obj
 0001:0002a710       ?OnQueryDragIcon@CGameBotDlg@@IAEPAUHICON__@@XZ 0042b710 f   GameBotDlg.obj
 0001:0002a730       ?OnClose@CGameBotDlg@@QAEXXZ 0042b730 f   GameBotDlg.obj
 0001:0002a7f0       ??_GCShareMemory@@QAEPAXI@Z 0042b7f0 f i GameBotDlg.obj
 0001:0002a820       ?OnBnClickedBtnLogin@CGameBotDlg@@QAEXXZ 0042b820 f   GameBotDlg.obj
 0001:0002a830       ?InitCtrls@CGameBotDlg@@IAEXXZ 0042b830 f   GameBotDlg.obj
 0001:0002a920       ?InitListCtrl@CGameBotDlg@@IAEXXZ 0042b920 f   GameBotDlg.obj
 0001:0002aa20       ?InitCombo@CGameBotDlg@@IAEXXZ 0042ba20 f   GameBotDlg.obj
 0001:0002aaa0       ?InitPlayers@CGameBotDlg@@IAEXXZ 0042baa0 f   GameBotDlg.obj
 0001:0002aac0       ?ClearPlayers@CGameBotDlg@@IAEXXZ 0042bac0 f   GameBotDlg.obj
 0001:0002aca0       ??1?$_Vector_iterator@PAVCPlayer@@V?$allocator@PAVCPlayer@@@std@@@std@@QAE@XZ 0042bca0 f i GameBotDlg.obj
 0001:0002acc0       ??4?$_Vector_iterator@PAVCPlayer@@V?$allocator@PAVCPlayer@@@std@@@std@@QAEAAV01@ABV01@@Z 0042bcc0 f i GameBotDlg.obj
 0001:0002ace0       ??1?$_Vector_const_iterator@PAVCPlayer@@V?$allocator@PAVCPlayer@@@std@@@std@@QAE@XZ 0042bce0 f i GameBotDlg.obj
 0001:0002ad00       ??4?$_Vector_const_iterator@PAVCPlayer@@V?$allocator@PAVCPlayer@@@std@@@std@@QAEAAV01@ABV01@@Z 0042bd00 f i GameBotDlg.obj
 0001:0002ad30       ??1?$_Ranit@PAVCPlayer@@HPBQAV1@ABQAV1@@std@@QAE@XZ 0042bd30 f i GameBotDlg.obj
 0001:0002ad50       ??4?$_Ranit@PAVCPlayer@@HPBQAV1@ABQAV1@@std@@QAEAAU01@ABU01@@Z 0042bd50 f i GameBotDlg.obj
 0001:0002ad70       ??1?$_Iterator_with_base@Urandom_access_iterator_tag@std@@PAVCPlayer@@HPBQAV3@ABQAV3@V_Iterator_base@2@@std@@QAE@XZ 0042bd70 f i GameBotDlg.obj
 0001:0002ad90       ??4?$_Iterator_with_base@Urandom_access_iterator_tag@std@@PAVCPlayer@@HPBQAV3@ABQAV3@V_Iterator_base@2@@std@@QAEAAU01@ABU01@@Z 0042bd90 f i GameBotDlg.obj
 0001:0002adb0       ?GetPlayerById@CGameBotDlg@@IAEPAVCPlayer@@H@Z 0042bdb0 f   GameBotDlg.obj
 0001:0002aea0       ?GetPlayerIndex@CPlayer@@QAEHXZ 0042bea0 f i GameBotDlg.obj
 0001:0002aec0       ?ShowChangeMap@CGameBotDlg@@IAEXH@Z 0042bec0 f   GameBotDlg.obj
 0001:0002aed0       ?OnHandleSelfMessage@CGameBotDlg@@QAEJIJ@Z 0042bed0 f   GameBotDlg.obj
 0001:0002afc0       ?GetIndex@CClient@@QAEHXZ  0042bfc0 f i GameBotDlg.obj
 0001:0002afe0       ?OnBnClickedBtnTalkTest@CGameBotDlg@@QAEXXZ 0042bfe0 f   GameBotDlg.obj
 0001:0002aff0       ?OnBnClickedBtnLoginGameServ@CGameBotDlg@@QAEXXZ 0042bff0 f   GameBotDlg.obj
 0001:0002b000       ?OnLvnItemchangedListInfo@CGameBotDlg@@QAEXPAUtagNMHDR@@PAJ@Z 0042c000 f   GameBotDlg.obj
 0001:0002b040       ?OnNMRClickListInfo@CGameBotDlg@@QAEXPAUtagNMHDR@@PAJ@Z 0042c040 f   GameBotDlg.obj
 0001:0002b150       ?OnListPopupMenu@CGameBotDlg@@QAEXI@Z 0042c150 f   GameBotDlg.obj
 0001:0002b5d0       ?IsDlgCreated@CDlgShowLog@@QAEHXZ 0042c5d0 f i GameBotDlg.obj
 0001:0002b5f0       ?GetSkillList@CInfoPlayerInfoStatus@@QAEAAV?$vector@HV?$allocator@H@std@@@std@@XZ 0042c5f0 f i GameBotDlg.obj
 0001:0002b610       ?GetPlayerStatus@CClient@@QAEPAVCInfoPlayerInfoStatus@@XZ 0042c610 f i GameBotDlg.obj
 0001:0002b630       ?SetAccountName@CDlgSecretarySettings@@QAEXAAV?$basic_string@_WU?$char_traits@_W@std@@V?$allocator@_W@2@@std@@@Z 0042c630 f i GameBotDlg.obj
 0001:0002b650       ?SetAccountName@CDlgOtherSetting@@QAEXAAV?$basic_string@_WU?$char_traits@_W@std@@V?$allocator@_W@2@@std@@@Z 0042c650 f i GameBotDlg.obj
 0001:0002b670       ?SetPlayerSkillList@CDlgOtherSetting@@QAEXAAV?$vector@HV?$allocator@H@std@@@std@@@Z 0042c670 f i GameBotDlg.obj
 0001:0002b690       ?SetPlayerSkillList@CDlgSkillSetting@@QAEXAAV?$vector@HV?$allocator@H@std@@@std@@@Z 0042c690 f i GameBotDlg.obj
 0001:0002b6b0       ?SetAccountName@CDlgBossSettings@@QAEXAAV?$basic_string@_WU?$char_traits@_W@std@@V?$allocator@_W@2@@std@@@Z 0042c6b0 f i GameBotDlg.obj
 0001:0002b6d0       ?ReadGameConfigFileToList@CGameBotDlg@@QAEXXZ 0042c6d0 f   GameBotDlg.obj
 0001:0002bb70       ?SetAccountName@CPlayer@@QAEXABV?$basic_string@_WU?$char_traits@_W@std@@V?$allocator@_W@2@@std@@@Z 0042cb70 f i GameBotDlg.obj
 0001:0002bb90       ?SetUserName@CGameConfig@@QAEXAAV?$basic_string@_WU?$char_traits@_W@std@@V?$allocator@_W@2@@std@@@Z 0042cb90 f i GameBotDlg.obj
 0001:0002bbc0       ??1?$_Vector_iterator@V?$basic_string@_WU?$char_traits@_W@std@@V?$allocator@_W@2@@std@@V?$allocator@V?$basic_string@_WU?$char_traits@_W@std@@V?$allocator@_W@2@@std@@@2@@std@@QAE@XZ 0042cbc0 f i GameBotDlg.obj
 0001:0002bbe0       ?UpdateAccountInfoToList@CGameBotDlg@@AAEXPAVCAccountInfo@@@Z 0042cbe0 f   GameBotDlg.obj
 0001:0002bdb0       ?GetAccountName@CAccountInfo@@QAE?AV?$basic_string@_WU?$char_traits@_W@std@@V?$allocator@_W@2@@std@@XZ 0042cdb0 f i GameBotDlg.obj
 0001:0002bde0       ?GetServerId@CAccountInfo@@QAEHXZ 0042cde0 f i GameBotDlg.obj
 0001:0002be00       ?GetPlatformIndex@CAccountInfo@@QAEHXZ 0042ce00 f i GameBotDlg.obj
 0001:0002be20       ?GetIndex@CAccountInfo@@QAEHXZ 0042ce20 f i GameBotDlg.obj
 0001:0002be40       ?AddAccountInfoToList@CGameBotDlg@@AAEXPAVCAccountInfo@@@Z 0042ce40 f   GameBotDlg.obj
 0001:0002c190       ?DeleteAccountInfoFromList@CGameBotDlg@@AAEXH@Z 0042d190 f   GameBotDlg.obj
 0001:0002c1a0       ?UpdateRoleInfoToList@CGameBotDlg@@AAEXHPAVCClient@@@Z 0042d1a0 f   GameBotDlg.obj
 0001:0002c4f0       ??0CTraceFileAndLineInfo@ATL@@QAE@PBDH@Z 0042d4f0 f i GameBotDlg.obj
 0001:0002c520       ??RCTraceFileAndLineInfo@ATL@@QBAXPB_WZZ 0042d520 f i GameBotDlg.obj
 0001:0002c570       ?TraceV@CTrace@ATL@@QBAXPBDHKIPB_WPAD@Z 0042d570 f i GameBotDlg.obj
 0001:0002c5a0       ??BCTraceCategory@ATL@@QBEKXZ 0042d5a0 f i GameBotDlg.obj
 0001:0002c5b0       ?GetX@CInfoPlayerInfoStatus@@QAEHXZ 0042d5b0 f i GameBotDlg.obj
 0001:0002c5d0       ?GetY@CInfoPlayerInfoStatus@@QAEHXZ 0042d5d0 f i GameBotDlg.obj
 0001:0002c5f0       ?UpdatePlayerConnectInfo@CGameBotDlg@@AAEXHPAVCClient@@@Z 0042d5f0 f   GameBotDlg.obj
 0001:0002c600       ?InitHelperObjects@CGameBotDlg@@AAEXXZ 0042d600 f   GameBotDlg.obj
 0001:0002c650       ?SetServer@CMessageSenderHelper@@QAEXPAVCServer@@@Z 0042d650 f i GameBotDlg.obj
 0001:0002c670       ?ClearHelperObjects@CGameBotDlg@@AAEXXZ 0042d670 f   GameBotDlg.obj
 0001:0002c690       ?SetTestBtnVisible@CGameBotDlg@@IAEX_N@Z 0042d690 f   GameBotDlg.obj
 0001:0002c700       ?ResizeWindow@CGameBotDlg@@IAEXHH@Z 0042d700 f   GameBotDlg.obj
 0001:0002c790       ?OnMinimize@CGameBotDlg@@AAEXXZ 0042d790 f   GameBotDlg.obj
 0001:0002c820       ?OnClickTray@CGameBotDlg@@QAEJIJ@Z 0042d820 f   GameBotDlg.obj
 0001:0002c860       ?OnBnClickedBtnPlayAll@CGameBotDlg@@QAEXXZ 0042d860 f   GameBotDlg.obj
 0001:0002ca00       ?SetDllFullPath@CInjector@@QAEXPB_W@Z 0042da00 f i GameBotDlg.obj
 0001:0002ca20       ?WriteLogMsg@CGameBotDlg@@AAEXPAU_GAME_LOG_MSG_@@@Z 0042da20 f   GameBotDlg.obj
 0001:0002ca50       ?UpdateCurrentOperation@CGameBotDlg@@AAEXHPAVCClient@@@Z 0042da50 f   GameBotDlg.obj
 0001:0002cae0       ?GetTaskStatus@CClient@@QAE?AV?$basic_string@_WU?$char_traits@_W@std@@V?$allocator@_W@2@@std@@XZ 0042dae0 f i GameBotDlg.obj
 0001:0002cb20       ?SendOperation@CGameBotDlg@@AAEXPAU_OPERATION_MSG_@@@Z 0042db20 f   GameBotDlg.obj
 0001:0002cb90       ?GetClient@CPlayer@@QAEPAVCClient@@XZ 0042db90 f i GameBotDlg.obj
 0001:0002cbb0       ?OnCopyData@CGameBotDlg@@QAEHPAVCWnd@@PAUtagCOPYDATASTRUCT@@@Z 0042dbb0 f   GameBotDlg.obj
 0001:0002cc80       ?OnSize@CGameBotDlg@@QAEXIHH@Z 0042dc80 f   GameBotDlg.obj
 0001:0002ccc0       ?IsInit@CGameBotDlg@@IAE_NXZ 0042dcc0 f i GameBotDlg.obj
 0001:0002cce0       ?OnBnClickedBtnRepairCfgFile@CGameBotDlg@@QAEXXZ 0042dce0 f   GameBotDlg.obj
 0001:0002ccf0       ?ChangeToBasicTheme@CGameBotDlg@@IAEXXZ 0042dcf0 f   GameBotDlg.obj
 0001:0002cd00       ?ChangeDisplaySolution@CGameBotDlg@@IAEXHH@Z 0042dd00 f   GameBotDlg.obj
 0001:0002cd10       ?TryToRepairConfigInInit@CGameBotDlg@@QAEXXZ 0042dd10 f   GameBotDlg.obj
 0001:0002cd20       ?OnNMClickListInfo@CGameBotDlg@@QAEXPAUtagNMHDR@@PAJ@Z 0042dd20 f   GameBotDlg.obj
 0001:0002cdb0       ?InitToolObjects@CGameBotDlg@@AAEXXZ 0042ddb0 f   GameBotDlg.obj
 0001:0002ce50       ?DeleteToolObjects@CGameBotDlg@@AAEXXZ 0042de50 f   GameBotDlg.obj
 0001:0002cf90       ??1?$_Vector_iterator@PAVCInjector@@V?$allocator@PAVCInjector@@@std@@@std@@QAE@XZ 0042df90 f i GameBotDlg.obj
 0001:0002cfb0       ??1?$_Vector_const_iterator@PAVCInjector@@V?$allocator@PAVCInjector@@@std@@@std@@QAE@XZ 0042dfb0 f i GameBotDlg.obj
 0001:0002cfd0       ??1?$_Ranit@PAVCInjector@@HPBQAV1@ABQAV1@@std@@QAE@XZ 0042dfd0 f i GameBotDlg.obj
 0001:0002cff0       ??1?$_Iterator_with_base@Urandom_access_iterator_tag@std@@PAVCInjector@@HPBQAV3@ABQAV3@V_Iterator_base@2@@std@@QAE@XZ 0042dff0 f i GameBotDlg.obj
 0001:0002d010       ?OnBnClickedBtnConnect@CGameBotDlg@@QAEXXZ 0042e010 f   GameBotDlg.obj
 0001:0002d080       ?OnBnClickedBtnTestMisc@CGameBotDlg@@QAEXXZ 0042e080 f   GameBotDlg.obj
 0001:0002d090       ?OnBnClickedBtnClickMe@CGameBotDlg@@QAEXXZ 0042e090 f   GameBotDlg.obj
 0001:0002d130       ?OnCbnSelchangeCbGameVersion@CGameBotDlg@@QAEXXZ 0042e130 f   GameBotDlg.obj
 0001:0002d160       ?RegisterGlobalHotKey@CGameBotDlg@@IAEXXZ 0042e160 f   GameBotDlg.obj
 0001:0002d180       ?RegisterGlobalHotKeyInternal@CGameBotDlg@@QAEX_N@Z 0042e180 f   GameBotDlg.obj
 0001:0002d190       ?OnHotKey@CGameBotDlg@@QAEXIII@Z 0042e190 f   GameBotDlg.obj
 0001:0002d1e0       ?OnCbnSelchangeCbInjectType@CGameBotDlg@@QAEXXZ 0042e1e0 f   GameBotDlg.obj
 0001:0002d1f0       ?OnBnClickedBtnAccerlateSetting@CGameBotDlg@@QAEXXZ 0042e1f0 f   GameBotDlg.obj
 0001:0002d200       ?TestWrite@CGameBotDlg@@QAEXXZ 0042e200 f   GameBotDlg.obj
 0001:0002d390       ?TestAttachProcess@CGameBotDlg@@QAEXXZ 0042e390 f   GameBotDlg.obj
 0001:0002d770       ?GetAllProcessInfos@CDlgProcessList@@QAEAAV?$vector@UPROCESS_INFO@@V?$allocator@UPROCESS_INFO@@@std@@@std@@XZ 0042e770 f i GameBotDlg.obj
 0001:0002d790       ?begin@?$vector@V?$basic_string@_WU?$char_traits@_W@std@@V?$allocator@_W@2@@std@@V?$allocator@V?$basic_string@_WU?$char_traits@_W@std@@V?$allocator@_W@2@@std@@@2@@std@@QAE?AV?$_Vector_iterator@V?$basic_string@_WU?$char_traits@_W@std@@V?$allocator@_W@2@@std@@V?$allocator@V?$basic_string@_WU?$char_traits@_W@std@@V?$allocator@_W@2@@std@@@2@@2@XZ 0042e790 f i GameBotDlg.obj
 0001:0002d7d0       ?end@?$vector@V?$basic_string@_WU?$char_traits@_W@std@@V?$allocator@_W@2@@std@@V?$allocator@V?$basic_string@_WU?$char_traits@_W@std@@V?$allocator@_W@2@@std@@@2@@std@@QAE?AV?$_Vector_iterator@V?$basic_string@_WU?$char_traits@_W@std@@V?$allocator@_W@2@@std@@V?$allocator@V?$basic_string@_WU?$char_traits@_W@std@@V?$allocator@_W@2@@std@@@2@@2@XZ 0042e7d0 f i GameBotDlg.obj
 0001:0002d810       ?push_back@?$vector@V?$basic_string@_WU?$char_traits@_W@std@@V?$allocator@_W@2@@std@@V?$allocator@V?$basic_string@_WU?$char_traits@_W@std@@V?$allocator@_W@2@@std@@@2@@std@@QAEXABV?$basic_string@_WU?$char_traits@_W@std@@V?$allocator@_W@2@@2@@Z 0042e810 f i GameBotDlg.obj
 0001:0002d8f0       ??0?$vector@PAVCPlayer@@V?$allocator@PAVCPlayer@@@std@@@std@@QAE@XZ 0042e8f0 f i GameBotDlg.obj
 0001:0002d960       ?begin@?$vector@PAVCPlayer@@V?$allocator@PAVCPlayer@@@std@@@std@@QAE?AV?$_Vector_iterator@PAVCPlayer@@V?$allocator@PAVCPlayer@@@std@@@2@XZ 0042e960 f i GameBotDlg.obj
 0001:0002d9a0       ?end@?$vector@PAVCPlayer@@V?$allocator@PAVCPlayer@@@std@@@std@@QAE?AV?$_Vector_iterator@PAVCPlayer@@V?$allocator@PAVCPlayer@@@std@@@2@XZ 0042e9a0 f i GameBotDlg.obj
 0001:0002d9e0       ?at@?$vector@PAVCPlayer@@V?$allocator@PAVCPlayer@@@std@@@std@@QAEAAPAVCPlayer@@I@Z 0042e9e0 f i GameBotDlg.obj
 0001:0002da90       ?push_back@?$vector@PAVCPlayer@@V?$allocator@PAVCPlayer@@@std@@@std@@QAEXABQAVCPlayer@@@Z 0042ea90 f i GameBotDlg.obj
 0001:0002db70       ?clear@?$vector@PAVCPlayer@@V?$allocator@PAVCPlayer@@@std@@@std@@QAEXXZ 0042eb70 f i GameBotDlg.obj
 0001:0002dc50       ??0?$map@KKU?$less@K@std@@V?$allocator@U?$pair@$$CBKK@std@@@2@@std@@QAE@XZ 0042ec50 f i GameBotDlg.obj
 0001:0002dc80       ??A?$map@KKU?$less@K@std@@V?$allocator@U?$pair@$$CBKK@std@@@2@@std@@QAEAAKABK@Z 0042ec80 f i GameBotDlg.obj
 0001:0002ddf0       ?find@?$_Tree@V?$_Tmap_traits@KKU?$less@K@std@@V?$allocator@U?$pair@$$CBKK@std@@@2@$0A@@std@@@std@@QAE?AViterator@12@ABK@Z 0042edf0 f i GameBotDlg.obj
 0001:0002df50       ??0?$vector@PAVCInjector@@V?$allocator@PAVCInjector@@@std@@@std@@QAE@XZ 0042ef50 f i GameBotDlg.obj
 0001:0002dfc0       ?begin@?$vector@PAVCInjector@@V?$allocator@PAVCInjector@@@std@@@std@@QAE?AV?$_Vector_iterator@PAVCInjector@@V?$allocator@PAVCInjector@@@std@@@2@XZ 0042efc0 f i GameBotDlg.obj
 0001:0002e000       ?end@?$vector@PAVCInjector@@V?$allocator@PAVCInjector@@@std@@@std@@QAE?AV?$_Vector_iterator@PAVCInjector@@V?$allocator@PAVCInjector@@@std@@@2@XZ 0042f000 f i GameBotDlg.obj
 0001:0002e040       ?at@?$vector@PAVCInjector@@V?$allocator@PAVCInjector@@@std@@@std@@QAEAAPAVCInjector@@I@Z 0042f040 f i GameBotDlg.obj
 0001:0002e0f0       ?push_back@?$vector@PAVCInjector@@V?$allocator@PAVCInjector@@@std@@@std@@QAEXABQAVCInjector@@@Z 0042f0f0 f i GameBotDlg.obj
 0001:0002e1d0       ??D?$_Vector_iterator@PAVCPlayer@@V?$allocator@PAVCPlayer@@@std@@@std@@QBEAAPAVCPlayer@@XZ 0042f1d0 f i GameBotDlg.obj
 0001:0002e1f0       ??E?$_Vector_iterator@PAVCPlayer@@V?$allocator@PAVCPlayer@@@std@@@std@@QAEAAV01@XZ 0042f1f0 f i GameBotDlg.obj
 0001:0002e210       ??9?$_Vector_const_iterator@PAVCPlayer@@V?$allocator@PAVCPlayer@@@std@@@std@@QBE_NABV01@@Z 0042f210 f i GameBotDlg.obj
 0001:0002e240       ??M?$_Vector_const_iterator@PAVCPlayer@@V?$allocator@PAVCPlayer@@@std@@@std@@QBE_NABV01@@Z 0042f240 f i GameBotDlg.obj
 0001:0002e270       ??D?$_Vector_iterator@V?$basic_string@_WU?$char_traits@_W@std@@V?$allocator@_W@2@@std@@V?$allocator@V?$basic_string@_WU?$char_traits@_W@std@@V?$allocator@_W@2@@std@@@2@@std@@QBEAAV?$basic_string@_WU?$char_traits@_W@std@@V?$allocator@_W@2@@1@XZ 0042f270 f i GameBotDlg.obj
 0001:0002e290       ??C?$_Vector_iterator@V?$basic_string@_WU?$char_traits@_W@std@@V?$allocator@_W@2@@std@@V?$allocator@V?$basic_string@_WU?$char_traits@_W@std@@V?$allocator@_W@2@@std@@@2@@std@@QBEPAV?$basic_string@_WU?$char_traits@_W@std@@V?$allocator@_W@2@@1@XZ 0042f290 f i GameBotDlg.obj
 0001:0002e2b0       ??E?$_Vector_iterator@V?$basic_string@_WU?$char_traits@_W@std@@V?$allocator@_W@2@@std@@V?$allocator@V?$basic_string@_WU?$char_traits@_W@std@@V?$allocator@_W@2@@std@@@2@@std@@QAEAAV01@XZ 0042f2b0 f i GameBotDlg.obj
 0001:0002e2d0       ??D?$_Vector_iterator@PAVCInjector@@V?$allocator@PAVCInjector@@@std@@@std@@QBEAAPAVCInjector@@XZ 0042f2d0 f i GameBotDlg.obj
 0001:0002e2f0       ??E?$_Vector_iterator@PAVCInjector@@V?$allocator@PAVCInjector@@@std@@@std@@QAEAAV01@XZ 0042f2f0 f i GameBotDlg.obj
 0001:0002e310       ??9?$_Vector_const_iterator@PAVCInjector@@V?$allocator@PAVCInjector@@@std@@@std@@QBE_NABV01@@Z 0042f310 f i GameBotDlg.obj
 0001:0002e340       ??0?$_Vector_const_iterator@PAVCPlayer@@V?$allocator@PAVCPlayer@@@std@@@std@@QAE@ABV01@@Z 0042f340 f i GameBotDlg.obj
 0001:0002e370       ??4iterator@?$_Tree@V?$_Tmap_traits@KKU?$less@K@std@@V?$allocator@U?$pair@$$CBKK@std@@@2@$0A@@std@@@std@@QAEAAV012@ABV012@@Z 0042f370 f i GameBotDlg.obj
 0001:0002e390       ??0?$_Vector_const_iterator@PAVCInjector@@V?$allocator@PAVCInjector@@@std@@@std@@QAE@ABV01@@Z 0042f390 f i GameBotDlg.obj
 0001:0002e3c0       ??0?$_Ranit@PAVCPlayer@@HPBQAV1@ABQAV1@@std@@QAE@ABU01@@Z 0042f3c0 f i GameBotDlg.obj
 0001:0002e3e0       ??4const_iterator@?$_Tree@V?$_Tmap_traits@KKU?$less@K@std@@V?$allocator@U?$pair@$$CBKK@std@@@2@$0A@@std@@@std@@QAEAAV012@ABV012@@Z 0042f3e0 f i GameBotDlg.obj
 0001:0002e410       ??0?$_Ranit@PAVCInjector@@HPBQAV1@ABQAV1@@std@@QAE@ABU01@@Z 0042f410 f i GameBotDlg.obj
 0001:0002e430       ??0?$_Iterator_with_base@Urandom_access_iterator_tag@std@@PAVCPlayer@@HPBQAV3@ABQAV3@V_Iterator_base@2@@std@@QAE@ABU01@@Z 0042f430 f i GameBotDlg.obj
 0001:0002e450       ??4?$_Bidit@U?$pair@$$CBKK@std@@HPBU12@ABU12@@std@@QAEAAU01@ABU01@@Z 0042f450 f i GameBotDlg.obj
 0001:0002e470       ??0?$_Iterator_with_base@Urandom_access_iterator_tag@std@@PAVCInjector@@HPBQAV3@ABQAV3@V_Iterator_base@2@@std@@QAE@ABU01@@Z 0042f470 f i GameBotDlg.obj
 0001:0002e490       ??4?$_Iterator_with_base@Ubidirectional_iterator_tag@std@@U?$pair@$$CBKK@2@HPBU32@ABU32@V_Iterator_base@2@@std@@QAEAAU01@ABU01@@Z 0042f490 f i GameBotDlg.obj
 0001:0002e4b0       ?capacity@?$vector@V?$basic_string@_WU?$char_traits@_W@std@@V?$allocator@_W@2@@std@@V?$allocator@V?$basic_string@_WU?$char_traits@_W@std@@V?$allocator@_W@2@@std@@@2@@std@@QBEIXZ 0042f4b0 f i GameBotDlg.obj
 0001:0002e4f0       ?insert@?$vector@V?$basic_string@_WU?$char_traits@_W@std@@V?$allocator@_W@2@@std@@V?$allocator@V?$basic_string@_WU?$char_traits@_W@std@@V?$allocator@_W@2@@std@@@2@@std@@QAE?AV?$_Vector_iterator@V?$basic_string@_WU?$char_traits@_W@std@@V?$allocator@_W@2@@std@@V?$allocator@V?$basic_string@_WU?$char_traits@_W@std@@V?$allocator@_W@2@@std@@@2@@2@V?$_Vector_const_iterator@V?$basic_string@_WU?$char_traits@_W@std@@V?$allocator@_W@2@@std@@V?$allocator@V?$basic_string@_WU?$char_traits@_W@std@@V?$allocator@_W@2@@std@@@2@@2@ABV?$basic_string@_WU?$char_traits@_W@std@@V?$allocator@_W@2@@2@@Z 0042f4f0 f i GameBotDlg.obj
 0001:0002e610       ?_Ufill@?$vector@V?$basic_string@_WU?$char_traits@_W@std@@V?$allocator@_W@2@@std@@V?$allocator@V?$basic_string@_WU?$char_traits@_W@std@@V?$allocator@_W@2@@std@@@2@@std@@IAEPAV?$basic_string@_WU?$char_traits@_W@std@@V?$allocator@_W@2@@2@PAV32@IABV32@@Z 0042f610 f i GameBotDlg.obj
 0001:0002e650       ?_Orphan_range@?$vector@V?$basic_string@_WU?$char_traits@_W@std@@V?$allocator@_W@2@@std@@V?$allocator@V?$basic_string@_WU?$char_traits@_W@std@@V?$allocator@_W@2@@std@@@2@@std@@IBEXPAV?$basic_string@_WU?$char_traits@_W@std@@V?$allocator@_W@2@@2@0@Z 0042f650 f i GameBotDlg.obj
 0001:0002e6d0       ?capacity@?$vector@PAVCPlayer@@V?$allocator@PAVCPlayer@@@std@@@std@@QBEIXZ 0042f6d0 f i GameBotDlg.obj
 0001:0002e710       ?size@?$vector@PAVCPlayer@@V?$allocator@PAVCPlayer@@@std@@@std@@QBEIXZ 0042f710 f i GameBotDlg.obj
 0001:0002e730       ?insert@?$vector@PAVCPlayer@@V?$allocator@PAVCPlayer@@@std@@@std@@QAE?AV?$_Vector_iterator@PAVCPlayer@@V?$allocator@PAVCPlayer@@@std@@@2@V?$_Vector_const_iterator@PAVCPlayer@@V?$allocator@PAVCPlayer@@@std@@@2@ABQAVCPlayer@@@Z 0042f730 f i GameBotDlg.obj
 0001:0002e850       ?erase@?$vector@PAVCPlayer@@V?$allocator@PAVCPlayer@@@std@@@std@@QAE?AV?$_Vector_iterator@PAVCPlayer@@V?$allocator@PAVCPlayer@@@std@@@2@V?$_Vector_const_iterator@PAVCPlayer@@V?$allocator@PAVCPlayer@@@std@@@2@0@Z 0042f850 f i GameBotDlg.obj
 0001:0002e9e0       ?_Buy@?$vector@PAVCPlayer@@V?$allocator@PAVCPlayer@@@std@@@std@@IAE_NI@Z 0042f9e0 f i GameBotDlg.obj
 0001:0002ea60       ?_Ufill@?$vector@PAVCPlayer@@V?$allocator@PAVCPlayer@@@std@@@std@@IAEPAPAVCPlayer@@PAPAV3@IABQAV3@@Z 0042fa60 f i GameBotDlg.obj
 0001:0002eaa0       ?_Xran@?$vector@PAVCPlayer@@V?$allocator@PAVCPlayer@@@std@@@std@@KAXXZ 0042faa0 f i GameBotDlg.obj
 0001:0002eb20       ??0out_of_range@std@@QAE@ABV?$basic_string@DU?$char_traits@D@std@@V?$allocator@D@2@@1@@Z 0042fb20 f i GameBotDlg.obj
 0001:0002eb50       ??1out_of_range@std@@UAE@XZ 0042fb50 f i GameBotDlg.obj
 0001:0002eb70       ??_Gout_of_range@std@@UAEPAXI@Z 0042fb70 f i GameBotDlg.obj
 0001:0002eb70       ??_Eout_of_range@std@@UAEPAXI@Z 0042fb70 f i GameBotDlg.obj
 0001:0002eba0       ??0out_of_range@std@@QAE@ABV01@@Z 0042fba0 f i GameBotDlg.obj
 0001:0002ebd0       ?_Orphan_range@?$vector@PAVCPlayer@@V?$allocator@PAVCPlayer@@@std@@@std@@IBEXPAPAVCPlayer@@0@Z 0042fbd0 f i GameBotDlg.obj
 0001:0002ec50       ??0?$_Vector_val@PAVCPlayer@@V?$allocator@PAVCPlayer@@@std@@@std@@IAE@V?$allocator@PAVCPlayer@@@1@@Z 0042fc50 f i GameBotDlg.obj
 0001:0002ec90       ??0?$allocator@PAVCPlayer@@@std@@QAE@XZ 0042fc90 f i GameBotDlg.obj
 0001:0002eca0       ?_Key@?$_Tree@V?$_Tmap_traits@KKU?$less@K@std@@V?$allocator@U?$pair@$$CBKK@std@@@2@$0A@@std@@@std@@KAABKPAU_Node@?$_Tree_nod@V?$_Tmap_traits@KKU?$less@K@std@@V?$allocator@U?$pair@$$CBKK@std@@@2@$0A@@std@@@2@@Z 0042fca0 f i GameBotDlg.obj
 0001:0002ecc0       ??0?$_Tree@V?$_Tmap_traits@KKU?$less@K@std@@V?$allocator@U?$pair@$$CBKK@std@@@2@$0A@@std@@@std@@QAE@ABU?$less@K@1@ABV?$allocator@U?$pair@$$CBKK@std@@@1@@Z 0042fcc0 f i GameBotDlg.obj
 0001:0002ed30       ?insert@?$_Tree@V?$_Tmap_traits@KKU?$less@K@std@@V?$allocator@U?$pair@$$CBKK@std@@@2@$0A@@std@@@std@@QAE?AViterator@12@Vconst_iterator@12@ABU?$pair@$$CBKK@2@@Z 0042fd30 f i GameBotDlg.obj
 0001:0002f8e0       ?lower_bound@?$_Tree@V?$_Tmap_traits@KKU?$less@K@std@@V?$allocator@U?$pair@$$CBKK@std@@@2@$0A@@std@@@std@@QAE?AViterator@12@ABK@Z 004308e0 f i GameBotDlg.obj
 0001:0002f920       ??0?$allocator@U?$pair@$$CBKK@std@@@std@@QAE@XZ 00430920 f i GameBotDlg.obj
 0001:0002f930       ??R?$less@K@std@@QBE_NABK0@Z 00430930 f i GameBotDlg.obj
 0001:0002f950       ?capacity@?$vector@PAVCInjector@@V?$allocator@PAVCInjector@@@std@@@std@@QBEIXZ 00430950 f i GameBotDlg.obj
 0001:0002f990       ?size@?$vector@PAVCInjector@@V?$allocator@PAVCInjector@@@std@@@std@@QBEIXZ 00430990 f i GameBotDlg.obj
 0001:0002f9b0       ?insert@?$vector@PAVCInjector@@V?$allocator@PAVCInjector@@@std@@@std@@QAE?AV?$_Vector_iterator@PAVCInjector@@V?$allocator@PAVCInjector@@@std@@@2@V?$_Vector_const_iterator@PAVCInjector@@V?$allocator@PAVCInjector@@@std@@@2@ABQAVCInjector@@@Z 004309b0 f i GameBotDlg.obj
 0001:0002fad0       ?_Buy@?$vector@PAVCInjector@@V?$allocator@PAVCInjector@@@std@@@std@@IAE_NI@Z 00430ad0 f i GameBotDlg.obj
 0001:0002fb50       ?_Ufill@?$vector@PAVCInjector@@V?$allocator@PAVCInjector@@@std@@@std@@IAEPAPAVCInjector@@PAPAV3@IABQAV3@@Z 00430b50 f i GameBotDlg.obj
 0001:0002fb90       ?_Xran@?$vector@PAVCInjector@@V?$allocator@PAVCInjector@@@std@@@std@@KAXXZ 00430b90 f i GameBotDlg.obj
 0001:0002fc10       ?_Orphan_range@?$vector@PAVCInjector@@V?$allocator@PAVCInjector@@@std@@@std@@IBEXPAPAVCInjector@@0@Z 00430c10 f i GameBotDlg.obj
 0001:0002fc90       ??0?$_Vector_val@PAVCInjector@@V?$allocator@PAVCInjector@@@std@@@std@@IAE@V?$allocator@PAVCInjector@@@1@@Z 00430c90 f i GameBotDlg.obj
 0001:0002fcd0       ??0?$allocator@PAVCInjector@@@std@@QAE@XZ 00430cd0 f i GameBotDlg.obj
 0001:0002fce0       ??0?$_Vector_iterator@PAVCPlayer@@V?$allocator@PAVCPlayer@@@std@@@std@@QAE@PAPAVCPlayer@@PBV_Container_base_secure@1@@Z 00430ce0 f i GameBotDlg.obj
 0001:0002fd00       ??H?$_Vector_iterator@PAVCPlayer@@V?$allocator@PAVCPlayer@@@std@@@std@@QBE?AV01@H@Z 00430d00 f i GameBotDlg.obj
 0001:0002fd80       ??D?$_Vector_const_iterator@PAVCPlayer@@V?$allocator@PAVCPlayer@@@std@@@std@@QBEABQAVCPlayer@@XZ 00430d80 f i GameBotDlg.obj
 0001:0002fe10       ??E?$_Vector_const_iterator@PAVCPlayer@@V?$allocator@PAVCPlayer@@@std@@@std@@QAEAAV01@XZ 00430e10 f i GameBotDlg.obj
 0001:0002ff10       ??8?$_Vector_const_iterator@PAVCPlayer@@V?$allocator@PAVCPlayer@@@std@@@std@@QBE_NABV01@@Z 00430f10 f i GameBotDlg.obj
 0001:0002ff40       ?_Compat@?$_Vector_const_iterator@PAVCPlayer@@V?$allocator@PAVCPlayer@@@std@@@std@@QBEXABV12@@Z 00430f40 f i GameBotDlg.obj
 0001:0002ffc0       ??0?$_Vector_iterator@V?$basic_string@_WU?$char_traits@_W@std@@V?$allocator@_W@2@@std@@V?$allocator@V?$basic_string@_WU?$char_traits@_W@std@@V?$allocator@_W@2@@std@@@2@@std@@QAE@PAV?$basic_string@_WU?$char_traits@_W@std@@V?$allocator@_W@2@@1@PBV_Container_base_secure@1@@Z 00430fc0 f i GameBotDlg.obj
 0001:0002ffe0       ??0?$_Vector_iterator@PAVCInjector@@V?$allocator@PAVCInjector@@@std@@@std@@QAE@PAPAVCInjector@@PBV_Container_base_secure@1@@Z 00430fe0 f i GameBotDlg.obj
 0001:00030000       ??H?$_Vector_iterator@PAVCInjector@@V?$allocator@PAVCInjector@@@std@@@std@@QBE?AV01@H@Z 00431000 f i GameBotDlg.obj
 0001:00030080       ??D?$_Vector_const_iterator@PAVCInjector@@V?$allocator@PAVCInjector@@@std@@@std@@QBEABQAVCInjector@@XZ 00431080 f i GameBotDlg.obj
 0001:00030110       ??E?$_Vector_const_iterator@PAVCInjector@@V?$allocator@PAVCInjector@@@std@@@std@@QAEAAV01@XZ 00431110 f i GameBotDlg.obj
 0001:00030210       ??8?$_Vector_const_iterator@PAVCInjector@@V?$allocator@PAVCInjector@@@std@@@std@@QBE_NABV01@@Z 00431210 f i GameBotDlg.obj
 0001:00030240       ??Diterator@?$_Tree@V?$_Tmap_traits@KKU?$less@K@std@@V?$allocator@U?$pair@$$CBKK@std@@@2@$0A@@std@@@std@@QBEAAU?$pair@$$CBKK@2@XZ 00431240 f i GameBotDlg.obj
 0001:00030260       ??0?$pair@$$CBKK@std@@QAE@ABK0@Z 00431260 f i GameBotDlg.obj
 0001:00030290       ??1?$pair@Viterator@?$_Tree@V?$_Tmap_traits@KKU?$less@K@std@@V?$allocator@U?$pair@$$CBKK@std@@@2@$0A@@std@@@std@@_N@std@@QAE@XZ 00431290 f i GameBotDlg.obj
 0001:000302b0       ??0?$_Vector_iterator@PAVCPlayer@@V?$allocator@PAVCPlayer@@@std@@@std@@QAE@ABV01@@Z 004312b0 f i GameBotDlg.obj
 0001:000302d0       ??0?$_Vector_iterator@PAVCInjector@@V?$allocator@PAVCInjector@@@std@@@std@@QAE@ABV01@@Z 004312d0 f i GameBotDlg.obj
 0001:000302f0       ?_Insert_n@?$vector@V?$basic_string@_WU?$char_traits@_W@std@@V?$allocator@_W@2@@std@@V?$allocator@V?$basic_string@_WU?$char_traits@_W@std@@V?$allocator@_W@2@@std@@@2@@std@@IAEXV?$_Vector_const_iterator@V?$basic_string@_WU?$char_traits@_W@std@@V?$allocator@_W@2@@std@@V?$allocator@V?$basic_string@_WU?$char_traits@_W@std@@V?$allocator@_W@2@@std@@@2@@2@IABV?$basic_string@_WU?$char_traits@_W@std@@V?$allocator@_W@2@@2@@Z 004312f0 f i GameBotDlg.obj
 0001:00030750       ?_Make_iter@?$vector@PAVCPlayer@@V?$allocator@PAVCPlayer@@@std@@@std@@QBE?AV?$_Vector_iterator@PAVCPlayer@@V?$allocator@PAVCPlayer@@@std@@@2@V?$_Vector_const_iterator@PAVCPlayer@@V?$allocator@PAVCPlayer@@@std@@@2@@Z 00431750 f i GameBotDlg.obj
 0001:000307c0       ?max_size@?$vector@PAVCPlayer@@V?$allocator@PAVCPlayer@@@std@@@std@@QBEIXZ 004317c0 f i GameBotDlg.obj
 0001:000307e0       ?_Insert_n@?$vector@PAVCPlayer@@V?$allocator@PAVCPlayer@@@std@@@std@@IAEXV?$_Vector_const_iterator@PAVCPlayer@@V?$allocator@PAVCPlayer@@@std@@@2@IABQAVCPlayer@@@Z 004317e0 f i GameBotDlg.obj
 0001:00030c00       ?_Xlen@?$vector@PAVCPlayer@@V?$allocator@PAVCPlayer@@@std@@@std@@KAXXZ 00431c00 f i GameBotDlg.obj
 0001:00030c80       ??0?$_Container_base_aux_alloc_empty@V?$allocator@PAVCPlayer@@@std@@@std@@IAE@V?$allocator@PAVCPlayer@@@1@@Z 00431c80 f i GameBotDlg.obj
 0001:00030ca0       ??0?$allocator@PAVCPlayer@@@std@@QAE@ABV01@@Z 00431ca0 f i GameBotDlg.obj
 0001:00030cb0       ?allocate@?$allocator@PAVCPlayer@@@std@@QAEPAPAVCPlayer@@I@Z 00431cb0 f i GameBotDlg.obj
 0001:00030cd0       ?_Myval@?$_Tree@V?$_Tmap_traits@KKU?$less@K@std@@V?$allocator@U?$pair@$$CBKK@std@@@2@$0A@@std@@@std@@KAAAU?$pair@$$CBKK@2@PAU_Node@?$_Tree_nod@V?$_Tmap_traits@KKU?$less@K@std@@V?$allocator@U?$pair@$$CBKK@std@@@2@$0A@@std@@@2@@Z 00431cd0 f i GameBotDlg.obj
 0001:00030ce0       ?size@?$_Tree@V?$_Tmap_traits@KKU?$less@K@std@@V?$allocator@U?$pair@$$CBKK@std@@@2@$0A@@std@@@std@@QBEIXZ 00431ce0 f i GameBotDlg.obj
 0001:00030d00       ?insert@?$_Tree@V?$_Tmap_traits@KKU?$less@K@std@@V?$allocator@U?$pair@$$CBKK@std@@@2@$0A@@std@@@std@@QAE?AU?$pair@Viterator@?$_Tree@V?$_Tmap_traits@KKU?$less@K@std@@V?$allocator@U?$pair@$$CBKK@std@@@2@$0A@@std@@@std@@_N@2@ABU?$pair@$$CBKK@2@@Z 00431d00 f i GameBotDlg.obj
 0001:00031010       ?_Init@?$_Tree@V?$_Tmap_traits@KKU?$less@K@std@@V?$allocator@U?$pair@$$CBKK@std@@@2@$0A@@std@@@std@@IAEXXZ 00432010 f i GameBotDlg.obj
 0001:00031080       ?_Insert@?$_Tree@V?$_Tmap_traits@KKU?$less@K@std@@V?$allocator@U?$pair@$$CBKK@std@@@2@$0A@@std@@@std@@IAE?AViterator@12@_NPAU_Node@?$_Tree_nod@V?$_Tmap_traits@KKU?$less@K@std@@V?$allocator@U?$pair@$$CBKK@std@@@2@$0A@@std@@@2@ABU?$pair@$$CBKK@2@@Z 00432080 f i GameBotDlg.obj
 0001:00031510       ?_Lbound@?$_Tree@V?$_Tmap_traits@KKU?$less@K@std@@V?$allocator@U?$pair@$$CBKK@std@@@2@$0A@@std@@@std@@IBEPAU_Node@?$_Tree_nod@V?$_Tmap_traits@KKU?$less@K@std@@V?$allocator@U?$pair@$$CBKK@std@@@2@$0A@@std@@@2@ABK@Z 00432510 f i GameBotDlg.obj
 0001:000315b0       ??0?$_Tree_val@V?$_Tmap_traits@KKU?$less@K@std@@V?$allocator@U?$pair@$$CBKK@std@@@2@$0A@@std@@@std@@IAE@ABU?$less@K@1@V?$allocator@U?$pair@$$CBKK@std@@@1@@Z 004325b0 f i GameBotDlg.obj
 0001:000315f0       ?_Kfn@?$_Tmap_traits@KKU?$less@K@std@@V?$allocator@U?$pair@$$CBKK@std@@@2@$0A@@std@@SAABKABU?$pair@$$CBKK@2@@Z 004325f0 f i GameBotDlg.obj
 0001:00031600       ??0?$allocator@U?$pair@$$CBKK@std@@@std@@QAE@ABV01@@Z 00432600 f i GameBotDlg.obj
 0001:00031610       ?max_size@?$vector@PAVCInjector@@V?$allocator@PAVCInjector@@@std@@@std@@QBEIXZ 00432610 f i GameBotDlg.obj
 0001:00031630       ?_Insert_n@?$vector@PAVCInjector@@V?$allocator@PAVCInjector@@@std@@@std@@IAEXV?$_Vector_const_iterator@PAVCInjector@@V?$allocator@PAVCInjector@@@std@@@2@IABQAVCInjector@@@Z 00432630 f i GameBotDlg.obj
 0001:00031a50       ?_Xlen@?$vector@PAVCInjector@@V?$allocator@PAVCInjector@@@std@@@std@@KAXXZ 00432a50 f i GameBotDlg.obj
 0001:00031ad0       ??0?$_Container_base_aux_alloc_empty@V?$allocator@PAVCInjector@@@std@@@std@@IAE@V?$allocator@PAVCInjector@@@1@@Z 00432ad0 f i GameBotDlg.obj
 0001:00031af0       ??0?$allocator@PAVCInjector@@@std@@QAE@ABV01@@Z 00432af0 f i GameBotDlg.obj
 0001:00031b00       ?allocate@?$allocator@PAVCInjector@@@std@@QAEPAPAVCInjector@@I@Z 00432b00 f i GameBotDlg.obj
 0001:00031b20       ??Y?$_Vector_iterator@PAVCPlayer@@V?$allocator@PAVCPlayer@@@std@@@std@@QAEAAV01@H@Z 00432b20 f i GameBotDlg.obj
 0001:00031b40       ??0?$_Vector_const_iterator@PAVCPlayer@@V?$allocator@PAVCPlayer@@@std@@@std@@QAE@PAPAVCPlayer@@PBV_Container_base_secure@1@@Z 00432b40 f i GameBotDlg.obj
 0001:00031c10       ??G?$_Vector_const_iterator@PAVCPlayer@@V?$allocator@PAVCPlayer@@@std@@@std@@QBEHABV01@@Z 00432c10 f i GameBotDlg.obj
 0001:00031c40       ??H?$_Vector_iterator@V?$basic_string@_WU?$char_traits@_W@std@@V?$allocator@_W@2@@std@@V?$allocator@V?$basic_string@_WU?$char_traits@_W@std@@V?$allocator@_W@2@@std@@@2@@std@@QBE?AV01@H@Z 00432c40 f i GameBotDlg.obj
 0001:00031cc0       ??G?$_Vector_const_iterator@V?$basic_string@_WU?$char_traits@_W@std@@V?$allocator@_W@2@@std@@V?$allocator@V?$basic_string@_WU?$char_traits@_W@std@@V?$allocator@_W@2@@std@@@2@@std@@QBEHABV01@@Z 00432cc0 f i GameBotDlg.obj
 0001:00031cf0       ??Y?$_Vector_iterator@PAVCInjector@@V?$allocator@PAVCInjector@@@std@@@std@@QAEAAV01@H@Z 00432cf0 f i GameBotDlg.obj
 0001:00031d10       ??0?$_Vector_const_iterator@PAVCInjector@@V?$allocator@PAVCInjector@@@std@@@std@@QAE@PAPAVCInjector@@PBV_Container_base_secure@1@@Z 00432d10 f i GameBotDlg.obj
 0001:00031de0       ??G?$_Vector_const_iterator@PAVCInjector@@V?$allocator@PAVCInjector@@@std@@@std@@QBEHABV01@@Z 00432de0 f i GameBotDlg.obj
 0001:00031e10       ?_Compat@?$_Vector_const_iterator@PAVCInjector@@V?$allocator@PAVCInjector@@@std@@@std@@QBEXABV12@@Z 00432e10 f i GameBotDlg.obj
 0001:00031e90       ??0const_iterator@?$_Tree@V?$_Tmap_traits@KKU?$less@K@std@@V?$allocator@U?$pair@$$CBKK@std@@@2@$0A@@std@@@std@@QAE@XZ 00432e90 f i GameBotDlg.obj
 0001:00031eb0       ??Dconst_iterator@?$_Tree@V?$_Tmap_traits@KKU?$less@K@std@@V?$allocator@U?$pair@$$CBKK@std@@@2@$0A@@std@@@std@@QBEABU?$pair@$$CBKK@2@XZ 00432eb0 f i GameBotDlg.obj
 0001:00031f50       ??Fconst_iterator@?$_Tree@V?$_Tmap_traits@KKU?$less@K@std@@V?$allocator@U?$pair@$$CBKK@std@@@2@$0A@@std@@@std@@QAEAAV012@XZ 00432f50 f i GameBotDlg.obj
 0001:00031f70       ??0?$_Ranit@PAVCPlayer@@HPBQAV1@ABQAV1@@std@@QAE@XZ 00432f70 f i GameBotDlg.obj
 0001:00031f90       ??0?$_Vector_iterator@V?$basic_string@_WU?$char_traits@_W@std@@V?$allocator@_W@2@@std@@V?$allocator@V?$basic_string@_WU?$char_traits@_W@std@@V?$allocator@_W@2@@std@@@2@@std@@QAE@ABV01@@Z 00432f90 f i GameBotDlg.obj
 0001:00031fb0       ??0?$_Ranit@PAVCInjector@@HPBQAV1@ABQAV1@@std@@QAE@XZ 00432fb0 f i GameBotDlg.obj
 0001:00031fd0       ??0?$_Iterator_with_base@Urandom_access_iterator_tag@std@@PAVCPlayer@@HPBQAV3@ABQAV3@V_Iterator_base@2@@std@@QAE@XZ 00432fd0 f i GameBotDlg.obj
 0001:00031ff0       ??0?$_Iterator_with_base@Urandom_access_iterator_tag@std@@PAVCInjector@@HPBQAV3@ABQAV3@V_Iterator_base@2@@std@@QAE@XZ 00432ff0 f i GameBotDlg.obj
 0001:00032010       ?max_size@?$allocator@PAVCPlayer@@@std@@QBEIXZ 00433010 f i GameBotDlg.obj
 0001:00032040       ?max_size@?$_Tree@V?$_Tmap_traits@KKU?$less@K@std@@V?$allocator@U?$pair@$$CBKK@std@@@2@$0A@@std@@@std@@QBEIXZ 00433040 f i GameBotDlg.obj
 0001:00032060       ?_Buynode@?$_Tree@V?$_Tmap_traits@KKU?$less@K@std@@V?$allocator@U?$pair@$$CBKK@std@@@2@$0A@@std@@@std@@IAEPAU_Node@?$_Tree_nod@V?$_Tmap_traits@KKU?$less@K@std@@V?$allocator@U?$pair@$$CBKK@std@@@2@$0A@@std@@@2@XZ 00433060 f i GameBotDlg.obj
 0001:000321e0       ?_Buynode@?$_Tree@V?$_Tmap_traits@KKU?$less@K@std@@V?$allocator@U?$pair@$$CBKK@std@@@2@$0A@@std@@@std@@IAEPAU_Node@?$_Tree_nod@V?$_Tmap_traits@KKU?$less@K@std@@V?$allocator@U?$pair@$$CBKK@std@@@2@$0A@@std@@@2@PAU342@00ABU?$pair@$$CBKK@2@D@Z 004331e0 f i GameBotDlg.obj
 0001:000322d0       ??0?$_Tree_ptr@V?$_Tmap_traits@KKU?$less@K@std@@V?$allocator@U?$pair@$$CBKK@std@@@2@$0A@@std@@@std@@QAE@ABU?$less@K@1@V?$allocator@U?$pair@$$CBKK@std@@@1@@Z 004332d0 f i GameBotDlg.obj
 0001:00032310       ?max_size@?$allocator@PAVCInjector@@@std@@QBEIXZ 00433310 f i GameBotDlg.obj
 0001:00032340       ??Y?$_Vector_const_iterator@PAVCPlayer@@V?$allocator@PAVCPlayer@@@std@@@std@@QAEAAV01@H@Z 00433340 f i GameBotDlg.obj
 0001:00032440       ??Y?$_Vector_iterator@V?$basic_string@_WU?$char_traits@_W@std@@V?$allocator@_W@2@@std@@V?$allocator@V?$basic_string@_WU?$char_traits@_W@std@@V?$allocator@_W@2@@std@@@2@@std@@QAEAAV01@H@Z 00433440 f i GameBotDlg.obj
 0001:00032460       ??Y?$_Vector_const_iterator@PAVCInjector@@V?$allocator@PAVCInjector@@@std@@@std@@QAEAAV01@H@Z 00433460 f i GameBotDlg.obj
 0001:00032560       ??Fiterator@?$_Tree@V?$_Tmap_traits@KKU?$less@K@std@@V?$allocator@U?$pair@$$CBKK@std@@@2@$0A@@std@@@std@@QAEAAV012@XZ 00433560 f i GameBotDlg.obj
 0001:00032580       ?_Dec@const_iterator@?$_Tree@V?$_Tmap_traits@KKU?$less@K@std@@V?$allocator@U?$pair@$$CBKK@std@@@2@$0A@@std@@@std@@QAEXXZ 00433580 f i GameBotDlg.obj
 0001:000327b0       ??0?$pair@Viterator@?$_Tree@V?$_Tmap_traits@KKU?$less@K@std@@V?$allocator@U?$pair@$$CBKK@std@@@2@$0A@@std@@@std@@_N@std@@QAE@ABViterator@?$_Tree@V?$_Tmap_traits@KKU?$less@K@std@@V?$allocator@U?$pair@$$CBKK@std@@@2@$0A@@std@@@1@AB_N@Z 004337b0 f i GameBotDlg.obj
 0001:000327e0       ??0?$_Tree_nod@V?$_Tmap_traits@KKU?$less@K@std@@V?$allocator@U?$pair@$$CBKK@std@@@2@$0A@@std@@@std@@IAE@ABU?$less@K@1@V?$allocator@U?$pair@$$CBKK@std@@@1@@Z 004337e0 f i GameBotDlg.obj
 0001:00032820       ?max_size@?$allocator@U?$pair@$$CBKK@std@@@std@@QBEIXZ 00433820 f i GameBotDlg.obj
 0001:00032850       ?allocate@?$allocator@U_Node@?$_Tree_nod@V?$_Tmap_traits@KKU?$less@K@std@@V?$allocator@U?$pair@$$CBKK@std@@@2@$0A@@std@@@std@@@std@@QAEPAU_Node@?$_Tree_nod@V?$_Tmap_traits@KKU?$less@K@std@@V?$allocator@U?$pair@$$CBKK@std@@@2@$0A@@std@@@2@I@Z 00433850 f i GameBotDlg.obj
 0001:00032870       ?construct@?$allocator@PAU_Node@?$_Tree_nod@V?$_Tmap_traits@KKU?$less@K@std@@V?$allocator@U?$pair@$$CBKK@std@@@2@$0A@@std@@@std@@@std@@QAEXPAPAU_Node@?$_Tree_nod@V?$_Tmap_traits@KKU?$less@K@std@@V?$allocator@U?$pair@$$CBKK@std@@@2@$0A@@std@@@2@ABQAU342@@Z 00433870 f i GameBotDlg.obj
 0001:00032890       ??Y?$_Vector_const_iterator@V?$basic_string@_WU?$char_traits@_W@std@@V?$allocator@_W@2@@std@@V?$allocator@V?$basic_string@_WU?$char_traits@_W@std@@V?$allocator@_W@2@@std@@@2@@std@@QAEAAV01@H@Z 00433890 f i GameBotDlg.obj
 0001:00032990       ??0_Node@?$_Tree_nod@V?$_Tmap_traits@KKU?$less@K@std@@V?$allocator@U?$pair@$$CBKK@std@@@2@$0A@@std@@@std@@QAE@PAU012@00ABU?$pair@$$CBKK@2@D@Z 00433990 f i GameBotDlg.obj
 0001:000329e0       ??0?$_Tmap_traits@KKU?$less@K@std@@V?$allocator@U?$pair@$$CBKK@std@@@2@$0A@@std@@QAE@U?$less@K@1@V?$allocator@U?$pair@$$CBKK@std@@@1@@Z 004339e0 f i GameBotDlg.obj
 0001:00032a10       ??0?$_Container_base_aux_alloc_empty@V?$allocator@U?$pair@$$CBKK@std@@@std@@@std@@IAE@V?$allocator@U?$pair@$$CBKK@std@@@1@@Z 00433a10 f i GameBotDlg.obj
 0001:00032a30       ??$_Debug_lt_pred@U?$less@K@std@@KK@std@@YA_NU?$less@K@0@ABK1PB_WI@Z 00433a30 f i GameBotDlg.obj
 0001:00032a90       ??$unchecked_uninitialized_fill_n@PAV?$basic_string@_WU?$char_traits@_W@std@@V?$allocator@_W@2@@std@@IV12@V?$allocator@V?$basic_string@_WU?$char_traits@_W@std@@V?$allocator@_W@2@@std@@@2@@stdext@@YAXPAV?$basic_string@_WU?$char_traits@_W@std@@V?$allocator@_W@2@@std@@IABV12@AAV?$allocator@V?$basic_string@_WU?$char_traits@_W@std@@V?$allocator@_W@2@@std@@@2@@Z 00433a90 f i GameBotDlg.obj
 0001:00032ae0       ??$unchecked_copy@PAPAVCPlayer@@PAPAV1@@stdext@@YAPAPAVCPlayer@@PAPAV1@00@Z 00433ae0 f i GameBotDlg.obj
 0001:00032b50       ??$unchecked_uninitialized_fill_n@PAPAVCPlayer@@IPAV1@V?$allocator@PAVCPlayer@@@std@@@stdext@@YAXPAPAVCPlayer@@IABQAV1@AAV?$allocator@PAVCPlayer@@@std@@@Z 00433b50 f i GameBotDlg.obj
 0001:00032ba0       ??$unchecked_uninitialized_fill_n@PAPAVCInjector@@IPAV1@V?$allocator@PAVCInjector@@@std@@@stdext@@YAXPAPAVCInjector@@IABQAV1@AAV?$allocator@PAVCInjector@@@std@@@Z 00433ba0 f i GameBotDlg.obj
 0001:00032bf0       ??$_Umove@PAV?$basic_string@_WU?$char_traits@_W@std@@V?$allocator@_W@2@@std@@@?$vector@V?$basic_string@_WU?$char_traits@_W@std@@V?$allocator@_W@2@@std@@V?$allocator@V?$basic_string@_WU?$char_traits@_W@std@@V?$allocator@_W@2@@std@@@2@@std@@IAEPAV?$basic_string@_WU?$char_traits@_W@std@@V?$allocator@_W@2@@1@PAV21@00@Z 00433bf0 f i GameBotDlg.obj
 0001:00032c20       ??$fill@PAV?$basic_string@_WU?$char_traits@_W@std@@V?$allocator@_W@2@@std@@V12@@std@@YAXPAV?$basic_string@_WU?$char_traits@_W@std@@V?$allocator@_W@2@@0@0ABV10@@Z 00433c20 f i GameBotDlg.obj
 0001:00032c50       ??$_Unchecked_move_backward@PAV?$basic_string@_WU?$char_traits@_W@std@@V?$allocator@_W@2@@std@@PAV12@@stdext@@YAPAV?$basic_string@_WU?$char_traits@_W@std@@V?$allocator@_W@2@@std@@PAV12@00@Z 00433c50 f i GameBotDlg.obj
 0001:00032cc0       ??$_Umove@PAPAVCPlayer@@@?$vector@PAVCPlayer@@V?$allocator@PAVCPlayer@@@std@@@std@@IAEPAPAVCPlayer@@PAPAV2@00@Z 00433cc0 f i GameBotDlg.obj
 0001:00032cf0       ??$fill@PAPAVCPlayer@@PAV1@@std@@YAXPAPAVCPlayer@@0ABQAV1@@Z 00433cf0 f i GameBotDlg.obj
 0001:00032d20       ??$_Unchecked_move_backward@PAPAVCPlayer@@PAPAV1@@stdext@@YAPAPAVCPlayer@@PAPAV1@00@Z 00433d20 f i GameBotDlg.obj
 0001:00032d90       ??$_Allocate@PAVCPlayer@@@std@@YAPAPAVCPlayer@@IPAPAV1@@Z 00433d90 f i GameBotDlg.obj
 0001:00032de0       ??$_Umove@PAPAVCInjector@@@?$vector@PAVCInjector@@V?$allocator@PAVCInjector@@@std@@@std@@IAEPAPAVCInjector@@PAPAV2@00@Z 00433de0 f i GameBotDlg.obj
 0001:00032e10       ??$fill@PAPAVCInjector@@PAV1@@std@@YAXPAPAVCInjector@@0ABQAV1@@Z 00433e10 f i GameBotDlg.obj
 0001:00032e40       ??$_Unchecked_move_backward@PAPAVCInjector@@PAPAV1@@stdext@@YAPAPAVCInjector@@PAPAV1@00@Z 00433e40 f i GameBotDlg.obj
 0001:00032eb0       ??$_Allocate@PAVCInjector@@@std@@YAPAPAVCInjector@@IPAPAV1@@Z 00433eb0 f i GameBotDlg.obj
 0001:00032f00       ??$?0U?$pair@$$CBKK@std@@@?$allocator@PAU_Node@?$_Tree_nod@V?$_Tmap_traits@KKU?$less@K@std@@V?$allocator@U?$pair@$$CBKK@std@@@2@$0A@@std@@@std@@@std@@QAE@ABV?$allocator@U?$pair@$$CBKK@std@@@1@@Z 00433f00 f i GameBotDlg.obj
 0001:00032f10       ??$?0U?$pair@$$CBKK@std@@@?$allocator@U_Node@?$_Tree_nod@V?$_Tmap_traits@KKU?$less@K@std@@V?$allocator@U?$pair@$$CBKK@std@@@2@$0A@@std@@@std@@@std@@QAE@ABV?$allocator@U?$pair@$$CBKK@std@@@1@@Z 00433f10 f i GameBotDlg.obj
 0001:00032f20       ??$_Allocate@U_Node@?$_Tree_nod@V?$_Tmap_traits@KKU?$less@K@std@@V?$allocator@U?$pair@$$CBKK@std@@@2@$0A@@std@@@std@@@std@@YAPAU_Node@?$_Tree_nod@V?$_Tmap_traits@KKU?$less@K@std@@V?$allocator@U?$pair@$$CBKK@std@@@2@$0A@@std@@@0@IPAU120@@Z 00433f20 f i GameBotDlg.obj
 0001:00032f70       ??$_Construct@PAU_Node@?$_Tree_nod@V?$_Tmap_traits@KKU?$less@K@std@@V?$allocator@U?$pair@$$CBKK@std@@@2@$0A@@std@@@std@@PAU123@@std@@YAXPAPAU_Node@?$_Tree_nod@V?$_Tmap_traits@KKU?$less@K@std@@V?$allocator@U?$pair@$$CBKK@std@@@2@$0A@@std@@@0@ABQAU120@@Z 00433f70 f i GameBotDlg.obj
 0001:00032fb0       ??$_Checked_base@PAV?$basic_string@_WU?$char_traits@_W@std@@V?$allocator@_W@2@@std@@@std@@YAPAV?$basic_string@_WU?$char_traits@_W@std@@V?$allocator@_W@2@@0@AAPAV10@@Z 00433fb0 f i GameBotDlg.obj
 0001:00032fd0       ??$_Iter_random@PAV?$basic_string@_WU?$char_traits@_W@std@@V?$allocator@_W@2@@std@@PAV12@@std@@YA?AUrandom_access_iterator_tag@0@ABQAV?$basic_string@_WU?$char_traits@_W@std@@V?$allocator@_W@2@@0@0@Z 00433fd0 f i GameBotDlg.obj
 0001:00032fe0       ??$_Uninit_fill_n@PAV?$basic_string@_WU?$char_traits@_W@std@@V?$allocator@_W@2@@std@@IV12@V?$allocator@V?$basic_string@_WU?$char_traits@_W@std@@V?$allocator@_W@2@@std@@@2@@std@@YAXPAV?$basic_string@_WU?$char_traits@_W@std@@V?$allocator@_W@2@@0@IABV10@AAV?$allocator@V?$basic_string@_WU?$char_traits@_W@std@@V?$allocator@_W@2@@std@@@0@U_Nonscalar_ptr_iterator_tag@0@U_Range_checked_iterator_tag@0@@Z 00433fe0 f i GameBotDlg.obj
 0001:000330a0       ??$_Checked_base@PAPAVCPlayer@@@std@@YAPAPAVCPlayer@@AAPAPAV1@@Z 004340a0 f i GameBotDlg.obj
 0001:000330c0       ??$_Iter_random@PAPAVCPlayer@@PAPAV1@@std@@YA?AUrandom_access_iterator_tag@0@ABQAPAVCPlayer@@0@Z 004340c0 f i GameBotDlg.obj
 0001:000330d0       ??$_Copy_opt@PAPAVCPlayer@@PAPAV1@Urandom_access_iterator_tag@std@@@std@@YAPAPAVCPlayer@@PAPAV1@00Urandom_access_iterator_tag@0@U_Scalar_ptr_iterator_tag@0@U_Range_checked_iterator_tag@0@@Z 004340d0 f i GameBotDlg.obj
 0001:00033160       ??$_Uninit_fill_n@PAPAVCPlayer@@IPAV1@V?$allocator@PAVCPlayer@@@std@@@std@@YAXPAPAVCPlayer@@IABQAV1@AAV?$allocator@PAVCPlayer@@@0@U_Scalar_ptr_iterator_tag@0@U_Range_checked_iterator_tag@0@@Z 00434160 f i GameBotDlg.obj
 0001:00033180       ??$_Uninit_fill_n@PAPAVCInjector@@IPAV1@V?$allocator@PAVCInjector@@@std@@@std@@YAXPAPAVCInjector@@IABQAV1@AAV?$allocator@PAVCInjector@@@0@U_Scalar_ptr_iterator_tag@0@U_Range_checked_iterator_tag@0@@Z 00434180 f i GameBotDlg.obj
 0001:000331a0       ??$_Unchecked_uninitialized_move@PAV?$basic_string@_WU?$char_traits@_W@std@@V?$allocator@_W@2@@std@@PAV12@V?$allocator@V?$basic_string@_WU?$char_traits@_W@std@@V?$allocator@_W@2@@std@@@2@@stdext@@YAPAV?$basic_string@_WU?$char_traits@_W@std@@V?$allocator@_W@2@@std@@PAV12@00AAV?$allocator@V?$basic_string@_WU?$char_traits@_W@std@@V?$allocator@_W@2@@std@@@2@@Z 004341a0 f i GameBotDlg.obj
 0001:000331f0       ??$_Fill@PAV?$basic_string@_WU?$char_traits@_W@std@@V?$allocator@_W@2@@std@@V12@@std@@YAXPAV?$basic_string@_WU?$char_traits@_W@std@@V?$allocator@_W@2@@0@0ABV10@@Z 004341f0 f i GameBotDlg.obj
 0001:00033240       ??$_Move_cat@PAV?$basic_string@_WU?$char_traits@_W@std@@V?$allocator@_W@2@@std@@@std@@YA?AU_Swap_move_tag@0@ABQAV?$basic_string@_WU?$char_traits@_W@std@@V?$allocator@_W@2@@0@@Z 00434240 f i GameBotDlg.obj
 0001:00033250       ??$_Move_backward_opt@PAV?$basic_string@_WU?$char_traits@_W@std@@V?$allocator@_W@2@@std@@PAV12@@std@@YAPAV?$basic_string@_WU?$char_traits@_W@std@@V?$allocator@_W@2@@0@PAV10@00Urandom_access_iterator_tag@0@U_Swap_move_tag@0@U_Range_checked_iterator_tag@0@@Z 00434250 f i GameBotDlg.obj
 0001:000332b0       ??$_Unchecked_uninitialized_move@PAPAVCPlayer@@PAPAV1@V?$allocator@PAVCPlayer@@@std@@@stdext@@YAPAPAVCPlayer@@PAPAV1@00AAV?$allocator@PAVCPlayer@@@std@@@Z 004342b0 f i GameBotDlg.obj
 0001:00033300       ??$_Fill@PAPAVCPlayer@@PAV1@@std@@YAXPAPAVCPlayer@@0ABQAV1@@Z 00434300 f i GameBotDlg.obj
 0001:00033340       ??$_Move_cat@PAPAVCPlayer@@@std@@YA?AU_Undefined_move_tag@0@ABQAPAVCPlayer@@@Z 00434340 f i GameBotDlg.obj
 0001:00033350       ??$_Move_backward_opt@PAPAVCPlayer@@PAPAV1@Urandom_access_iterator_tag@std@@U_Undefined_move_tag@3@@std@@YAPAPAVCPlayer@@PAPAV1@00Urandom_access_iterator_tag@0@U_Undefined_move_tag@0@U_Range_checked_iterator_tag@0@@Z 00434350 f i GameBotDlg.obj
 0001:000333a0       ??$_Unchecked_uninitialized_move@PAPAVCInjector@@PAPAV1@V?$allocator@PAVCInjector@@@std@@@stdext@@YAPAPAVCInjector@@PAPAV1@00AAV?$allocator@PAVCInjector@@@std@@@Z 004343a0 f i GameBotDlg.obj
 0001:000333f0       ??$_Checked_base@PAPAVCInjector@@@std@@YAPAPAVCInjector@@AAPAPAV1@@Z 004343f0 f i GameBotDlg.obj
 0001:00033410       ??$_Fill@PAPAVCInjector@@PAV1@@std@@YAXPAPAVCInjector@@0ABQAV1@@Z 00434410 f i GameBotDlg.obj
 0001:00033450       ??$_Iter_random@PAPAVCInjector@@PAPAV1@@std@@YA?AUrandom_access_iterator_tag@0@ABQAPAVCInjector@@0@Z 00434450 f i GameBotDlg.obj
 0001:00033460       ??$_Move_cat@PAPAVCInjector@@@std@@YA?AU_Undefined_move_tag@0@ABQAPAVCInjector@@@Z 00434460 f i GameBotDlg.obj
 0001:00033470       ??$_Move_backward_opt@PAPAVCInjector@@PAPAV1@Urandom_access_iterator_tag@std@@U_Undefined_move_tag@3@@std@@YAPAPAVCInjector@@PAPAV1@00Urandom_access_iterator_tag@0@U_Undefined_move_tag@0@U_Range_checked_iterator_tag@0@@Z 00434470 f i GameBotDlg.obj
 0001:000334c0       ??$_Checked_base@PAV?$basic_string@_WU?$char_traits@_W@std@@V?$allocator@_W@2@@std@@@std@@YAPAV?$basic_string@_WU?$char_traits@_W@std@@V?$allocator@_W@2@@0@AAPAV10@U_Unchanged_checked_iterator_base_type_tag@0@@Z 004344c0 f i GameBotDlg.obj
 0001:000334d0       ??$_Checked_base@PAPAVCPlayer@@@std@@YAPAPAVCPlayer@@AAPAPAV1@U_Unchanged_checked_iterator_base_type_tag@0@@Z 004344d0 f i GameBotDlg.obj
 0001:000334e0       ??$_Debug_range@PAPAVCPlayer@@@std@@YAXPAPAVCPlayer@@0PB_WI@Z 004344e0 f i GameBotDlg.obj
 0001:00033520       ??$_Debug_pointer@PAVCPlayer@@@std@@YAXPAPAVCPlayer@@PB_WI@Z 00434520 f i GameBotDlg.obj
 0001:00033550       ??$unchecked_fill_n@PAPAVCPlayer@@IPAV1@@stdext@@YAXPAPAVCPlayer@@IABQAV1@@Z 00434550 f i GameBotDlg.obj
 0001:00033590       ??$unchecked_fill_n@PAPAVCInjector@@IPAV1@@stdext@@YAXPAPAVCInjector@@IABQAV1@@Z 00434590 f i GameBotDlg.obj
 0001:000335d0       ??$_Uninit_move@PAV?$basic_string@_WU?$char_traits@_W@std@@V?$allocator@_W@2@@std@@PAV12@V?$allocator@V?$basic_string@_WU?$char_traits@_W@std@@V?$allocator@_W@2@@std@@@2@@std@@YAPAV?$basic_string@_WU?$char_traits@_W@std@@V?$allocator@_W@2@@0@PAV10@00AAV?$allocator@V?$basic_string@_WU?$char_traits@_W@std@@V?$allocator@_W@2@@std@@@0@U_Swap_move_tag@0@U_Range_checked_iterator_tag@0@@Z 004345d0 f i GameBotDlg.obj
 0001:00033710       ??$_Debug_range@PAV?$basic_string@_WU?$char_traits@_W@std@@V?$allocator@_W@2@@std@@@std@@YAXPAV?$basic_string@_WU?$char_traits@_W@std@@V?$allocator@_W@2@@0@0PB_WI@Z 00434710 f i GameBotDlg.obj
 0001:00033750       ??$_Move_backward_opt@PAV?$basic_string@_WU?$char_traits@_W@std@@V?$allocator@_W@2@@std@@PAV12@Uforward_iterator_tag@2@@std@@YAPAV?$basic_string@_WU?$char_traits@_W@std@@V?$allocator@_W@2@@0@PAV10@00Uforward_iterator_tag@0@U_Swap_move_tag@0@U_Range_checked_iterator_tag@0@@Z 00434750 f i GameBotDlg.obj
 0001:000337a0       ??$_Uninit_move@PAPAVCPlayer@@PAPAV1@V?$allocator@PAVCPlayer@@@std@@U_Undefined_move_tag@3@@std@@YAPAPAVCPlayer@@PAPAV1@00AAV?$allocator@PAVCPlayer@@@0@U_Undefined_move_tag@0@U_Range_checked_iterator_tag@0@@Z 004347a0 f i GameBotDlg.obj
 0001:000337c0       ??$_Copy_backward_opt@PAPAVCPlayer@@PAPAV1@Urandom_access_iterator_tag@std@@@std@@YAPAPAVCPlayer@@PAPAV1@00Urandom_access_iterator_tag@0@U_Scalar_ptr_iterator_tag@0@U_Range_checked_iterator_tag@0@@Z 004347c0 f i GameBotDlg.obj
 0001:00033850       ??$_Uninit_move@PAPAVCInjector@@PAPAV1@V?$allocator@PAVCInjector@@@std@@U_Undefined_move_tag@3@@std@@YAPAPAVCInjector@@PAPAV1@00AAV?$allocator@PAVCInjector@@@0@U_Undefined_move_tag@0@U_Range_checked_iterator_tag@0@@Z 00434850 f i GameBotDlg.obj
 0001:00033870       ??$_Checked_base@PAPAVCInjector@@@std@@YAPAPAVCInjector@@AAPAPAV1@U_Unchanged_checked_iterator_base_type_tag@0@@Z 00434870 f i GameBotDlg.obj
 0001:00033880       ??$_Debug_range@PAPAVCInjector@@@std@@YAXPAPAVCInjector@@0PB_WI@Z 00434880 f i GameBotDlg.obj
 0001:000338c0       ??$_Copy_backward_opt@PAPAVCInjector@@PAPAV1@Urandom_access_iterator_tag@std@@@std@@YAPAPAVCInjector@@PAPAV1@00Urandom_access_iterator_tag@0@U_Scalar_ptr_iterator_tag@0@U_Range_checked_iterator_tag@0@@Z 004348c0 f i GameBotDlg.obj
 0001:00033950       ??$_Iter_cat@PAPAVCPlayer@@@std@@YA?AUrandom_access_iterator_tag@0@ABQAPAVCPlayer@@@Z 00434950 f i GameBotDlg.obj
 0001:00033960       ??$_Debug_range2@PAPAVCPlayer@@@std@@YAXPAPAVCPlayer@@0PB_WIUrandom_access_iterator_tag@0@@Z 00434960 f i GameBotDlg.obj
 0001:000339c0       ??$_Fill_n@PAPAVCPlayer@@IPAV1@@std@@YAXPAPAVCPlayer@@IABQAV1@Urandom_access_iterator_tag@0@U_Range_checked_iterator_tag@0@@Z 004349c0 f i GameBotDlg.obj
 0001:00033a00       ??$_Iter_cat@PAPAVCInjector@@@std@@YA?AUrandom_access_iterator_tag@0@ABQAPAVCInjector@@@Z 00434a00 f i GameBotDlg.obj
 0001:00033a10       ??$_Fill_n@PAPAVCInjector@@IPAV1@@std@@YAXPAPAVCInjector@@IABQAV1@Urandom_access_iterator_tag@0@U_Range_checked_iterator_tag@0@@Z 00434a10 f i GameBotDlg.obj
 0001:00033a50       ??$_Swap_adl@V?$basic_string@_WU?$char_traits@_W@std@@V?$allocator@_W@2@@std@@@std@@YAXAAV?$basic_string@_WU?$char_traits@_W@std@@V?$allocator@_W@2@@0@0@Z 00434a50 f i GameBotDlg.obj
 0001:00033a70       ??$_Iter_cat@PAV?$basic_string@_WU?$char_traits@_W@std@@V?$allocator@_W@2@@std@@@std@@YA?AUrandom_access_iterator_tag@0@ABQAV?$basic_string@_WU?$char_traits@_W@std@@V?$allocator@_W@2@@0@@Z 00434a70 f i GameBotDlg.obj
 0001:00033a80       ??$_Debug_range2@PAV?$basic_string@_WU?$char_traits@_W@std@@V?$allocator@_W@2@@std@@@std@@YAXPAV?$basic_string@_WU?$char_traits@_W@std@@V?$allocator@_W@2@@0@0PB_WIUrandom_access_iterator_tag@0@@Z 00434a80 f i GameBotDlg.obj
 0001:00033ae0       ??$unchecked_uninitialized_copy@PAPAVCPlayer@@PAPAV1@V?$allocator@PAVCPlayer@@@std@@@stdext@@YAPAPAVCPlayer@@PAPAV1@00AAV?$allocator@PAVCPlayer@@@std@@@Z 00434ae0 f i GameBotDlg.obj
 0001:00033b40       ??$unchecked_uninitialized_copy@PAPAVCInjector@@PAPAV1@V?$allocator@PAVCInjector@@@std@@@stdext@@YAPAPAVCInjector@@PAPAV1@00AAV?$allocator@PAVCInjector@@@std@@@Z 00434b40 f i GameBotDlg.obj
 0001:00033ba0       ??$_Debug_range2@PAPAVCInjector@@@std@@YAXPAPAVCInjector@@0PB_WIUrandom_access_iterator_tag@0@@Z 00434ba0 f i GameBotDlg.obj
 0001:00033c00       ??$_Debug_pointer@PAVCInjector@@@std@@YAXPAPAVCInjector@@PB_WI@Z 00434c00 f i GameBotDlg.obj
 0001:00033c30       ??$_Fill_n@PAPAVCPlayer@@IPAV1@@std@@YAXPAPAVCPlayer@@IABQAV1@U_Range_checked_iterator_tag@0@@Z 00434c30 f i GameBotDlg.obj
 0001:00033c60       ??$_Fill_n@PAPAVCInjector@@IPAV1@@std@@YAXPAPAVCInjector@@IABQAV1@U_Range_checked_iterator_tag@0@@Z 00434c60 f i GameBotDlg.obj
 0001:00033c90       ??$swap@_WU?$char_traits@_W@std@@V?$allocator@_W@2@@std@@YAXAAV?$basic_string@_WU?$char_traits@_W@std@@V?$allocator@_W@2@@0@0@Z 00434c90 f i GameBotDlg.obj
 0001:00033cb0       ??$_Uninit_copy@PAPAVCPlayer@@PAPAV1@V?$allocator@PAVCPlayer@@@std@@@std@@YAPAPAVCPlayer@@PAPAV1@00AAV?$allocator@PAVCPlayer@@@0@U_Scalar_ptr_iterator_tag@0@U_Range_checked_iterator_tag@0@@Z 00434cb0 f i GameBotDlg.obj
 0001:00033d30       ??$_Uninit_copy@PAPAVCInjector@@PAPAV1@V?$allocator@PAVCInjector@@@std@@@std@@YAPAPAVCInjector@@PAPAV1@00AAV?$allocator@PAVCInjector@@@0@U_Scalar_ptr_iterator_tag@0@U_Range_checked_iterator_tag@0@@Z 00434d30 f i GameBotDlg.obj
 0001:00033db0       _gettimeofday              00434db0 f   Global.obj
 0001:00033e20       ??0CMemoryConfig@@QAE@PB_W0_N@Z 00434e20 f   MemoryConfig.obj
 0001:00033ea0       ??_GCMemoryConfig@@UAEPAXI@Z 00434ea0 f i MemoryConfig.obj
 0001:00033ea0       ??_ECMemoryConfig@@UAEPAXI@Z 00434ea0 f i MemoryConfig.obj
 0001:00033ed0       ??0CMemoryConfig@@QAE@PB_W0H0_N@Z 00434ed0 f   MemoryConfig.obj
 0001:00033f50       ??1CMemoryConfig@@UAE@XZ   00434f50 f   MemoryConfig.obj
 0001:00033fc0       ??1?$map@V?$basic_string@_WU?$char_traits@_W@std@@V?$allocator@_W@2@@std@@VCConfigSection@@U?$less@V?$basic_string@_WU?$char_traits@_W@std@@V?$allocator@_W@2@@std@@@2@V?$allocator@U?$pair@$$CBV?$basic_string@_WU?$char_traits@_W@std@@V?$allocator@_W@2@@std@@VCConfigSection@@@std@@@2@@std@@QAE@XZ 00434fc0 f i MemoryConfig.obj
 0001:00033fe0       ??0?$map@V?$basic_string@_WU?$char_traits@_W@std@@V?$allocator@_W@2@@std@@VCConfigSection@@U?$less@V?$basic_string@_WU?$char_traits@_W@std@@V?$allocator@_W@2@@std@@@2@V?$allocator@U?$pair@$$CBV?$basic_string@_WU?$char_traits@_W@std@@V?$allocator@_W@2@@std@@VCConfigSection@@@std@@@2@@std@@QAE@XZ 00434fe0 f i MemoryConfig.obj
 0001:00034010       ??1?$_Tree@V?$_Tmap_traits@V?$basic_string@_WU?$char_traits@_W@std@@V?$allocator@_W@2@@std@@VCConfigSection@@U?$less@V?$basic_string@_WU?$char_traits@_W@std@@V?$allocator@_W@2@@std@@@2@V?$allocator@U?$pair@$$CBV?$basic_string@_WU?$char_traits@_W@std@@V?$allocator@_W@2@@std@@VCConfigSection@@@std@@@2@$0A@@std@@@std@@QAE@XZ 00435010 f i MemoryConfig.obj
 0001:00034070       ??1?$_Tree_val@V?$_Tmap_traits@V?$basic_string@_WU?$char_traits@_W@std@@V?$allocator@_W@2@@std@@VCConfigSection@@U?$less@V?$basic_string@_WU?$char_traits@_W@std@@V?$allocator@_W@2@@std@@@2@V?$allocator@U?$pair@$$CBV?$basic_string@_WU?$char_traits@_W@std@@V?$allocator@_W@2@@std@@VCConfigSection@@@std@@@2@$0A@@std@@@std@@QAE@XZ 00435070 f i MemoryConfig.obj
 0001:00034090       ??1?$_Tree_ptr@V?$_Tmap_traits@V?$basic_string@_WU?$char_traits@_W@std@@V?$allocator@_W@2@@std@@VCConfigSection@@U?$less@V?$basic_string@_WU?$char_traits@_W@std@@V?$allocator@_W@2@@std@@@2@V?$allocator@U?$pair@$$CBV?$basic_string@_WU?$char_traits@_W@std@@V?$allocator@_W@2@@std@@VCConfigSection@@@std@@@2@$0A@@std@@@std@@QAE@XZ 00435090 f i MemoryConfig.obj
 0001:000340b0       ??1?$_Tree_nod@V?$_Tmap_traits@V?$basic_string@_WU?$char_traits@_W@std@@V?$allocator@_W@2@@std@@VCConfigSection@@U?$less@V?$basic_string@_WU?$char_traits@_W@std@@V?$allocator@_W@2@@std@@@2@V?$allocator@U?$pair@$$CBV?$basic_string@_WU?$char_traits@_W@std@@V?$allocator@_W@2@@std@@VCConfigSection@@@std@@@2@$0A@@std@@@std@@QAE@XZ 004350b0 f i MemoryConfig.obj
 0001:000340d0       ??1?$_Tmap_traits@V?$basic_string@_WU?$char_traits@_W@std@@V?$allocator@_W@2@@std@@VCConfigSection@@U?$less@V?$basic_string@_WU?$char_traits@_W@std@@V?$allocator@_W@2@@std@@@2@V?$allocator@U?$pair@$$CBV?$basic_string@_WU?$char_traits@_W@std@@V?$allocator@_W@2@@std@@VCConfigSection@@@std@@@2@$0A@@std@@QAE@XZ 004350d0 f i MemoryConfig.obj
 0001:000340f0       ??0?$_Tree@V?$_Tmap_traits@V?$basic_string@_WU?$char_traits@_W@std@@V?$allocator@_W@2@@std@@VCConfigSection@@U?$less@V?$basic_string@_WU?$char_traits@_W@std@@V?$allocator@_W@2@@std@@@2@V?$allocator@U?$pair@$$CBV?$basic_string@_WU?$char_traits@_W@std@@V?$allocator@_W@2@@std@@VCConfigSection@@@std@@@2@$0A@@std@@@std@@QAE@ABU?$less@V?$basic_string@_WU?$char_traits@_W@std@@V?$allocator@_W@2@@std@@@1@ABV?$allocator@U?$pair@$$CBV?$basic_string@_WU?$char_traits@_W@std@@V?$allocator@_W@2@@std@@VCConfigSection@@@std@@@1@@Z 004350f0 f i MemoryConfig.obj
 0001:00034160       ?_Tidy@?$_Tree@V?$_Tmap_traits@V?$basic_string@_WU?$char_traits@_W@std@@V?$allocator@_W@2@@std@@VCConfigSection@@U?$less@V?$basic_string@_WU?$char_traits@_W@std@@V?$allocator@_W@2@@std@@@2@V?$allocator@U?$pair@$$CBV?$basic_string@_WU?$char_traits@_W@std@@V?$allocator@_W@2@@std@@VCConfigSection@@@std@@@2@$0A@@std@@@std@@IAEXXZ 00435160 f i MemoryConfig.obj
 0001:000342b0       ??1?$_Container_base_aux_alloc_empty@V?$allocator@U?$pair@$$CBV?$basic_string@_WU?$char_traits@_W@std@@V?$allocator@_W@2@@std@@VCConfigSection@@@std@@@std@@@std@@IAE@XZ 004352b0 f i MemoryConfig.obj
 0001:000342d0       ??0?$allocator@U?$pair@$$CBV?$basic_string@_WU?$char_traits@_W@std@@V?$allocator@_W@2@@std@@VCConfigSection@@@std@@@std@@QAE@XZ 004352d0 f i MemoryConfig.obj
 0001:000342e0       ??1iterator@?$_Tree@V?$_Tmap_traits@V?$basic_string@_WU?$char_traits@_W@std@@V?$allocator@_W@2@@std@@VCConfigSection@@U?$less@V?$basic_string@_WU?$char_traits@_W@std@@V?$allocator@_W@2@@std@@@2@V?$allocator@U?$pair@$$CBV?$basic_string@_WU?$char_traits@_W@std@@V?$allocator@_W@2@@std@@VCConfigSection@@@std@@@2@$0A@@std@@@std@@QAE@XZ 004352e0 f i MemoryConfig.obj
 0001:00034300       ??0const_iterator@?$_Tree@V?$_Tmap_traits@V?$basic_string@_WU?$char_traits@_W@std@@V?$allocator@_W@2@@std@@VCConfigSection@@U?$less@V?$basic_string@_WU?$char_traits@_W@std@@V?$allocator@_W@2@@std@@@2@V?$allocator@U?$pair@$$CBV?$basic_string@_WU?$char_traits@_W@std@@V?$allocator@_W@2@@std@@VCConfigSection@@@std@@@2@$0A@@std@@@std@@QAE@ABV012@@Z 00435300 f i MemoryConfig.obj
 0001:00034330       ??1const_iterator@?$_Tree@V?$_Tmap_traits@V?$basic_string@_WU?$char_traits@_W@std@@V?$allocator@_W@2@@std@@VCConfigSection@@U?$less@V?$basic_string@_WU?$char_traits@_W@std@@V?$allocator@_W@2@@std@@@2@V?$allocator@U?$pair@$$CBV?$basic_string@_WU?$char_traits@_W@std@@V?$allocator@_W@2@@std@@VCConfigSection@@@std@@@2@$0A@@std@@@std@@QAE@XZ 00435330 f i MemoryConfig.obj
 0001:00034350       ??0?$_Bidit@U?$pair@$$CBV?$basic_string@_WU?$char_traits@_W@std@@V?$allocator@_W@2@@std@@VCConfigSection@@@std@@HPBU12@ABU12@@std@@QAE@ABU01@@Z 00435350 f i MemoryConfig.obj
 0001:00034370       ??1?$_Bidit@U?$pair@$$CBV?$basic_string@_WU?$char_traits@_W@std@@V?$allocator@_W@2@@std@@VCConfigSection@@@std@@HPBU12@ABU12@@std@@QAE@XZ 00435370 f i MemoryConfig.obj
 0001:00034390       ??0?$_Iterator_with_base@Ubidirectional_iterator_tag@std@@U?$pair@$$CBV?$basic_string@_WU?$char_traits@_W@std@@V?$allocator@_W@2@@std@@VCConfigSection@@@2@HPBU32@ABU32@V_Iterator_base@2@@std@@QAE@ABU01@@Z 00435390 f i MemoryConfig.obj
 0001:000343b0       ??1?$_Iterator_with_base@Ubidirectional_iterator_tag@std@@U?$pair@$$CBV?$basic_string@_WU?$char_traits@_W@std@@V?$allocator@_W@2@@std@@VCConfigSection@@@2@HPBU32@ABU32@V_Iterator_base@2@@std@@QAE@XZ 004353b0 f i MemoryConfig.obj
 0001:000343d0       ?_Left@?$_Tree@V?$_Tmap_traits@V?$basic_string@_WU?$char_traits@_W@std@@V?$allocator@_W@2@@std@@VCConfigSection@@U?$less@V?$basic_string@_WU?$char_traits@_W@std@@V?$allocator@_W@2@@std@@@2@V?$allocator@U?$pair@$$CBV?$basic_string@_WU?$char_traits@_W@std@@V?$allocator@_W@2@@std@@VCConfigSection@@@std@@@2@$0A@@std@@@std@@KAAAPAU_Node@?$_Tree_nod@V?$_Tmap_traits@V?$basic_string@_WU?$char_traits@_W@std@@V?$allocator@_W@2@@std@@VCConfigSection@@U?$less@V?$basic_string@_WU?$char_traits@_W@std@@V?$allocator@_W@2@@std@@@2@V?$allocator@U?$pair@$$CBV?$basic_string@_WU?$char_traits@_W@std@@V?$allocator@_W@2@@std@@VCConfigSection@@@std@@@2@$0A@@std@@@2@PAU342@@Z 004353d0 f i MemoryConfig.obj
 0001:000343e0       ?_Parent@?$_Tree@V?$_Tmap_traits@V?$basic_string@_WU?$char_traits@_W@std@@V?$allocator@_W@2@@std@@VCConfigSection@@U?$less@V?$basic_string@_WU?$char_traits@_W@std@@V?$allocator@_W@2@@std@@@2@V?$allocator@U?$pair@$$CBV?$basic_string@_WU?$char_traits@_W@std@@V?$allocator@_W@2@@std@@VCConfigSection@@@std@@@2@$0A@@std@@@std@@KAAAPAU_Node@?$_Tree_nod@V?$_Tmap_traits@V?$basic_string@_WU?$char_traits@_W@std@@V?$allocator@_W@2@@std@@VCConfigSection@@U?$less@V?$basic_string@_WU?$char_traits@_W@std@@V?$allocator@_W@2@@std@@@2@V?$allocator@U?$pair@$$CBV?$basic_string@_WU?$char_traits@_W@std@@V?$allocator@_W@2@@std@@VCConfigSection@@@std@@@2@$0A@@std@@@2@PAU342@@Z 004353e0 f i MemoryConfig.obj
 0001:000343f0       ?_Right@?$_Tree@V?$_Tmap_traits@V?$basic_string@_WU?$char_traits@_W@std@@V?$allocator@_W@2@@std@@VCConfigSection@@U?$less@V?$basic_string@_WU?$char_traits@_W@std@@V?$allocator@_W@2@@std@@@2@V?$allocator@U?$pair@$$CBV?$basic_string@_WU?$char_traits@_W@std@@V?$allocator@_W@2@@std@@VCConfigSection@@@std@@@2@$0A@@std@@@std@@KAAAPAU_Node@?$_Tree_nod@V?$_Tmap_traits@V?$basic_string@_WU?$char_traits@_W@std@@V?$allocator@_W@2@@std@@VCConfigSection@@U?$less@V?$basic_string@_WU?$char_traits@_W@std@@V?$allocator@_W@2@@std@@@2@V?$allocator@U?$pair@$$CBV?$basic_string@_WU?$char_traits@_W@std@@V?$allocator@_W@2@@std@@VCConfigSection@@@std@@@2@$0A@@std@@@2@PAU342@@Z 004353f0 f i MemoryConfig.obj
 0001:00034400       ?begin@?$_Tree@V?$_Tmap_traits@V?$basic_string@_WU?$char_traits@_W@std@@V?$allocator@_W@2@@std@@VCConfigSection@@U?$less@V?$basic_string@_WU?$char_traits@_W@std@@V?$allocator@_W@2@@std@@@2@V?$allocator@U?$pair@$$CBV?$basic_string@_WU?$char_traits@_W@std@@V?$allocator@_W@2@@std@@VCConfigSection@@@std@@@2@$0A@@std@@@std@@QAE?AViterator@12@XZ 00435400 f i MemoryConfig.obj
 0001:00034440       ?end@?$_Tree@V?$_Tmap_traits@V?$basic_string@_WU?$char_traits@_W@std@@V?$allocator@_W@2@@std@@VCConfigSection@@U?$less@V?$basic_string@_WU?$char_traits@_W@std@@V?$allocator@_W@2@@std@@@2@V?$allocator@U?$pair@$$CBV?$basic_string@_WU?$char_traits@_W@std@@V?$allocator@_W@2@@std@@VCConfigSection@@@std@@@2@$0A@@std@@@std@@QAE?AViterator@12@XZ 00435440 f i MemoryConfig.obj
 0001:00034480       ?erase@?$_Tree@V?$_Tmap_traits@V?$basic_string@_WU?$char_traits@_W@std@@V?$allocator@_W@2@@std@@VCConfigSection@@U?$less@V?$basic_string@_WU?$char_traits@_W@std@@V?$allocator@_W@2@@std@@@2@V?$allocator@U?$pair@$$CBV?$basic_string@_WU?$char_traits@_W@std@@V?$allocator@_W@2@@std@@VCConfigSection@@@std@@@2@$0A@@std@@@std@@QAE?AViterator@12@Vconst_iterator@12@0@Z 00435480 f i MemoryConfig.obj
 0001:00034670       ?_Init@?$_Tree@V?$_Tmap_traits@V?$basic_string@_WU?$char_traits@_W@std@@V?$allocator@_W@2@@std@@VCConfigSection@@U?$less@V?$basic_string@_WU?$char_traits@_W@std@@V?$allocator@_W@2@@std@@@2@V?$allocator@U?$pair@$$CBV?$basic_string@_WU?$char_traits@_W@std@@V?$allocator@_W@2@@std@@VCConfigSection@@@std@@@2@$0A@@std@@@std@@IAEXXZ 00435670 f i MemoryConfig.obj
 0001:000346e0       ??0?$_Tree_val@V?$_Tmap_traits@V?$basic_string@_WU?$char_traits@_W@std@@V?$allocator@_W@2@@std@@VCConfigSection@@U?$less@V?$basic_string@_WU?$char_traits@_W@std@@V?$allocator@_W@2@@std@@@2@V?$allocator@U?$pair@$$CBV?$basic_string@_WU?$char_traits@_W@std@@V?$allocator@_W@2@@std@@VCConfigSection@@@std@@@2@$0A@@std@@@std@@IAE@ABU?$less@V?$basic_string@_WU?$char_traits@_W@std@@V?$allocator@_W@2@@std@@@1@V?$allocator@U?$pair@$$CBV?$basic_string@_WU?$char_traits@_W@std@@V?$allocator@_W@2@@std@@VCConfigSection@@@std@@@1@@Z 004356e0 f i MemoryConfig.obj
 0001:00034720       ??0?$allocator@U?$pair@$$CBV?$basic_string@_WU?$char_traits@_W@std@@V?$allocator@_W@2@@std@@VCConfigSection@@@std@@@std@@QAE@ABV01@@Z 00435720 f i MemoryConfig.obj
 0001:00034730       ?deallocate@?$allocator@U_Node@?$_Tree_nod@V?$_Tmap_traits@V?$basic_string@_WU?$char_traits@_W@std@@V?$allocator@_W@2@@std@@VCConfigSection@@U?$less@V?$basic_string@_WU?$char_traits@_W@std@@V?$allocator@_W@2@@std@@@2@V?$allocator@U?$pair@$$CBV?$basic_string@_WU?$char_traits@_W@std@@V?$allocator@_W@2@@std@@VCConfigSection@@@std@@@2@$0A@@std@@@std@@@std@@QAEXPAU_Node@?$_Tree_nod@V?$_Tmap_traits@V?$basic_string@_WU?$char_traits@_W@std@@V?$allocator@_W@2@@std@@VCConfigSection@@U?$less@V?$basic_string@_WU?$char_traits@_W@std@@V?$allocator@_W@2@@std@@@2@V?$allocator@U?$pair@$$CBV?$basic_string@_WU?$char_traits@_W@std@@V?$allocator@_W@2@@std@@VCConfigSection@@@std@@@2@$0A@@std@@@2@I@Z 00435730 f i MemoryConfig.obj
 0001:00034750       ?destroy@?$allocator@PAU_Node@?$_Tree_nod@V?$_Tmap_traits@V?$basic_string@_WU?$char_traits@_W@std@@V?$allocator@_W@2@@std@@VCConfigSection@@U?$less@V?$basic_string@_WU?$char_traits@_W@std@@V?$allocator@_W@2@@std@@@2@V?$allocator@U?$pair@$$CBV?$basic_string@_WU?$char_traits@_W@std@@V?$allocator@_W@2@@std@@VCConfigSection@@@std@@@2@$0A@@std@@@std@@@std@@QAEXPAPAU_Node@?$_Tree_nod@V?$_Tmap_traits@V?$basic_string@_WU?$char_traits@_W@std@@V?$allocator@_W@2@@std@@VCConfigSection@@U?$less@V?$basic_string@_WU?$char_traits@_W@std@@V?$allocator@_W@2@@std@@@2@V?$allocator@U?$pair@$$CBV?$basic_string@_WU?$char_traits@_W@std@@V?$allocator@_W@2@@std@@VCConfigSection@@@std@@@2@$0A@@std@@@2@@Z 00435750 f i MemoryConfig.obj
 0001:00034770       ?_Isnil@?$_Tree@V?$_Tmap_traits@V?$basic_string@_WU?$char_traits@_W@std@@V?$allocator@_W@2@@std@@VCConfigSection@@U?$less@V?$basic_string@_WU?$char_traits@_W@std@@V?$allocator@_W@2@@std@@@2@V?$allocator@U?$pair@$$CBV?$basic_string@_WU?$char_traits@_W@std@@V?$allocator@_W@2@@std@@VCConfigSection@@@std@@@2@$0A@@std@@@std@@KAAADPAU_Node@?$_Tree_nod@V?$_Tmap_traits@V?$basic_string@_WU?$char_traits@_W@std@@V?$allocator@_W@2@@std@@VCConfigSection@@U?$less@V?$basic_string@_WU?$char_traits@_W@std@@V?$allocator@_W@2@@std@@@2@V?$allocator@U?$pair@$$CBV?$basic_string@_WU?$char_traits@_W@std@@V?$allocator@_W@2@@std@@VCConfigSection@@@std@@@2@$0A@@std@@@2@@Z 00435770 f i MemoryConfig.obj
 0001:00034780       ?_Make_iter@?$_Tree@V?$_Tmap_traits@V?$basic_string@_WU?$char_traits@_W@std@@V?$allocator@_W@2@@std@@VCConfigSection@@U?$less@V?$basic_string@_WU?$char_traits@_W@std@@V?$allocator@_W@2@@std@@@2@V?$allocator@U?$pair@$$CBV?$basic_string@_WU?$char_traits@_W@std@@V?$allocator@_W@2@@std@@VCConfigSection@@@std@@@2@$0A@@std@@@std@@QBE?AViterator@12@Vconst_iterator@12@@Z 00435780 f i MemoryConfig.obj
 0001:00034820       ?erase@?$_Tree@V?$_Tmap_traits@V?$basic_string@_WU?$char_traits@_W@std@@V?$allocator@_W@2@@std@@VCConfigSection@@U?$less@V?$basic_string@_WU?$char_traits@_W@std@@V?$allocator@_W@2@@std@@@2@V?$allocator@U?$pair@$$CBV?$basic_string@_WU?$char_traits@_W@std@@V?$allocator@_W@2@@std@@VCConfigSection@@@std@@@2@$0A@@std@@@std@@QAE?AViterator@12@Vconst_iterator@12@@Z 00435820 f i MemoryConfig.obj
 0001:00035020       ?clear@?$_Tree@V?$_Tmap_traits@V?$basic_string@_WU?$char_traits@_W@std@@V?$allocator@_W@2@@std@@VCConfigSection@@U?$less@V?$basic_string@_WU?$char_traits@_W@std@@V?$allocator@_W@2@@std@@@2@V?$allocator@U?$pair@$$CBV?$basic_string@_WU?$char_traits@_W@std@@V?$allocator@_W@2@@std@@VCConfigSection@@@std@@@2@$0A@@std@@@std@@QAEXXZ 00436020 f i MemoryConfig.obj
 0001:00035090       ?_Lmost@?$_Tree@V?$_Tmap_traits@V?$basic_string@_WU?$char_traits@_W@std@@V?$allocator@_W@2@@std@@VCConfigSection@@U?$less@V?$basic_string@_WU?$char_traits@_W@std@@V?$allocator@_W@2@@std@@@2@V?$allocator@U?$pair@$$CBV?$basic_string@_WU?$char_traits@_W@std@@V?$allocator@_W@2@@std@@VCConfigSection@@@std@@@2@$0A@@std@@@std@@IBEAAPAU_Node@?$_Tree_nod@V?$_Tmap_traits@V?$basic_string@_WU?$char_traits@_W@std@@V?$allocator@_W@2@@std@@VCConfigSection@@U?$less@V?$basic_string@_WU?$char_traits@_W@std@@V?$allocator@_W@2@@std@@@2@V?$allocator@U?$pair@$$CBV?$basic_string@_WU?$char_traits@_W@std@@V?$allocator@_W@2@@std@@VCConfigSection@@@std@@@2@$0A@@std@@@2@XZ 00436090 f i MemoryConfig.obj
 0001:000350b0       ?_Rmost@?$_Tree@V?$_Tmap_traits@V?$basic_string@_WU?$char_traits@_W@std@@V?$allocator@_W@2@@std@@VCConfigSection@@U?$less@V?$basic_string@_WU?$char_traits@_W@std@@V?$allocator@_W@2@@std@@@2@V?$allocator@U?$pair@$$CBV?$basic_string@_WU?$char_traits@_W@std@@V?$allocator@_W@2@@std@@VCConfigSection@@@std@@@2@$0A@@std@@@std@@IBEAAPAU_Node@?$_Tree_nod@V?$_Tmap_traits@V?$basic_string@_WU?$char_traits@_W@std@@V?$allocator@_W@2@@std@@VCConfigSection@@U?$less@V?$basic_string@_WU?$char_traits@_W@std@@V?$allocator@_W@2@@std@@@2@V?$allocator@U?$pair@$$CBV?$basic_string@_WU?$char_traits@_W@std@@V?$allocator@_W@2@@std@@VCConfigSection@@@std@@@2@$0A@@std@@@2@XZ 004360b0 f i MemoryConfig.obj
 0001:000350d0       ?_Root@?$_Tree@V?$_Tmap_traits@V?$basic_string@_WU?$char_traits@_W@std@@V?$allocator@_W@2@@std@@VCConfigSection@@U?$less@V?$basic_string@_WU?$char_traits@_W@std@@V?$allocator@_W@2@@std@@@2@V?$allocator@U?$pair@$$CBV?$basic_string@_WU?$char_traits@_W@std@@V?$allocator@_W@2@@std@@VCConfigSection@@@std@@@2@$0A@@std@@@std@@IBEAAPAU_Node@?$_Tree_nod@V?$_Tmap_traits@V?$basic_string@_WU?$char_traits@_W@std@@V?$allocator@_W@2@@std@@VCConfigSection@@U?$less@V?$basic_string@_WU?$char_traits@_W@std@@V?$allocator@_W@2@@std@@@2@V?$allocator@U?$pair@$$CBV?$basic_string@_WU?$char_traits@_W@std@@V?$allocator@_W@2@@std@@VCConfigSection@@@std@@@2@$0A@@std@@@2@XZ 004360d0 f i MemoryConfig.obj
 0001:000350f0       ?_Buynode@?$_Tree@V?$_Tmap_traits@V?$basic_string@_WU?$char_traits@_W@std@@V?$allocator@_W@2@@std@@VCConfigSection@@U?$less@V?$basic_string@_WU?$char_traits@_W@std@@V?$allocator@_W@2@@std@@@2@V?$allocator@U?$pair@$$CBV?$basic_string@_WU?$char_traits@_W@std@@V?$allocator@_W@2@@std@@VCConfigSection@@@std@@@2@$0A@@std@@@std@@IAEPAU_Node@?$_Tree_nod@V?$_Tmap_traits@V?$basic_string@_WU?$char_traits@_W@std@@V?$allocator@_W@2@@std@@VCConfigSection@@U?$less@V?$basic_string@_WU?$char_traits@_W@std@@V?$allocator@_W@2@@std@@@2@V?$allocator@U?$pair@$$CBV?$basic_string@_WU?$char_traits@_W@std@@V?$allocator@_W@2@@std@@VCConfigSection@@@std@@@2@$0A@@std@@@2@XZ 004360f0 f i MemoryConfig.obj
 0001:00035270       ??0?$_Tree_ptr@V?$_Tmap_traits@V?$basic_string@_WU?$char_traits@_W@std@@V?$allocator@_W@2@@std@@VCConfigSection@@U?$less@V?$basic_string@_WU?$char_traits@_W@std@@V?$allocator@_W@2@@std@@@2@V?$allocator@U?$pair@$$CBV?$basic_string@_WU?$char_traits@_W@std@@V?$allocator@_W@2@@std@@VCConfigSection@@@std@@@2@$0A@@std@@@std@@QAE@ABU?$less@V?$basic_string@_WU?$char_traits@_W@std@@V?$allocator@_W@2@@std@@@1@V?$allocator@U?$pair@$$CBV?$basic_string@_WU?$char_traits@_W@std@@V?$allocator@_W@2@@std@@VCConfigSection@@@std@@@1@@Z 00436270 f i MemoryConfig.obj
 0001:000352b0       ??0iterator@?$_Tree@V?$_Tmap_traits@V?$basic_string@_WU?$char_traits@_W@std@@V?$allocator@_W@2@@std@@VCConfigSection@@U?$less@V?$basic_string@_WU?$char_traits@_W@std@@V?$allocator@_W@2@@std@@@2@V?$allocator@U?$pair@$$CBV?$basic_string@_WU?$char_traits@_W@std@@V?$allocator@_W@2@@std@@VCConfigSection@@@std@@@2@$0A@@std@@@std@@QAE@PAU_Node@?$_Tree_nod@V?$_Tmap_traits@V?$basic_string@_WU?$char_traits@_W@std@@V?$allocator@_W@2@@std@@VCConfigSection@@U?$less@V?$basic_string@_WU?$char_traits@_W@std@@V?$allocator@_W@2@@std@@@2@V?$allocator@U?$pair@$$CBV?$basic_string@_WU?$char_traits@_W@std@@V?$allocator@_W@2@@std@@VCConfigSection@@@std@@@2@$0A@@std@@@2@PBV12@@Z 004362b0 f i MemoryConfig.obj
 0001:000352d0       ??Econst_iterator@?$_Tree@V?$_Tmap_traits@V?$basic_string@_WU?$char_traits@_W@std@@V?$allocator@_W@2@@std@@VCConfigSection@@U?$less@V?$basic_string@_WU?$char_traits@_W@std@@V?$allocator@_W@2@@std@@@2@V?$allocator@U?$pair@$$CBV?$basic_string@_WU?$char_traits@_W@std@@V?$allocator@_W@2@@std@@VCConfigSection@@@std@@@2@$0A@@std@@@std@@QAE?AV012@H@Z 004362d0 f i MemoryConfig.obj
 0001:00035350       ??8const_iterator@?$_Tree@V?$_Tmap_traits@V?$basic_string@_WU?$char_traits@_W@std@@V?$allocator@_W@2@@std@@VCConfigSection@@U?$less@V?$basic_string@_WU?$char_traits@_W@std@@V?$allocator@_W@2@@std@@@2@V?$allocator@U?$pair@$$CBV?$basic_string@_WU?$char_traits@_W@std@@V?$allocator@_W@2@@std@@VCConfigSection@@@std@@@2@$0A@@std@@@std@@QBE_NABV012@@Z 00436350 f i MemoryConfig.obj
 0001:000353e0       ??9const_iterator@?$_Tree@V?$_Tmap_traits@V?$basic_string@_WU?$char_traits@_W@std@@V?$allocator@_W@2@@std@@VCConfigSection@@U?$less@V?$basic_string@_WU?$char_traits@_W@std@@V?$allocator@_W@2@@std@@@2@V?$allocator@U?$pair@$$CBV?$basic_string@_WU?$char_traits@_W@std@@V?$allocator@_W@2@@std@@VCConfigSection@@@std@@@2@$0A@@std@@@std@@QBE_NABV012@@Z 004363e0 f i MemoryConfig.obj
 0001:00035410       ??0iterator@?$_Tree@V?$_Tmap_traits@V?$basic_string@_WU?$char_traits@_W@std@@V?$allocator@_W@2@@std@@VCConfigSection@@U?$less@V?$basic_string@_WU?$char_traits@_W@std@@V?$allocator@_W@2@@std@@@2@V?$allocator@U?$pair@$$CBV?$basic_string@_WU?$char_traits@_W@std@@V?$allocator@_W@2@@std@@VCConfigSection@@@std@@@2@$0A@@std@@@std@@QAE@ABV012@@Z 00436410 f i MemoryConfig.obj
 0001:00035430       ?_Color@?$_Tree@V?$_Tmap_traits@V?$basic_string@_WU?$char_traits@_W@std@@V?$allocator@_W@2@@std@@VCConfigSection@@U?$less@V?$basic_string@_WU?$char_traits@_W@std@@V?$allocator@_W@2@@std@@@2@V?$allocator@U?$pair@$$CBV?$basic_string@_WU?$char_traits@_W@std@@V?$allocator@_W@2@@std@@VCConfigSection@@@std@@@2@$0A@@std@@@std@@KAAADPAU_Node@?$_Tree_nod@V?$_Tmap_traits@V?$basic_string@_WU?$char_traits@_W@std@@V?$allocator@_W@2@@std@@VCConfigSection@@U?$less@V?$basic_string@_WU?$char_traits@_W@std@@V?$allocator@_W@2@@std@@@2@V?$allocator@U?$pair@$$CBV?$basic_string@_WU?$char_traits@_W@std@@V?$allocator@_W@2@@std@@VCConfigSection@@@std@@@2@$0A@@std@@@2@@Z 00436430 f i MemoryConfig.obj
 0001:00035440       ?_Erase@?$_Tree@V?$_Tmap_traits@V?$basic_string@_WU?$char_traits@_W@std@@V?$allocator@_W@2@@std@@VCConfigSection@@U?$less@V?$basic_string@_WU?$char_traits@_W@std@@V?$allocator@_W@2@@std@@@2@V?$allocator@U?$pair@$$CBV?$basic_string@_WU?$char_traits@_W@std@@V?$allocator@_W@2@@std@@VCConfigSection@@@std@@@2@$0A@@std@@@std@@IAEXPAU_Node@?$_Tree_nod@V?$_Tmap_traits@V?$basic_string@_WU?$char_traits@_W@std@@V?$allocator@_W@2@@std@@VCConfigSection@@U?$less@V?$basic_string@_WU?$char_traits@_W@std@@V?$allocator@_W@2@@std@@@2@V?$allocator@U?$pair@$$CBV?$basic_string@_WU?$char_traits@_W@std@@V?$allocator@_W@2@@std@@VCConfigSection@@@std@@@2@$0A@@std@@@2@@Z 00436440 f i MemoryConfig.obj
 0001:000354c0       ?_Lrotate@?$_Tree@V?$_Tmap_traits@V?$basic_string@_WU?$char_traits@_W@std@@V?$allocator@_W@2@@std@@VCConfigSection@@U?$less@V?$basic_string@_WU?$char_traits@_W@std@@V?$allocator@_W@2@@std@@@2@V?$allocator@U?$pair@$$CBV?$basic_string@_WU?$char_traits@_W@std@@V?$allocator@_W@2@@std@@VCConfigSection@@@std@@@2@$0A@@std@@@std@@IAEXPAU_Node@?$_Tree_nod@V?$_Tmap_traits@V?$basic_string@_WU?$char_traits@_W@std@@V?$allocator@_W@2@@std@@VCConfigSection@@U?$less@V?$basic_string@_WU?$char_traits@_W@std@@V?$allocator@_W@2@@std@@@2@V?$allocator@U?$pair@$$CBV?$basic_string@_WU?$char_traits@_W@std@@V?$allocator@_W@2@@std@@VCConfigSection@@@std@@@2@$0A@@std@@@2@@Z 004364c0 f i MemoryConfig.obj
 0001:000355f0       ?_Max@?$_Tree@V?$_Tmap_traits@V?$basic_string@_WU?$char_traits@_W@std@@V?$allocator@_W@2@@std@@VCConfigSection@@U?$less@V?$basic_string@_WU?$char_traits@_W@std@@V?$allocator@_W@2@@std@@@2@V?$allocator@U?$pair@$$CBV?$basic_string@_WU?$char_traits@_W@std@@V?$allocator@_W@2@@std@@VCConfigSection@@@std@@@2@$0A@@std@@@std@@KAPAU_Node@?$_Tree_nod@V?$_Tmap_traits@V?$basic_string@_WU?$char_traits@_W@std@@V?$allocator@_W@2@@std@@VCConfigSection@@U?$less@V?$basic_string@_WU?$char_traits@_W@std@@V?$allocator@_W@2@@std@@@2@V?$allocator@U?$pair@$$CBV?$basic_string@_WU?$char_traits@_W@std@@V?$allocator@_W@2@@std@@VCConfigSection@@@std@@@2@$0A@@std@@@2@PAU342@@Z 004365f0 f i MemoryConfig.obj
 0001:00035630       ?_Min@?$_Tree@V?$_Tmap_traits@V?$basic_string@_WU?$char_traits@_W@std@@V?$allocator@_W@2@@std@@VCConfigSection@@U?$less@V?$basic_string@_WU?$char_traits@_W@std@@V?$allocator@_W@2@@std@@@2@V?$allocator@U?$pair@$$CBV?$basic_string@_WU?$char_traits@_W@std@@V?$allocator@_W@2@@std@@VCConfigSection@@@std@@@2@$0A@@std@@@std@@KAPAU_Node@?$_Tree_nod@V?$_Tmap_traits@V?$basic_string@_WU?$char_traits@_W@std@@V?$allocator@_W@2@@std@@VCConfigSection@@U?$less@V?$basic_string@_WU?$char_traits@_W@std@@V?$allocator@_W@2@@std@@@2@V?$allocator@U?$pair@$$CBV?$basic_string@_WU?$char_traits@_W@std@@V?$allocator@_W@2@@std@@VCConfigSection@@@std@@@2@$0A@@std@@@2@PAU342@@Z 00436630 f i MemoryConfig.obj
 0001:00035670       ?_Rrotate@?$_Tree@V?$_Tmap_traits@V?$basic_string@_WU?$char_traits@_W@std@@V?$allocator@_W@2@@std@@VCConfigSection@@U?$less@V?$basic_string@_WU?$char_traits@_W@std@@V?$allocator@_W@2@@std@@@2@V?$allocator@U?$pair@$$CBV?$basic_string@_WU?$char_traits@_W@std@@V?$allocator@_W@2@@std@@VCConfigSection@@@std@@@2@$0A@@std@@@std@@IAEXPAU_Node@?$_Tree_nod@V?$_Tmap_traits@V?$basic_string@_WU?$char_traits@_W@std@@V?$allocator@_W@2@@std@@VCConfigSection@@U?$less@V?$basic_string@_WU?$char_traits@_W@std@@V?$allocator@_W@2@@std@@@2@V?$allocator@U?$pair@$$CBV?$basic_string@_WU?$char_traits@_W@std@@V?$allocator@_W@2@@std@@VCConfigSection@@@std@@@2@$0A@@std@@@2@@Z 00436670 f i MemoryConfig.obj
 0001:000357a0       ?_Orphan_ptr@?$_Tree@V?$_Tmap_traits@V?$basic_string@_WU?$char_traits@_W@std@@V?$allocator@_W@2@@std@@VCConfigSection@@U?$less@V?$basic_string@_WU?$char_traits@_W@std@@V?$allocator@_W@2@@std@@@2@V?$allocator@U?$pair@$$CBV?$basic_string@_WU?$char_traits@_W@std@@V?$allocator@_W@2@@std@@VCConfigSection@@@std@@@2@$0A@@std@@@std@@IBEXAAV12@PAU_Node@?$_Tree_nod@V?$_Tmap_traits@V?$basic_string@_WU?$char_traits@_W@std@@V?$allocator@_W@2@@std@@VCConfigSection@@U?$less@V?$basic_string@_WU?$char_traits@_W@std@@V?$allocator@_W@2@@std@@@2@V?$allocator@U?$pair@$$CBV?$basic_string@_WU?$char_traits@_W@std@@V?$allocator@_W@2@@std@@VCConfigSection@@@std@@@2@$0A@@std@@@2@@Z 004367a0 f i MemoryConfig.obj
 0001:00035820       ??0?$_Tree_nod@V?$_Tmap_traits@V?$basic_string@_WU?$char_traits@_W@std@@V?$allocator@_W@2@@std@@VCConfigSection@@U?$less@V?$basic_string@_WU?$char_traits@_W@std@@V?$allocator@_W@2@@std@@@2@V?$allocator@U?$pair@$$CBV?$basic_string@_WU?$char_traits@_W@std@@V?$allocator@_W@2@@std@@VCConfigSection@@@std@@@2@$0A@@std@@@std@@IAE@ABU?$less@V?$basic_string@_WU?$char_traits@_W@std@@V?$allocator@_W@2@@std@@@1@V?$allocator@U?$pair@$$CBV?$basic_string@_WU?$char_traits@_W@std@@V?$allocator@_W@2@@std@@VCConfigSection@@@std@@@1@@Z 00436820 f i MemoryConfig.obj
 0001:00035860       ?allocate@?$allocator@U_Node@?$_Tree_nod@V?$_Tmap_traits@V?$basic_string@_WU?$char_traits@_W@std@@V?$allocator@_W@2@@std@@VCConfigSection@@U?$less@V?$basic_string@_WU?$char_traits@_W@std@@V?$allocator@_W@2@@std@@@2@V?$allocator@U?$pair@$$CBV?$basic_string@_WU?$char_traits@_W@std@@V?$allocator@_W@2@@std@@VCConfigSection@@@std@@@2@$0A@@std@@@std@@@std@@QAEPAU_Node@?$_Tree_nod@V?$_Tmap_traits@V?$basic_string@_WU?$char_traits@_W@std@@V?$allocator@_W@2@@std@@VCConfigSection@@U?$less@V?$basic_string@_WU?$char_traits@_W@std@@V?$allocator@_W@2@@std@@@2@V?$allocator@U?$pair@$$CBV?$basic_string@_WU?$char_traits@_W@std@@V?$allocator@_W@2@@std@@VCConfigSection@@@std@@@2@$0A@@std@@@2@I@Z 00436860 f i MemoryConfig.obj
 0001:00035880       ?destroy@?$allocator@U_Node@?$_Tree_nod@V?$_Tmap_traits@V?$basic_string@_WU?$char_traits@_W@std@@V?$allocator@_W@2@@std@@VCConfigSection@@U?$less@V?$basic_string@_WU?$char_traits@_W@std@@V?$allocator@_W@2@@std@@@2@V?$allocator@U?$pair@$$CBV?$basic_string@_WU?$char_traits@_W@std@@V?$allocator@_W@2@@std@@VCConfigSection@@@std@@@2@$0A@@std@@@std@@@std@@QAEXPAU_Node@?$_Tree_nod@V?$_Tmap_traits@V?$basic_string@_WU?$char_traits@_W@std@@V?$allocator@_W@2@@std@@VCConfigSection@@U?$less@V?$basic_string@_WU?$char_traits@_W@std@@V?$allocator@_W@2@@std@@@2@V?$allocator@U?$pair@$$CBV?$basic_string@_WU?$char_traits@_W@std@@V?$allocator@_W@2@@std@@VCConfigSection@@@std@@@2@$0A@@std@@@2@@Z 00436880 f i MemoryConfig.obj
 0001:000358a0       ?construct@?$allocator@PAU_Node@?$_Tree_nod@V?$_Tmap_traits@V?$basic_string@_WU?$char_traits@_W@std@@V?$allocator@_W@2@@std@@VCConfigSection@@U?$less@V?$basic_string@_WU?$char_traits@_W@std@@V?$allocator@_W@2@@std@@@2@V?$allocator@U?$pair@$$CBV?$basic_string@_WU?$char_traits@_W@std@@V?$allocator@_W@2@@std@@VCConfigSection@@@std@@@2@$0A@@std@@@std@@@std@@QAEXPAPAU_Node@?$_Tree_nod@V?$_Tmap_traits@V?$basic_string@_WU?$char_traits@_W@std@@V?$allocator@_W@2@@std@@VCConfigSection@@U?$less@V?$basic_string@_WU?$char_traits@_W@std@@V?$allocator@_W@2@@std@@@2@V?$allocator@U?$pair@$$CBV?$basic_string@_WU?$char_traits@_W@std@@V?$allocator@_W@2@@std@@VCConfigSection@@@std@@@2@$0A@@std@@@2@ABQAU342@@Z 004368a0 f i MemoryConfig.obj
 0001:000358c0       ??0const_iterator@?$_Tree@V?$_Tmap_traits@V?$basic_string@_WU?$char_traits@_W@std@@V?$allocator@_W@2@@std@@VCConfigSection@@U?$less@V?$basic_string@_WU?$char_traits@_W@std@@V?$allocator@_W@2@@std@@@2@V?$allocator@U?$pair@$$CBV?$basic_string@_WU?$char_traits@_W@std@@V?$allocator@_W@2@@std@@VCConfigSection@@@std@@@2@$0A@@std@@@std@@QAE@PAU_Node@?$_Tree_nod@V?$_Tmap_traits@V?$basic_string@_WU?$char_traits@_W@std@@V?$allocator@_W@2@@std@@VCConfigSection@@U?$less@V?$basic_string@_WU?$char_traits@_W@std@@V?$allocator@_W@2@@std@@@2@V?$allocator@U?$pair@$$CBV?$basic_string@_WU?$char_traits@_W@std@@V?$allocator@_W@2@@std@@VCConfigSection@@@std@@@2@$0A@@std@@@2@PBV12@@Z 004368c0 f i MemoryConfig.obj
 0001:00035930       ??Econst_iterator@?$_Tree@V?$_Tmap_traits@V?$basic_string@_WU?$char_traits@_W@std@@V?$allocator@_W@2@@std@@VCConfigSection@@U?$less@V?$basic_string@_WU?$char_traits@_W@std@@V?$allocator@_W@2@@std@@@2@V?$allocator@U?$pair@$$CBV?$basic_string@_WU?$char_traits@_W@std@@V?$allocator@_W@2@@std@@VCConfigSection@@@std@@@2@$0A@@std@@@std@@QAEAAV012@XZ 00436930 f i MemoryConfig.obj
 0001:00035950       ?_Mynode@const_iterator@?$_Tree@V?$_Tmap_traits@V?$basic_string@_WU?$char_traits@_W@std@@V?$allocator@_W@2@@std@@VCConfigSection@@U?$less@V?$basic_string@_WU?$char_traits@_W@std@@V?$allocator@_W@2@@std@@@2@V?$allocator@U?$pair@$$CBV?$basic_string@_WU?$char_traits@_W@std@@V?$allocator@_W@2@@std@@VCConfigSection@@@std@@@2@$0A@@std@@@std@@QBEPAU_Node@?$_Tree_nod@V?$_Tmap_traits@V?$basic_string@_WU?$char_traits@_W@std@@V?$allocator@_W@2@@std@@VCConfigSection@@U?$less@V?$basic_string@_WU?$char_traits@_W@std@@V?$allocator@_W@2@@std@@@2@V?$allocator@U?$pair@$$CBV?$basic_string@_WU?$char_traits@_W@std@@V?$allocator@_W@2@@std@@VCConfigSection@@@std@@@2@$0A@@std@@@3@XZ 00436950 f i MemoryConfig.obj
 0001:00035970       ??0?$_Bidit@U?$pair@$$CBV?$basic_string@_WU?$char_traits@_W@std@@V?$allocator@_W@2@@std@@VCConfigSection@@@std@@HPBU12@ABU12@@std@@QAE@XZ 00436970 f i MemoryConfig.obj
 0001:00035990       ??0?$_Iterator_with_base@Ubidirectional_iterator_tag@std@@U?$pair@$$CBV?$basic_string@_WU?$char_traits@_W@std@@V?$allocator@_W@2@@std@@VCConfigSection@@@2@HPBU32@ABU32@V_Iterator_base@2@@std@@QAE@XZ 00436990 f i MemoryConfig.obj
 0001:000359b0       ??0?$_Tmap_traits@V?$basic_string@_WU?$char_traits@_W@std@@V?$allocator@_W@2@@std@@VCConfigSection@@U?$less@V?$basic_string@_WU?$char_traits@_W@std@@V?$allocator@_W@2@@std@@@2@V?$allocator@U?$pair@$$CBV?$basic_string@_WU?$char_traits@_W@std@@V?$allocator@_W@2@@std@@VCConfigSection@@@std@@@2@$0A@@std@@QAE@U?$less@V?$basic_string@_WU?$char_traits@_W@std@@V?$allocator@_W@2@@std@@@1@V?$allocator@U?$pair@$$CBV?$basic_string@_WU?$char_traits@_W@std@@V?$allocator@_W@2@@std@@VCConfigSection@@@std@@@1@@Z 004369b0 f i MemoryConfig.obj
 0001:000359e0       ?_Inc@const_iterator@?$_Tree@V?$_Tmap_traits@V?$basic_string@_WU?$char_traits@_W@std@@V?$allocator@_W@2@@std@@VCConfigSection@@U?$less@V?$basic_string@_WU?$char_traits@_W@std@@V?$allocator@_W@2@@std@@@2@V?$allocator@U?$pair@$$CBV?$basic_string@_WU?$char_traits@_W@std@@V?$allocator@_W@2@@std@@VCConfigSection@@@std@@@2@$0A@@std@@@std@@QAEXXZ 004369e0 f i MemoryConfig.obj
 0001:00035b10       ??0?$_Container_base_aux_alloc_empty@V?$allocator@U?$pair@$$CBV?$basic_string@_WU?$char_traits@_W@std@@V?$allocator@_W@2@@std@@VCConfigSection@@@std@@@std@@@std@@IAE@V?$allocator@U?$pair@$$CBV?$basic_string@_WU?$char_traits@_W@std@@V?$allocator@_W@2@@std@@VCConfigSection@@@std@@@1@@Z 00436b10 f i MemoryConfig.obj
 0001:00035b30       ??$_Destroy@PAU_Node@?$_Tree_nod@V?$_Tmap_traits@V?$basic_string@_WU?$char_traits@_W@std@@V?$allocator@_W@2@@std@@VCConfigSection@@U?$less@V?$basic_string@_WU?$char_traits@_W@std@@V?$allocator@_W@2@@std@@@2@V?$allocator@U?$pair@$$CBV?$basic_string@_WU?$char_traits@_W@std@@V?$allocator@_W@2@@std@@VCConfigSection@@@std@@@2@$0A@@std@@@std@@@std@@YAXPAPAU_Node@?$_Tree_nod@V?$_Tmap_traits@V?$basic_string@_WU?$char_traits@_W@std@@V?$allocator@_W@2@@std@@VCConfigSection@@U?$less@V?$basic_string@_WU?$char_traits@_W@std@@V?$allocator@_W@2@@std@@@2@V?$allocator@U?$pair@$$CBV?$basic_string@_WU?$char_traits@_W@std@@V?$allocator@_W@2@@std@@VCConfigSection@@@std@@@2@$0A@@std@@@0@@Z 00436b30 f i MemoryConfig.obj
 0001:00035b40       ??$?0U?$pair@$$CBV?$basic_string@_WU?$char_traits@_W@std@@V?$allocator@_W@2@@std@@VCConfigSection@@@std@@@?$allocator@PAU_Node@?$_Tree_nod@V?$_Tmap_traits@V?$basic_string@_WU?$char_traits@_W@std@@V?$allocator@_W@2@@std@@VCConfigSection@@U?$less@V?$basic_string@_WU?$char_traits@_W@std@@V?$allocator@_W@2@@std@@@2@V?$allocator@U?$pair@$$CBV?$basic_string@_WU?$char_traits@_W@std@@V?$allocator@_W@2@@std@@VCConfigSection@@@std@@@2@$0A@@std@@@std@@@std@@QAE@ABV?$allocator@U?$pair@$$CBV?$basic_string@_WU?$char_traits@_W@std@@V?$allocator@_W@2@@std@@VCConfigSection@@@std@@@1@@Z 00436b40 f i MemoryConfig.obj
 0001:00035b50       ??$?0U?$pair@$$CBV?$basic_string@_WU?$char_traits@_W@std@@V?$allocator@_W@2@@std@@VCConfigSection@@@std@@@?$allocator@U_Node@?$_Tree_nod@V?$_Tmap_traits@V?$basic_string@_WU?$char_traits@_W@std@@V?$allocator@_W@2@@std@@VCConfigSection@@U?$less@V?$basic_string@_WU?$char_traits@_W@std@@V?$allocator@_W@2@@std@@@2@V?$allocator@U?$pair@$$CBV?$basic_string@_WU?$char_traits@_W@std@@V?$allocator@_W@2@@std@@VCConfigSection@@@std@@@2@$0A@@std@@@std@@@std@@QAE@ABV?$allocator@U?$pair@$$CBV?$basic_string@_WU?$char_traits@_W@std@@V?$allocator@_W@2@@std@@VCConfigSection@@@std@@@1@@Z 00436b50 f i MemoryConfig.obj
 0001:00035b60       ??$_Allocate@U_Node@?$_Tree_nod@V?$_Tmap_traits@V?$basic_string@_WU?$char_traits@_W@std@@V?$allocator@_W@2@@std@@VCConfigSection@@U?$less@V?$basic_string@_WU?$char_traits@_W@std@@V?$allocator@_W@2@@std@@@2@V?$allocator@U?$pair@$$CBV?$basic_string@_WU?$char_traits@_W@std@@V?$allocator@_W@2@@std@@VCConfigSection@@@std@@@2@$0A@@std@@@std@@@std@@YAPAU_Node@?$_Tree_nod@V?$_Tmap_traits@V?$basic_string@_WU?$char_traits@_W@std@@V?$allocator@_W@2@@std@@VCConfigSection@@U?$less@V?$basic_string@_WU?$char_traits@_W@std@@V?$allocator@_W@2@@std@@@2@V?$allocator@U?$pair@$$CBV?$basic_string@_WU?$char_traits@_W@std@@V?$allocator@_W@2@@std@@VCConfigSection@@@std@@@2@$0A@@std@@@0@IPAU120@@Z 00436b60 f i MemoryConfig.obj
 0001:00035bb0       ??$_Destroy@U_Node@?$_Tree_nod@V?$_Tmap_traits@V?$basic_string@_WU?$char_traits@_W@std@@V?$allocator@_W@2@@std@@VCConfigSection@@U?$less@V?$basic_string@_WU?$char_traits@_W@std@@V?$allocator@_W@2@@std@@@2@V?$allocator@U?$pair@$$CBV?$basic_string@_WU?$char_traits@_W@std@@V?$allocator@_W@2@@std@@VCConfigSection@@@std@@@2@$0A@@std@@@std@@@std@@YAXPAU_Node@?$_Tree_nod@V?$_Tmap_traits@V?$basic_string@_WU?$char_traits@_W@std@@V?$allocator@_W@2@@std@@VCConfigSection@@U?$less@V?$basic_string@_WU?$char_traits@_W@std@@V?$allocator@_W@2@@std@@@2@V?$allocator@U?$pair@$$CBV?$basic_string@_WU?$char_traits@_W@std@@V?$allocator@_W@2@@std@@VCConfigSection@@@std@@@2@$0A@@std@@@0@@Z 00436bb0 f i MemoryConfig.obj
 0001:00035bc0       ??$_Construct@PAU_Node@?$_Tree_nod@V?$_Tmap_traits@V?$basic_string@_WU?$char_traits@_W@std@@V?$allocator@_W@2@@std@@VCConfigSection@@U?$less@V?$basic_string@_WU?$char_traits@_W@std@@V?$allocator@_W@2@@std@@@2@V?$allocator@U?$pair@$$CBV?$basic_string@_WU?$char_traits@_W@std@@V?$allocator@_W@2@@std@@VCConfigSection@@@std@@@2@$0A@@std@@@std@@PAU123@@std@@YAXPAPAU_Node@?$_Tree_nod@V?$_Tmap_traits@V?$basic_string@_WU?$char_traits@_W@std@@V?$allocator@_W@2@@std@@VCConfigSection@@U?$less@V?$basic_string@_WU?$char_traits@_W@std@@V?$allocator@_W@2@@std@@@2@V?$allocator@U?$pair@$$CBV?$basic_string@_WU?$char_traits@_W@std@@V?$allocator@_W@2@@std@@VCConfigSection@@@std@@@2@$0A@@std@@@0@ABQAU120@@Z 00436bc0 f i MemoryConfig.obj
 0001:00035c00       ??_G_Node@?$_Tree_nod@V?$_Tmap_traits@V?$basic_string@_WU?$char_traits@_W@std@@V?$allocator@_W@2@@std@@VCConfigSection@@U?$less@V?$basic_string@_WU?$char_traits@_W@std@@V?$allocator@_W@2@@std@@@2@V?$allocator@U?$pair@$$CBV?$basic_string@_WU?$char_traits@_W@std@@V?$allocator@_W@2@@std@@VCConfigSection@@@std@@@2@$0A@@std@@@std@@QAEPAXI@Z 00436c00 f i MemoryConfig.obj
 0001:00035c30       ??1_Node@?$_Tree_nod@V?$_Tmap_traits@V?$basic_string@_WU?$char_traits@_W@std@@V?$allocator@_W@2@@std@@VCConfigSection@@U?$less@V?$basic_string@_WU?$char_traits@_W@std@@V?$allocator@_W@2@@std@@@2@V?$allocator@U?$pair@$$CBV?$basic_string@_WU?$char_traits@_W@std@@V?$allocator@_W@2@@std@@VCConfigSection@@@std@@@2@$0A@@std@@@std@@QAE@XZ 00436c30 f i MemoryConfig.obj
 0001:00035c50       ??1?$pair@$$CBV?$basic_string@_WU?$char_traits@_W@std@@V?$allocator@_W@2@@std@@VCConfigSection@@@std@@QAE@XZ 00436c50 f i MemoryConfig.obj
 0001:00035cb0       ??0CMessageMapList@@QAE@XZ 00436cb0 f   MessageMapList.obj
 0001:00035cd0       ??1CMessageMapList@@QAE@XZ 00436cd0 f   MessageMapList.obj
 0001:00035d30       ??1?$map@HPAVCBaseMessage@@U?$less@H@std@@V?$allocator@U?$pair@$$CBHPAVCBaseMessage@@@std@@@3@@std@@QAE@XZ 00436d30 f i MessageMapList.obj
 0001:00035d50       ?GetInstance@CMessageMapList@@SAPAV1@XZ 00436d50 f   MessageMapList.obj
 0001:00035de0       ?DeleteInstance@CMessageMapList@@SAXXZ 00436de0 f   MessageMapList.obj
 0001:00035e30       ??_GCMessageMapList@@QAEPAXI@Z 00436e30 f i MessageMapList.obj
 0001:00035e60       ?InitMessageList@CMessageMapList@@QAE_NXZ 00436e60 f   MessageMapList.obj
 0001:00036310       ?AddToMessageMapList@CMessageMapList@@QAEXPAVCBaseMessage@@@Z 00437310 f   MessageMapList.obj
 0001:00036360       ??1?$pair@Viterator@?$_Tree@V?$_Tmap_traits@HPAVCBaseMessage@@U?$less@H@std@@V?$allocator@U?$pair@$$CBHPAVCBaseMessage@@@std@@@3@$0A@@std@@@std@@_N@std@@QAE@XZ 00437360 f i MessageMapList.obj
 0001:00036380       ??1iterator@?$_Tree@V?$_Tmap_traits@HPAVCBaseMessage@@U?$less@H@std@@V?$allocator@U?$pair@$$CBHPAVCBaseMessage@@@std@@@3@$0A@@std@@@std@@QAE@XZ 00437380 f i MessageMapList.obj
 0001:000363a0       ??1const_iterator@?$_Tree@V?$_Tmap_traits@HPAVCBaseMessage@@U?$less@H@std@@V?$allocator@U?$pair@$$CBHPAVCBaseMessage@@@std@@@3@$0A@@std@@@std@@QAE@XZ 004373a0 f i MessageMapList.obj
 0001:000363c0       ??1?$_Bidit@U?$pair@$$CBHPAVCBaseMessage@@@std@@HPBU12@ABU12@@std@@QAE@XZ 004373c0 f i MessageMapList.obj
 0001:000363e0       ??1?$_Iterator_with_base@Ubidirectional_iterator_tag@std@@U?$pair@$$CBHPAVCBaseMessage@@@2@HPBU32@ABU32@V_Iterator_base@2@@std@@QAE@XZ 004373e0 f i MessageMapList.obj
 0001:00036400       ?GetMessageById@CMessageMapList@@QAEPAVCBaseMessage@@H@Z 00437400 f   MessageMapList.obj
 0001:000364c0       ?ClearAllMessage@CMessageMapList@@QAEXXZ 004374c0 f   MessageMapList.obj
 0001:000365b0       ??0?$map@HPAVCBaseMessage@@U?$less@H@std@@V?$allocator@U?$pair@$$CBHPAVCBaseMessage@@@std@@@3@@std@@QAE@XZ 004375b0 f i MessageMapList.obj
 0001:000365e0       ??1?$_Tree@V?$_Tmap_traits@HPAVCBaseMessage@@U?$less@H@std@@V?$allocator@U?$pair@$$CBHPAVCBaseMessage@@@std@@@3@$0A@@std@@@std@@QAE@XZ 004375e0 f i MessageMapList.obj
 0001:00036640       ?begin@?$_Tree@V?$_Tmap_traits@HPAVCBaseMessage@@U?$less@H@std@@V?$allocator@U?$pair@$$CBHPAVCBaseMessage@@@std@@@3@$0A@@std@@@std@@QAE?AViterator@12@XZ 00437640 f i MessageMapList.obj
 0001:00036680       ?end@?$_Tree@V?$_Tmap_traits@HPAVCBaseMessage@@U?$less@H@std@@V?$allocator@U?$pair@$$CBHPAVCBaseMessage@@@std@@@3@$0A@@std@@@std@@QAE?AViterator@12@XZ 00437680 f i MessageMapList.obj
 0001:000366c0       ?insert@?$_Tree@V?$_Tmap_traits@HPAVCBaseMessage@@U?$less@H@std@@V?$allocator@U?$pair@$$CBHPAVCBaseMessage@@@std@@@3@$0A@@std@@@std@@QAE?AU?$pair@Viterator@?$_Tree@V?$_Tmap_traits@HPAVCBaseMessage@@U?$less@H@std@@V?$allocator@U?$pair@$$CBHPAVCBaseMessage@@@std@@@3@$0A@@std@@@std@@_N@2@ABU?$pair@$$CBHPAVCBaseMessage@@@2@@Z 004376c0 f i MessageMapList.obj
 0001:000369d0       ?find@?$_Tree@V?$_Tmap_traits@HPAVCBaseMessage@@U?$less@H@std@@V?$allocator@U?$pair@$$CBHPAVCBaseMessage@@@std@@@3@$0A@@std@@@std@@QAE?AViterator@12@ABH@Z 004379d0 f i MessageMapList.obj
 0001:00036b30       ??Citerator@?$_Tree@V?$_Tmap_traits@HPAVCBaseMessage@@U?$less@H@std@@V?$allocator@U?$pair@$$CBHPAVCBaseMessage@@@std@@@3@$0A@@std@@@std@@QBEPAU?$pair@$$CBHPAVCBaseMessage@@@2@XZ 00437b30 f i MessageMapList.obj
 0001:00036b50       ??Eiterator@?$_Tree@V?$_Tmap_traits@HPAVCBaseMessage@@U?$less@H@std@@V?$allocator@U?$pair@$$CBHPAVCBaseMessage@@@std@@@3@$0A@@std@@@std@@QAEAAV012@XZ 00437b50 f i MessageMapList.obj
 0001:00036b70       ??9const_iterator@?$_Tree@V?$_Tmap_traits@HPAVCBaseMessage@@U?$less@H@std@@V?$allocator@U?$pair@$$CBHPAVCBaseMessage@@@std@@@3@$0A@@std@@@std@@QBE_NABV012@@Z 00437b70 f i MessageMapList.obj
 0001:00036ba0       ??1?$_Tree_val@V?$_Tmap_traits@HPAVCBaseMessage@@U?$less@H@std@@V?$allocator@U?$pair@$$CBHPAVCBaseMessage@@@std@@@3@$0A@@std@@@std@@QAE@XZ 00437ba0 f i MessageMapList.obj
 0001:00036bc0       ??0iterator@?$_Tree@V?$_Tmap_traits@HPAVCBaseMessage@@U?$less@H@std@@V?$allocator@U?$pair@$$CBHPAVCBaseMessage@@@std@@@3@$0A@@std@@@std@@QAE@ABV012@@Z 00437bc0 f i MessageMapList.obj
 0001:00036be0       ??1?$_Tree_ptr@V?$_Tmap_traits@HPAVCBaseMessage@@U?$less@H@std@@V?$allocator@U?$pair@$$CBHPAVCBaseMessage@@@std@@@3@$0A@@std@@@std@@QAE@XZ 00437be0 f i MessageMapList.obj
 0001:00036c00       ??0const_iterator@?$_Tree@V?$_Tmap_traits@HPAVCBaseMessage@@U?$less@H@std@@V?$allocator@U?$pair@$$CBHPAVCBaseMessage@@@std@@@3@$0A@@std@@@std@@QAE@ABV012@@Z 00437c00 f i MessageMapList.obj
 0001:00036c30       ??1?$_Tree_nod@V?$_Tmap_traits@HPAVCBaseMessage@@U?$less@H@std@@V?$allocator@U?$pair@$$CBHPAVCBaseMessage@@@std@@@3@$0A@@std@@@std@@QAE@XZ 00437c30 f i MessageMapList.obj
 0001:00036c50       ??0?$_Bidit@U?$pair@$$CBHPAVCBaseMessage@@@std@@HPBU12@ABU12@@std@@QAE@ABU01@@Z 00437c50 f i MessageMapList.obj
 0001:00036c70       ??1?$_Tmap_traits@HPAVCBaseMessage@@U?$less@H@std@@V?$allocator@U?$pair@$$CBHPAVCBaseMessage@@@std@@@3@$0A@@std@@QAE@XZ 00437c70 f i MessageMapList.obj
 0001:00036c90       ??0?$_Iterator_with_base@Ubidirectional_iterator_tag@std@@U?$pair@$$CBHPAVCBaseMessage@@@2@HPBU32@ABU32@V_Iterator_base@2@@std@@QAE@ABU01@@Z 00437c90 f i MessageMapList.obj
 0001:00036cb0       ?_Isnil@?$_Tree@V?$_Tmap_traits@HPAVCBaseMessage@@U?$less@H@std@@V?$allocator@U?$pair@$$CBHPAVCBaseMessage@@@std@@@3@$0A@@std@@@std@@KAAADPAU_Node@?$_Tree_nod@V?$_Tmap_traits@HPAVCBaseMessage@@U?$less@H@std@@V?$allocator@U?$pair@$$CBHPAVCBaseMessage@@@std@@@3@$0A@@std@@@2@@Z 00437cb0 f i MessageMapList.obj
 0001:00036cc0       ?_Key@?$_Tree@V?$_Tmap_traits@HPAVCBaseMessage@@U?$less@H@std@@V?$allocator@U?$pair@$$CBHPAVCBaseMessage@@@std@@@3@$0A@@std@@@std@@KAABHPAU_Node@?$_Tree_nod@V?$_Tmap_traits@HPAVCBaseMessage@@U?$less@H@std@@V?$allocator@U?$pair@$$CBHPAVCBaseMessage@@@std@@@3@$0A@@std@@@2@@Z 00437cc0 f i MessageMapList.obj
 0001:00036ce0       ?_Left@?$_Tree@V?$_Tmap_traits@HPAVCBaseMessage@@U?$less@H@std@@V?$allocator@U?$pair@$$CBHPAVCBaseMessage@@@std@@@3@$0A@@std@@@std@@KAAAPAU_Node@?$_Tree_nod@V?$_Tmap_traits@HPAVCBaseMessage@@U?$less@H@std@@V?$allocator@U?$pair@$$CBHPAVCBaseMessage@@@std@@@3@$0A@@std@@@2@PAU342@@Z 00437ce0 f i MessageMapList.obj
 0001:00036cf0       ?_Right@?$_Tree@V?$_Tmap_traits@HPAVCBaseMessage@@U?$less@H@std@@V?$allocator@U?$pair@$$CBHPAVCBaseMessage@@@std@@@3@$0A@@std@@@std@@KAAAPAU_Node@?$_Tree_nod@V?$_Tmap_traits@HPAVCBaseMessage@@U?$less@H@std@@V?$allocator@U?$pair@$$CBHPAVCBaseMessage@@@std@@@3@$0A@@std@@@2@PAU342@@Z 00437cf0 f i MessageMapList.obj
 0001:00036d00       ??0?$_Tree@V?$_Tmap_traits@HPAVCBaseMessage@@U?$less@H@std@@V?$allocator@U?$pair@$$CBHPAVCBaseMessage@@@std@@@3@$0A@@std@@@std@@QAE@ABU?$less@H@1@ABV?$allocator@U?$pair@$$CBHPAVCBaseMessage@@@std@@@1@@Z 00437d00 f i MessageMapList.obj
 0001:00036d70       ?lower_bound@?$_Tree@V?$_Tmap_traits@HPAVCBaseMessage@@U?$less@H@std@@V?$allocator@U?$pair@$$CBHPAVCBaseMessage@@@std@@@3@$0A@@std@@@std@@QAE?AViterator@12@ABH@Z 00437d70 f i MessageMapList.obj
 0001:00036db0       ?_Insert@?$_Tree@V?$_Tmap_traits@HPAVCBaseMessage@@U?$less@H@std@@V?$allocator@U?$pair@$$CBHPAVCBaseMessage@@@std@@@3@$0A@@std@@@std@@IAE?AViterator@12@_NPAU_Node@?$_Tree_nod@V?$_Tmap_traits@HPAVCBaseMessage@@U?$less@H@std@@V?$allocator@U?$pair@$$CBHPAVCBaseMessage@@@std@@@3@$0A@@std@@@2@ABU?$pair@$$CBHPAVCBaseMessage@@@2@@Z 00437db0 f i MessageMapList.obj
 0001:00037240       ?_Lmost@?$_Tree@V?$_Tmap_traits@HPAVCBaseMessage@@U?$less@H@std@@V?$allocator@U?$pair@$$CBHPAVCBaseMessage@@@std@@@3@$0A@@std@@@std@@IBEAAPAU_Node@?$_Tree_nod@V?$_Tmap_traits@HPAVCBaseMessage@@U?$less@H@std@@V?$allocator@U?$pair@$$CBHPAVCBaseMessage@@@std@@@3@$0A@@std@@@2@XZ 00438240 f i MessageMapList.obj
 0001:00037260       ?_Root@?$_Tree@V?$_Tmap_traits@HPAVCBaseMessage@@U?$less@H@std@@V?$allocator@U?$pair@$$CBHPAVCBaseMessage@@@std@@@3@$0A@@std@@@std@@IBEAAPAU_Node@?$_Tree_nod@V?$_Tmap_traits@HPAVCBaseMessage@@U?$less@H@std@@V?$allocator@U?$pair@$$CBHPAVCBaseMessage@@@std@@@3@$0A@@std@@@2@XZ 00438260 f i MessageMapList.obj
 0001:00037280       ?_Tidy@?$_Tree@V?$_Tmap_traits@HPAVCBaseMessage@@U?$less@H@std@@V?$allocator@U?$pair@$$CBHPAVCBaseMessage@@@std@@@3@$0A@@std@@@std@@IAEXXZ 00438280 f i MessageMapList.obj
 0001:000373d0       ?_Kfn@?$_Tmap_traits@HPAVCBaseMessage@@U?$less@H@std@@V?$allocator@U?$pair@$$CBHPAVCBaseMessage@@@std@@@3@$0A@@std@@SAABHABU?$pair@$$CBHPAVCBaseMessage@@@2@@Z 004383d0 f i MessageMapList.obj
 0001:000373e0       ??1?$_Container_base_aux_alloc_empty@V?$allocator@U?$pair@$$CBHPAVCBaseMessage@@@std@@@std@@@std@@IAE@XZ 004383e0 f i MessageMapList.obj
 0001:00037400       ??0?$allocator@U?$pair@$$CBHPAVCBaseMessage@@@std@@@std@@QAE@XZ 00438400 f i MessageMapList.obj
 0001:00037410       ??0?$pair@Viterator@?$_Tree@V?$_Tmap_traits@HPAVCBaseMessage@@U?$less@H@std@@V?$allocator@U?$pair@$$CBHPAVCBaseMessage@@@std@@@3@$0A@@std@@@std@@_N@std@@QAE@ABViterator@?$_Tree@V?$_Tmap_traits@HPAVCBaseMessage@@U?$less@H@std@@V?$allocator@U?$pair@$$CBHPAVCBaseMessage@@@std@@@3@$0A@@std@@@1@AB_N@Z 00438410 f i MessageMapList.obj
 0001:00037440       ??0iterator@?$_Tree@V?$_Tmap_traits@HPAVCBaseMessage@@U?$less@H@std@@V?$allocator@U?$pair@$$CBHPAVCBaseMessage@@@std@@@3@$0A@@std@@@std@@QAE@PAU_Node@?$_Tree_nod@V?$_Tmap_traits@HPAVCBaseMessage@@U?$less@H@std@@V?$allocator@U?$pair@$$CBHPAVCBaseMessage@@@std@@@3@$0A@@std@@@2@PBV12@@Z 00438440 f i MessageMapList.obj
 0001:00037460       ??Diterator@?$_Tree@V?$_Tmap_traits@HPAVCBaseMessage@@U?$less@H@std@@V?$allocator@U?$pair@$$CBHPAVCBaseMessage@@@std@@@3@$0A@@std@@@std@@QBEAAU?$pair@$$CBHPAVCBaseMessage@@@2@XZ 00438460 f i MessageMapList.obj
 0001:00037480       ??Fiterator@?$_Tree@V?$_Tmap_traits@HPAVCBaseMessage@@U?$less@H@std@@V?$allocator@U?$pair@$$CBHPAVCBaseMessage@@@std@@@3@$0A@@std@@@std@@QAEAAV012@XZ 00438480 f i MessageMapList.obj
 0001:000374a0       ??Econst_iterator@?$_Tree@V?$_Tmap_traits@HPAVCBaseMessage@@U?$less@H@std@@V?$allocator@U?$pair@$$CBHPAVCBaseMessage@@@std@@@3@$0A@@std@@@std@@QAEAAV012@XZ 004384a0 f i MessageMapList.obj
 0001:000374c0       ??8const_iterator@?$_Tree@V?$_Tmap_traits@HPAVCBaseMessage@@U?$less@H@std@@V?$allocator@U?$pair@$$CBHPAVCBaseMessage@@@std@@@3@$0A@@std@@@std@@QBE_NABV012@@Z 004384c0 f i MessageMapList.obj
 0001:00037550       ?_Mynode@const_iterator@?$_Tree@V?$_Tmap_traits@HPAVCBaseMessage@@U?$less@H@std@@V?$allocator@U?$pair@$$CBHPAVCBaseMessage@@@std@@@3@$0A@@std@@@std@@QBEPAU_Node@?$_Tree_nod@V?$_Tmap_traits@HPAVCBaseMessage@@U?$less@H@std@@V?$allocator@U?$pair@$$CBHPAVCBaseMessage@@@std@@@3@$0A@@std@@@3@XZ 00438550 f i MessageMapList.obj
 0001:00037570       ?_Color@?$_Tree@V?$_Tmap_traits@HPAVCBaseMessage@@U?$less@H@std@@V?$allocator@U?$pair@$$CBHPAVCBaseMessage@@@std@@@3@$0A@@std@@@std@@KAAADPAU_Node@?$_Tree_nod@V?$_Tmap_traits@HPAVCBaseMessage@@U?$less@H@std@@V?$allocator@U?$pair@$$CBHPAVCBaseMessage@@@std@@@3@$0A@@std@@@2@@Z 00438570 f i MessageMapList.obj
 0001:00037580       ?_Parent@?$_Tree@V?$_Tmap_traits@HPAVCBaseMessage@@U?$less@H@std@@V?$allocator@U?$pair@$$CBHPAVCBaseMessage@@@std@@@3@$0A@@std@@@std@@KAAAPAU_Node@?$_Tree_nod@V?$_Tmap_traits@HPAVCBaseMessage@@U?$less@H@std@@V?$allocator@U?$pair@$$CBHPAVCBaseMessage@@@std@@@3@$0A@@std@@@2@PAU342@@Z 00438580 f i MessageMapList.obj
 0001:00037590       ?_Myval@?$_Tree@V?$_Tmap_traits@HPAVCBaseMessage@@U?$less@H@std@@V?$allocator@U?$pair@$$CBHPAVCBaseMessage@@@std@@@3@$0A@@std@@@std@@KAAAU?$pair@$$CBHPAVCBaseMessage@@@2@PAU_Node@?$_Tree_nod@V?$_Tmap_traits@HPAVCBaseMessage@@U?$less@H@std@@V?$allocator@U?$pair@$$CBHPAVCBaseMessage@@@std@@@3@$0A@@std@@@2@@Z 00438590 f i MessageMapList.obj
 0001:000375a0       ?max_size@?$_Tree@V?$_Tmap_traits@HPAVCBaseMessage@@U?$less@H@std@@V?$allocator@U?$pair@$$CBHPAVCBaseMessage@@@std@@@3@$0A@@std@@@std@@QBEIXZ 004385a0 f i MessageMapList.obj
 0001:000375c0       ?erase@?$_Tree@V?$_Tmap_traits@HPAVCBaseMessage@@U?$less@H@std@@V?$allocator@U?$pair@$$CBHPAVCBaseMessage@@@std@@@3@$0A@@std@@@std@@QAE?AViterator@12@Vconst_iterator@12@0@Z 004385c0 f i MessageMapList.obj
 0001:000377b0       ?_Init@?$_Tree@V?$_Tmap_traits@HPAVCBaseMessage@@U?$less@H@std@@V?$allocator@U?$pair@$$CBHPAVCBaseMessage@@@std@@@3@$0A@@std@@@std@@IAEXXZ 004387b0 f i MessageMapList.obj
 0001:00037820       ?_Lbound@?$_Tree@V?$_Tmap_traits@HPAVCBaseMessage@@U?$less@H@std@@V?$allocator@U?$pair@$$CBHPAVCBaseMessage@@@std@@@3@$0A@@std@@@std@@IBEPAU_Node@?$_Tree_nod@V?$_Tmap_traits@HPAVCBaseMessage@@U?$less@H@std@@V?$allocator@U?$pair@$$CBHPAVCBaseMessage@@@std@@@3@$0A@@std@@@2@ABH@Z 00438820 f i MessageMapList.obj
 0001:000378c0       ?_Lrotate@?$_Tree@V?$_Tmap_traits@HPAVCBaseMessage@@U?$less@H@std@@V?$allocator@U?$pair@$$CBHPAVCBaseMessage@@@std@@@3@$0A@@std@@@std@@IAEXPAU_Node@?$_Tree_nod@V?$_Tmap_traits@HPAVCBaseMessage@@U?$less@H@std@@V?$allocator@U?$pair@$$CBHPAVCBaseMessage@@@std@@@3@$0A@@std@@@2@@Z 004388c0 f i MessageMapList.obj
 0001:000379f0       ?_Rmost@?$_Tree@V?$_Tmap_traits@HPAVCBaseMessage@@U?$less@H@std@@V?$allocator@U?$pair@$$CBHPAVCBaseMessage@@@std@@@3@$0A@@std@@@std@@IBEAAPAU_Node@?$_Tree_nod@V?$_Tmap_traits@HPAVCBaseMessage@@U?$less@H@std@@V?$allocator@U?$pair@$$CBHPAVCBaseMessage@@@std@@@3@$0A@@std@@@2@XZ 004389f0 f i MessageMapList.obj
 0001:00037a10       ?_Rrotate@?$_Tree@V?$_Tmap_traits@HPAVCBaseMessage@@U?$less@H@std@@V?$allocator@U?$pair@$$CBHPAVCBaseMessage@@@std@@@3@$0A@@std@@@std@@IAEXPAU_Node@?$_Tree_nod@V?$_Tmap_traits@HPAVCBaseMessage@@U?$less@H@std@@V?$allocator@U?$pair@$$CBHPAVCBaseMessage@@@std@@@3@$0A@@std@@@2@@Z 00438a10 f i MessageMapList.obj
 0001:00037b40       ?_Buynode@?$_Tree@V?$_Tmap_traits@HPAVCBaseMessage@@U?$less@H@std@@V?$allocator@U?$pair@$$CBHPAVCBaseMessage@@@std@@@3@$0A@@std@@@std@@IAEPAU_Node@?$_Tree_nod@V?$_Tmap_traits@HPAVCBaseMessage@@U?$less@H@std@@V?$allocator@U?$pair@$$CBHPAVCBaseMessage@@@std@@@3@$0A@@std@@@2@PAU342@00ABU?$pair@$$CBHPAVCBaseMessage@@@2@D@Z 00438b40 f i MessageMapList.obj
 0001:00037c30       ??0?$_Tree_val@V?$_Tmap_traits@HPAVCBaseMessage@@U?$less@H@std@@V?$allocator@U?$pair@$$CBHPAVCBaseMessage@@@std@@@3@$0A@@std@@@std@@IAE@ABU?$less@H@1@V?$allocator@U?$pair@$$CBHPAVCBaseMessage@@@std@@@1@@Z 00438c30 f i MessageMapList.obj
 0001:00037c70       ??0?$allocator@U?$pair@$$CBHPAVCBaseMessage@@@std@@@std@@QAE@ABV01@@Z 00438c70 f i MessageMapList.obj
 0001:00037c80       ?deallocate@?$allocator@U_Node@?$_Tree_nod@V?$_Tmap_traits@HPAVCBaseMessage@@U?$less@H@std@@V?$allocator@U?$pair@$$CBHPAVCBaseMessage@@@std@@@3@$0A@@std@@@std@@@std@@QAEXPAU_Node@?$_Tree_nod@V?$_Tmap_traits@HPAVCBaseMessage@@U?$less@H@std@@V?$allocator@U?$pair@$$CBHPAVCBaseMessage@@@std@@@3@$0A@@std@@@2@I@Z 00438c80 f i MessageMapList.obj
 0001:00037ca0       ?destroy@?$allocator@PAU_Node@?$_Tree_nod@V?$_Tmap_traits@HPAVCBaseMessage@@U?$less@H@std@@V?$allocator@U?$pair@$$CBHPAVCBaseMessage@@@std@@@3@$0A@@std@@@std@@@std@@QAEXPAPAU_Node@?$_Tree_nod@V?$_Tmap_traits@HPAVCBaseMessage@@U?$less@H@std@@V?$allocator@U?$pair@$$CBHPAVCBaseMessage@@@std@@@3@$0A@@std@@@2@@Z 00438ca0 f i MessageMapList.obj
 0001:00037cc0       ??0const_iterator@?$_Tree@V?$_Tmap_traits@HPAVCBaseMessage@@U?$less@H@std@@V?$allocator@U?$pair@$$CBHPAVCBaseMessage@@@std@@@3@$0A@@std@@@std@@QAE@PAU_Node@?$_Tree_nod@V?$_Tmap_traits@HPAVCBaseMessage@@U?$less@H@std@@V?$allocator@U?$pair@$$CBHPAVCBaseMessage@@@std@@@3@$0A@@std@@@2@PBV12@@Z 00438cc0 f i MessageMapList.obj
 0001:00037d30       ??Dconst_iterator@?$_Tree@V?$_Tmap_traits@HPAVCBaseMessage@@U?$less@H@std@@V?$allocator@U?$pair@$$CBHPAVCBaseMessage@@@std@@@3@$0A@@std@@@std@@QBEABU?$pair@$$CBHPAVCBaseMessage@@@2@XZ 00438d30 f i MessageMapList.obj
 0001:00037dd0       ??Fconst_iterator@?$_Tree@V?$_Tmap_traits@HPAVCBaseMessage@@U?$less@H@std@@V?$allocator@U?$pair@$$CBHPAVCBaseMessage@@@std@@@3@$0A@@std@@@std@@QAEAAV012@XZ 00438dd0 f i MessageMapList.obj
 0001:00037df0       ?_Inc@const_iterator@?$_Tree@V?$_Tmap_traits@HPAVCBaseMessage@@U?$less@H@std@@V?$allocator@U?$pair@$$CBHPAVCBaseMessage@@@std@@@3@$0A@@std@@@std@@QAEXXZ 00438df0 f i MessageMapList.obj
 0001:00037f20       ??0?$_Bidit@U?$pair@$$CBHPAVCBaseMessage@@@std@@HPBU12@ABU12@@std@@QAE@XZ 00438f20 f i MessageMapList.obj
 0001:00037f40       ??0?$_Iterator_with_base@Ubidirectional_iterator_tag@std@@U?$pair@$$CBHPAVCBaseMessage@@@2@HPBU32@ABU32@V_Iterator_base@2@@std@@QAE@XZ 00438f40 f i MessageMapList.obj
 0001:00037f60       ?_Make_iter@?$_Tree@V?$_Tmap_traits@HPAVCBaseMessage@@U?$less@H@std@@V?$allocator@U?$pair@$$CBHPAVCBaseMessage@@@std@@@3@$0A@@std@@@std@@QBE?AViterator@12@Vconst_iterator@12@@Z 00438f60 f i MessageMapList.obj
 0001:00038000       ?erase@?$_Tree@V?$_Tmap_traits@HPAVCBaseMessage@@U?$less@H@std@@V?$allocator@U?$pair@$$CBHPAVCBaseMessage@@@std@@@3@$0A@@std@@@std@@QAE?AViterator@12@Vconst_iterator@12@@Z 00439000 f i MessageMapList.obj
 0001:00038800       ?clear@?$_Tree@V?$_Tmap_traits@HPAVCBaseMessage@@U?$less@H@std@@V?$allocator@U?$pair@$$CBHPAVCBaseMessage@@@std@@@3@$0A@@std@@@std@@QAEXXZ 00439800 f i MessageMapList.obj
 0001:00038870       ?_Min@?$_Tree@V?$_Tmap_traits@HPAVCBaseMessage@@U?$less@H@std@@V?$allocator@U?$pair@$$CBHPAVCBaseMessage@@@std@@@3@$0A@@std@@@std@@KAPAU_Node@?$_Tree_nod@V?$_Tmap_traits@HPAVCBaseMessage@@U?$less@H@std@@V?$allocator@U?$pair@$$CBHPAVCBaseMessage@@@std@@@3@$0A@@std@@@2@PAU342@@Z 00439870 f i MessageMapList.obj
 0001:000388b0       ?_Buynode@?$_Tree@V?$_Tmap_traits@HPAVCBaseMessage@@U?$less@H@std@@V?$allocator@U?$pair@$$CBHPAVCBaseMessage@@@std@@@3@$0A@@std@@@std@@IAEPAU_Node@?$_Tree_nod@V?$_Tmap_traits@HPAVCBaseMessage@@U?$less@H@std@@V?$allocator@U?$pair@$$CBHPAVCBaseMessage@@@std@@@3@$0A@@std@@@2@XZ 004398b0 f i MessageMapList.obj
 0001:00038a30       ??0?$_Tree_ptr@V?$_Tmap_traits@HPAVCBaseMessage@@U?$less@H@std@@V?$allocator@U?$pair@$$CBHPAVCBaseMessage@@@std@@@3@$0A@@std@@@std@@QAE@ABU?$less@H@1@V?$allocator@U?$pair@$$CBHPAVCBaseMessage@@@std@@@1@@Z 00439a30 f i MessageMapList.obj
 0001:00038a70       ?max_size@?$allocator@U?$pair@$$CBHPAVCBaseMessage@@@std@@@std@@QBEIXZ 00439a70 f i MessageMapList.obj
 0001:00038aa0       ?allocate@?$allocator@U_Node@?$_Tree_nod@V?$_Tmap_traits@HPAVCBaseMessage@@U?$less@H@std@@V?$allocator@U?$pair@$$CBHPAVCBaseMessage@@@std@@@3@$0A@@std@@@std@@@std@@QAEPAU_Node@?$_Tree_nod@V?$_Tmap_traits@HPAVCBaseMessage@@U?$less@H@std@@V?$allocator@U?$pair@$$CBHPAVCBaseMessage@@@std@@@3@$0A@@std@@@2@I@Z 00439aa0 f i MessageMapList.obj
 0001:00038ac0       ??Econst_iterator@?$_Tree@V?$_Tmap_traits@HPAVCBaseMessage@@U?$less@H@std@@V?$allocator@U?$pair@$$CBHPAVCBaseMessage@@@std@@@3@$0A@@std@@@std@@QAE?AV012@H@Z 00439ac0 f i MessageMapList.obj
 0001:00038b40       ?_Dec@const_iterator@?$_Tree@V?$_Tmap_traits@HPAVCBaseMessage@@U?$less@H@std@@V?$allocator@U?$pair@$$CBHPAVCBaseMessage@@@std@@@3@$0A@@std@@@std@@QAEXXZ 00439b40 f i MessageMapList.obj
 0001:00038d70       ??0_Node@?$_Tree_nod@V?$_Tmap_traits@HPAVCBaseMessage@@U?$less@H@std@@V?$allocator@U?$pair@$$CBHPAVCBaseMessage@@@std@@@3@$0A@@std@@@std@@QAE@PAU012@00ABU?$pair@$$CBHPAVCBaseMessage@@@2@D@Z 00439d70 f i MessageMapList.obj
 0001:00038dc0       ?_Erase@?$_Tree@V?$_Tmap_traits@HPAVCBaseMessage@@U?$less@H@std@@V?$allocator@U?$pair@$$CBHPAVCBaseMessage@@@std@@@3@$0A@@std@@@std@@IAEXPAU_Node@?$_Tree_nod@V?$_Tmap_traits@HPAVCBaseMessage@@U?$less@H@std@@V?$allocator@U?$pair@$$CBHPAVCBaseMessage@@@std@@@3@$0A@@std@@@2@@Z 00439dc0 f i MessageMapList.obj
 0001:00038e40       ?_Max@?$_Tree@V?$_Tmap_traits@HPAVCBaseMessage@@U?$less@H@std@@V?$allocator@U?$pair@$$CBHPAVCBaseMessage@@@std@@@3@$0A@@std@@@std@@KAPAU_Node@?$_Tree_nod@V?$_Tmap_traits@HPAVCBaseMessage@@U?$less@H@std@@V?$allocator@U?$pair@$$CBHPAVCBaseMessage@@@std@@@3@$0A@@std@@@2@PAU342@@Z 00439e40 f i MessageMapList.obj
 0001:00038e80       ?_Orphan_ptr@?$_Tree@V?$_Tmap_traits@HPAVCBaseMessage@@U?$less@H@std@@V?$allocator@U?$pair@$$CBHPAVCBaseMessage@@@std@@@3@$0A@@std@@@std@@IBEXAAV12@PAU_Node@?$_Tree_nod@V?$_Tmap_traits@HPAVCBaseMessage@@U?$less@H@std@@V?$allocator@U?$pair@$$CBHPAVCBaseMessage@@@std@@@3@$0A@@std@@@2@@Z 00439e80 f i MessageMapList.obj
 0001:00038f00       ??0?$_Tree_nod@V?$_Tmap_traits@HPAVCBaseMessage@@U?$less@H@std@@V?$allocator@U?$pair@$$CBHPAVCBaseMessage@@@std@@@3@$0A@@std@@@std@@IAE@ABU?$less@H@1@V?$allocator@U?$pair@$$CBHPAVCBaseMessage@@@std@@@1@@Z 00439f00 f i MessageMapList.obj
 0001:00038f40       ?destroy@?$allocator@U_Node@?$_Tree_nod@V?$_Tmap_traits@HPAVCBaseMessage@@U?$less@H@std@@V?$allocator@U?$pair@$$CBHPAVCBaseMessage@@@std@@@3@$0A@@std@@@std@@@std@@QAEXPAU_Node@?$_Tree_nod@V?$_Tmap_traits@HPAVCBaseMessage@@U?$less@H@std@@V?$allocator@U?$pair@$$CBHPAVCBaseMessage@@@std@@@3@$0A@@std@@@2@@Z 00439f40 f i MessageMapList.obj
 0001:00038f60       ?construct@?$allocator@PAU_Node@?$_Tree_nod@V?$_Tmap_traits@HPAVCBaseMessage@@U?$less@H@std@@V?$allocator@U?$pair@$$CBHPAVCBaseMessage@@@std@@@3@$0A@@std@@@std@@@std@@QAEXPAPAU_Node@?$_Tree_nod@V?$_Tmap_traits@HPAVCBaseMessage@@U?$less@H@std@@V?$allocator@U?$pair@$$CBHPAVCBaseMessage@@@std@@@3@$0A@@std@@@2@ABQAU342@@Z 00439f60 f i MessageMapList.obj
 0001:00038f80       ??0?$_Tmap_traits@HPAVCBaseMessage@@U?$less@H@std@@V?$allocator@U?$pair@$$CBHPAVCBaseMessage@@@std@@@3@$0A@@std@@QAE@U?$less@H@1@V?$allocator@U?$pair@$$CBHPAVCBaseMessage@@@std@@@1@@Z 00439f80 f i MessageMapList.obj
 0001:00038fb0       ??0?$_Container_base_aux_alloc_empty@V?$allocator@U?$pair@$$CBHPAVCBaseMessage@@@std@@@std@@@std@@IAE@V?$allocator@U?$pair@$$CBHPAVCBaseMessage@@@std@@@1@@Z 00439fb0 f i MessageMapList.obj
 0001:00038fd0       ??$make_pair@GPAVCBaseMessage@@@std@@YA?AU?$pair@GPAVCBaseMessage@@@0@GPAVCBaseMessage@@@Z 00439fd0 f i MessageMapList.obj
 0001:00038ff0       ??$?0GPAVCBaseMessage@@@?$pair@$$CBHPAVCBaseMessage@@@std@@QAE@ABU?$pair@GPAVCBaseMessage@@@1@@Z 00439ff0 f i MessageMapList.obj
 0001:00039020       ??$_Debug_lt_pred@U?$less@H@std@@HH@std@@YA_NU?$less@H@0@ABH1PB_WI@Z 0043a020 f i MessageMapList.obj
 0001:00039080       ??$_Destroy@PAU_Node@?$_Tree_nod@V?$_Tmap_traits@HPAVCBaseMessage@@U?$less@H@std@@V?$allocator@U?$pair@$$CBHPAVCBaseMessage@@@std@@@3@$0A@@std@@@std@@@std@@YAXPAPAU_Node@?$_Tree_nod@V?$_Tmap_traits@HPAVCBaseMessage@@U?$less@H@std@@V?$allocator@U?$pair@$$CBHPAVCBaseMessage@@@std@@@3@$0A@@std@@@0@@Z 0043a080 f i MessageMapList.obj
 0001:00039090       ??$?0U?$pair@$$CBHPAVCBaseMessage@@@std@@@?$allocator@PAU_Node@?$_Tree_nod@V?$_Tmap_traits@HPAVCBaseMessage@@U?$less@H@std@@V?$allocator@U?$pair@$$CBHPAVCBaseMessage@@@std@@@3@$0A@@std@@@std@@@std@@QAE@ABV?$allocator@U?$pair@$$CBHPAVCBaseMessage@@@std@@@1@@Z 0043a090 f i MessageMapList.obj
 0001:000390a0       ??$_Allocate@U_Node@?$_Tree_nod@V?$_Tmap_traits@HPAVCBaseMessage@@U?$less@H@std@@V?$allocator@U?$pair@$$CBHPAVCBaseMessage@@@std@@@3@$0A@@std@@@std@@@std@@YAPAU_Node@?$_Tree_nod@V?$_Tmap_traits@HPAVCBaseMessage@@U?$less@H@std@@V?$allocator@U?$pair@$$CBHPAVCBaseMessage@@@std@@@3@$0A@@std@@@0@IPAU120@@Z 0043a0a0 f i MessageMapList.obj
 0001:000390f0       ??$?0U?$pair@$$CBHPAVCBaseMessage@@@std@@@?$allocator@U_Node@?$_Tree_nod@V?$_Tmap_traits@HPAVCBaseMessage@@U?$less@H@std@@V?$allocator@U?$pair@$$CBHPAVCBaseMessage@@@std@@@3@$0A@@std@@@std@@@std@@QAE@ABV?$allocator@U?$pair@$$CBHPAVCBaseMessage@@@std@@@1@@Z 0043a0f0 f i MessageMapList.obj
 0001:00039100       ??$_Destroy@U_Node@?$_Tree_nod@V?$_Tmap_traits@HPAVCBaseMessage@@U?$less@H@std@@V?$allocator@U?$pair@$$CBHPAVCBaseMessage@@@std@@@3@$0A@@std@@@std@@@std@@YAXPAU_Node@?$_Tree_nod@V?$_Tmap_traits@HPAVCBaseMessage@@U?$less@H@std@@V?$allocator@U?$pair@$$CBHPAVCBaseMessage@@@std@@@3@$0A@@std@@@0@@Z 0043a100 f i MessageMapList.obj
 0001:00039110       ??$_Construct@PAU_Node@?$_Tree_nod@V?$_Tmap_traits@HPAVCBaseMessage@@U?$less@H@std@@V?$allocator@U?$pair@$$CBHPAVCBaseMessage@@@std@@@3@$0A@@std@@@std@@PAU123@@std@@YAXPAPAU_Node@?$_Tree_nod@V?$_Tmap_traits@HPAVCBaseMessage@@U?$less@H@std@@V?$allocator@U?$pair@$$CBHPAVCBaseMessage@@@std@@@3@$0A@@std@@@0@ABQAU120@@Z 0043a110 f i MessageMapList.obj
 0001:00039150       ??R?$less@H@std@@QBE_NABH0@Z 0043a150 f i MessageMapList.obj
 0001:00039170       ??0?$pair@GPAVCBaseMessage@@@std@@QAE@ABGABQAVCBaseMessage@@@Z 0043a170 f i MessageMapList.obj
 0001:000391a0       ??0CMessageSenderHelper@@QAE@XZ 0043a1a0 f   MessageSenderHelper.obj
 0001:00039240       ?SetClient@CMessageSenderHelper@@QAEXPAVCClient@@@Z 0043a240 f i MessageSenderHelper.obj
 0001:00039260       ??1CMessageSenderHelper@@QAE@XZ 0043a260 f   MessageSenderHelper.obj
 0001:000392b0       ?GetInstance@CMessageSenderHelper@@SAPAV1@XZ 0043a2b0 f   MessageSenderHelper.obj
 0001:00039340       ?DeleteInstance@CMessageSenderHelper@@SAXXZ 0043a340 f   MessageSenderHelper.obj
 0001:00039390       ??_GCMessageSenderHelper@@QAEPAXI@Z 0043a390 f i MessageSenderHelper.obj
 0001:000393c0       ?CompactData@CMessageSenderHelper@@QAEPADPAVCBaseMessage@@AAH@Z 0043a3c0 f   MessageSenderHelper.obj
 0001:00039450       ?GetProtocolBuf@CBaseMessage@@QAEPAEXZ 0043a450 f i MessageSenderHelper.obj
 0001:00039470       ?SendHeartbeatReq@CMessageSenderHelper@@QAE_NPAVCClient@@@Z 0043a470 f   MessageSenderHelper.obj
 0001:00039590       ?GetMainWindow@CClient@@QAEPAUHWND__@@XZ 0043a590 f i MessageSenderHelper.obj
 0001:000395a0       ?GetSelfWindow@CClient@@QAEPAUHWND__@@XZ 0043a5a0 f i MessageSenderHelper.obj
 0001:000395c0       ?GetStreamBufEncode@CClient@@QAEPAVCStreamReadWrite@@XZ 0043a5c0 f i MessageSenderHelper.obj
 0001:000395e0       ?SendHeartbeatRes@CMessageSenderHelper@@QAE_NHH@Z 0043a5e0 f   MessageSenderHelper.obj
 0001:000396d0       ?GetStreamBufWrite@CServer@@QAEPAVCStreamReadWrite@@XZ 0043a6d0 f i MessageSenderHelper.obj
 0001:000396f0       ?SendLoginReq@CMessageSenderHelper@@QAE_NPAVCClient@@@Z 0043a6f0 f   MessageSenderHelper.obj
 0001:000397d0       ?SendLoginRes@CMessageSenderHelper@@QAE_NHH@Z 0043a7d0 f   MessageSenderHelper.obj
 0001:000398d0       ?SendClientStatus@CMessageSenderHelper@@QAE_NPAVCClient@@H@Z 0043a8d0 f   MessageSenderHelper.obj
 0001:000398f0       ?SendPlayerInfoStatus@CMessageSenderHelper@@QAE_NPAVCClient@@PAVCInfoPlayerInfoStatus@@@Z 0043a8f0 f   MessageSenderHelper.obj
 0001:00039a10       ?SendPlayerTaskStatus@CMessageSenderHelper@@QAE_NPAVCClient@@AAV?$basic_string@_WU?$char_traits@_W@std@@V?$allocator@_W@2@@std@@@Z 0043aa10 f   MessageSenderHelper.obj
 0001:00039b00       ?SendQuitReq@CMessageSenderHelper@@QAE_NPAVCClient@@@Z 0043ab00 f   MessageSenderHelper.obj
 0001:00039be0       ?SendQuitRes@CMessageSenderHelper@@QAE_NHH@Z 0043abe0 f   MessageSenderHelper.obj
 0001:00039ce0       ?SendForceQuitRes@CMessageSenderHelper@@QAE_NH@Z 0043ace0 f   MessageSenderHelper.obj
 0001:00039de0       ?SendControlClientReq@CMessageSenderHelper@@QAE_NHH@Z 0043ade0 f   MessageSenderHelper.obj
 0001:00039ee0       ?SendDoGameOperationReq@CMessageSenderHelper@@QAE_NHHHPAD@Z 0043aee0 f   MessageSenderHelper.obj
 0001:00039fe0       ?SendToWriteData@CMessageSenderHelper@@QAE_NPAVCClient@@HABV?$basic_string@_WU?$char_traits@_W@std@@V?$allocator@_W@2@@std@@PADH@Z 0043afe0 f   MessageSenderHelper.obj
 0001:0003a0d0       ??0CProtocolMap@@QAE@XZ    0043b0d0 f   ProtocolMap.obj
 0001:0003a140       ?SetCurrentPlayer@CProtocolMap@@QAEXPAVCPlayer@@@Z 0043b140 f i ProtocolMap.obj
 0001:0003a160       ??_ECProtocolMap@@UAEPAXI@Z 0043b160 f i ProtocolMap.obj
 0001:0003a160       ??_GCProtocolMap@@UAEPAXI@Z 0043b160 f i ProtocolMap.obj
 0001:0003a190       ??1?$map@KPAVCProtocol@@U?$less@K@std@@V?$allocator@U?$pair@$$CBKPAVCProtocol@@@std@@@3@@std@@QAE@XZ 0043b190 f i ProtocolMap.obj
 0001:0003a1b0       ??1CProtocolMap@@UAE@XZ    0043b1b0 f   ProtocolMap.obj
 0001:0003a210       ?DeleteInstance@CProtocolMap@@SAXXZ 0043b210 f   ProtocolMap.obj
 0001:0003a260       ?GetInstance@CProtocolMap@@SAPAV1@XZ 0043b260 f   ProtocolMap.obj
 0001:0003a2f0       ?GetProtocolById@CProtocolMap@@QAEPAVCProtocol@@K@Z 0043b2f0 f   ProtocolMap.obj
 0001:0003a3b0       ??1iterator@?$_Tree@V?$_Tmap_traits@KPAVCProtocol@@U?$less@K@std@@V?$allocator@U?$pair@$$CBKPAVCProtocol@@@std@@@3@$0A@@std@@@std@@QAE@XZ 0043b3b0 f i ProtocolMap.obj
 0001:0003a3d0       ??1const_iterator@?$_Tree@V?$_Tmap_traits@KPAVCProtocol@@U?$less@K@std@@V?$allocator@U?$pair@$$CBKPAVCProtocol@@@std@@@3@$0A@@std@@@std@@QAE@XZ 0043b3d0 f i ProtocolMap.obj
 0001:0003a3f0       ??1?$_Bidit@U?$pair@$$CBKPAVCProtocol@@@std@@HPBU12@ABU12@@std@@QAE@XZ 0043b3f0 f i ProtocolMap.obj
 0001:0003a410       ??1?$_Iterator_with_base@Ubidirectional_iterator_tag@std@@U?$pair@$$CBKPAVCProtocol@@@2@HPBU32@ABU32@V_Iterator_base@2@@std@@QAE@XZ 0043b410 f i ProtocolMap.obj
 0001:0003a430       ?DecodeProtocol@CProtocolMap@@QAEHPAEH@Z 0043b430 f   ProtocolMap.obj
 0001:0003a490       ?DecodeProtocolOnce@CProtocolMap@@QAEHKHPAVCStreamReadWrite@@@Z 0043b490 f   ProtocolMap.obj
 0001:0003a530       ?SetCurrentPlayer@CProtocol@@QAEXPAVCPlayer@@@Z 0043b530 f i ProtocolMap.obj
 0001:0003a550       ?SetPackageLengthInRes@CProtocol@@QAEXH@Z 0043b550 f i ProtocolMap.obj
 0001:0003a570       ?InitProtocolMap@CProtocolMap@@QAE_NXZ 0043b570 f   ProtocolMap.obj
 0001:0003a880       ?GetProtocolIdResOrSyn@CProtocol@@QAEKXZ 0043b880 f i ProtocolMap.obj
 0001:0003a8a0       ?AddToProtocolMap@CProtocolMap@@QAEXKPAVCProtocol@@@Z 0043b8a0 f   ProtocolMap.obj
 0001:0003a8f0       ??1?$pair@Viterator@?$_Tree@V?$_Tmap_traits@KPAVCProtocol@@U?$less@K@std@@V?$allocator@U?$pair@$$CBKPAVCProtocol@@@std@@@3@$0A@@std@@@std@@_N@std@@QAE@XZ 0043b8f0 f i ProtocolMap.obj
 0001:0003a910       ?DeleteProtocolMap@CProtocolMap@@QAE_NXZ 0043b910 f   ProtocolMap.obj
 0001:0003aa00       ?InitProtocolMapInTianShiZhiZhan@CProtocolMap@@AAE_NXZ 0043ba00 f   ProtocolMap.obj
 0001:0003aab0       ?InitProtocolMapInTianShiZhiZhanPc@CProtocolMap@@AAE_NXZ 0043bab0 f   ProtocolMap.obj
 0001:0003ab60       ??0?$map@KPAVCProtocol@@U?$less@K@std@@V?$allocator@U?$pair@$$CBKPAVCProtocol@@@std@@@3@@std@@QAE@XZ 0043bb60 f i ProtocolMap.obj
 0001:0003ab90       ??A?$map@KPAVCProtocol@@U?$less@K@std@@V?$allocator@U?$pair@$$CBKPAVCProtocol@@@std@@@3@@std@@QAEAAPAVCProtocol@@ABK@Z 0043bb90 f i ProtocolMap.obj
 0001:0003ad00       ??1?$_Tree@V?$_Tmap_traits@KPAVCProtocol@@U?$less@K@std@@V?$allocator@U?$pair@$$CBKPAVCProtocol@@@std@@@3@$0A@@std@@@std@@QAE@XZ 0043bd00 f i ProtocolMap.obj
 0001:0003ad60       ?begin@?$_Tree@V?$_Tmap_traits@KPAVCProtocol@@U?$less@K@std@@V?$allocator@U?$pair@$$CBKPAVCProtocol@@@std@@@3@$0A@@std@@@std@@QAE?AViterator@12@XZ 0043bd60 f i ProtocolMap.obj
 0001:0003ada0       ?end@?$_Tree@V?$_Tmap_traits@KPAVCProtocol@@U?$less@K@std@@V?$allocator@U?$pair@$$CBKPAVCProtocol@@@std@@@3@$0A@@std@@@std@@QAE?AViterator@12@XZ 0043bda0 f i ProtocolMap.obj
 0001:0003ade0       ?insert@?$_Tree@V?$_Tmap_traits@KPAVCProtocol@@U?$less@K@std@@V?$allocator@U?$pair@$$CBKPAVCProtocol@@@std@@@3@$0A@@std@@@std@@QAE?AU?$pair@Viterator@?$_Tree@V?$_Tmap_traits@KPAVCProtocol@@U?$less@K@std@@V?$allocator@U?$pair@$$CBKPAVCProtocol@@@std@@@3@$0A@@std@@@std@@_N@2@ABU?$pair@$$CBKPAVCProtocol@@@2@@Z 0043bde0 f i ProtocolMap.obj
 0001:0003b0f0       ?find@?$_Tree@V?$_Tmap_traits@KPAVCProtocol@@U?$less@K@std@@V?$allocator@U?$pair@$$CBKPAVCProtocol@@@std@@@3@$0A@@std@@@std@@QAE?AViterator@12@ABK@Z 0043c0f0 f i ProtocolMap.obj
 0001:0003b250       ??Citerator@?$_Tree@V?$_Tmap_traits@KPAVCProtocol@@U?$less@K@std@@V?$allocator@U?$pair@$$CBKPAVCProtocol@@@std@@@3@$0A@@std@@@std@@QBEPAU?$pair@$$CBKPAVCProtocol@@@2@XZ 0043c250 f i ProtocolMap.obj
 0001:0003b270       ??Eiterator@?$_Tree@V?$_Tmap_traits@KPAVCProtocol@@U?$less@K@std@@V?$allocator@U?$pair@$$CBKPAVCProtocol@@@std@@@3@$0A@@std@@@std@@QAEAAV012@XZ 0043c270 f i ProtocolMap.obj
 0001:0003b290       ??9const_iterator@?$_Tree@V?$_Tmap_traits@KPAVCProtocol@@U?$less@K@std@@V?$allocator@U?$pair@$$CBKPAVCProtocol@@@std@@@3@$0A@@std@@@std@@QBE_NABV012@@Z 0043c290 f i ProtocolMap.obj
 0001:0003b2c0       ??0const_iterator@?$_Tree@V?$_Tmap_traits@KPAVCProtocol@@U?$less@K@std@@V?$allocator@U?$pair@$$CBKPAVCProtocol@@@std@@@3@$0A@@std@@@std@@QAE@ABV012@@Z 0043c2c0 f i ProtocolMap.obj
 0001:0003b2f0       ??4iterator@?$_Tree@V?$_Tmap_traits@KPAVCProtocol@@U?$less@K@std@@V?$allocator@U?$pair@$$CBKPAVCProtocol@@@std@@@3@$0A@@std@@@std@@QAEAAV012@ABV012@@Z 0043c2f0 f i ProtocolMap.obj
 0001:0003b310       ??1?$_Tree_val@V?$_Tmap_traits@KPAVCProtocol@@U?$less@K@std@@V?$allocator@U?$pair@$$CBKPAVCProtocol@@@std@@@3@$0A@@std@@@std@@QAE@XZ 0043c310 f i ProtocolMap.obj
 0001:0003b330       ??0iterator@?$_Tree@V?$_Tmap_traits@KPAVCProtocol@@U?$less@K@std@@V?$allocator@U?$pair@$$CBKPAVCProtocol@@@std@@@3@$0A@@std@@@std@@QAE@ABV012@@Z 0043c330 f i ProtocolMap.obj
 0001:0003b350       ??0?$_Bidit@U?$pair@$$CBKPAVCProtocol@@@std@@HPBU12@ABU12@@std@@QAE@ABU01@@Z 0043c350 f i ProtocolMap.obj
 0001:0003b370       ??4const_iterator@?$_Tree@V?$_Tmap_traits@KPAVCProtocol@@U?$less@K@std@@V?$allocator@U?$pair@$$CBKPAVCProtocol@@@std@@@3@$0A@@std@@@std@@QAEAAV012@ABV012@@Z 0043c370 f i ProtocolMap.obj
 0001:0003b3a0       ??1?$_Tree_ptr@V?$_Tmap_traits@KPAVCProtocol@@U?$less@K@std@@V?$allocator@U?$pair@$$CBKPAVCProtocol@@@std@@@3@$0A@@std@@@std@@QAE@XZ 0043c3a0 f i ProtocolMap.obj
 0001:0003b3c0       ??0?$_Iterator_with_base@Ubidirectional_iterator_tag@std@@U?$pair@$$CBKPAVCProtocol@@@2@HPBU32@ABU32@V_Iterator_base@2@@std@@QAE@ABU01@@Z 0043c3c0 f i ProtocolMap.obj
 0001:0003b3e0       ??4?$_Bidit@U?$pair@$$CBKPAVCProtocol@@@std@@HPBU12@ABU12@@std@@QAEAAU01@ABU01@@Z 0043c3e0 f i ProtocolMap.obj
 0001:0003b400       ??1?$_Tree_nod@V?$_Tmap_traits@KPAVCProtocol@@U?$less@K@std@@V?$allocator@U?$pair@$$CBKPAVCProtocol@@@std@@@3@$0A@@std@@@std@@QAE@XZ 0043c400 f i ProtocolMap.obj
 0001:0003b420       ??4?$_Iterator_with_base@Ubidirectional_iterator_tag@std@@U?$pair@$$CBKPAVCProtocol@@@2@HPBU32@ABU32@V_Iterator_base@2@@std@@QAEAAU01@ABU01@@Z 0043c420 f i ProtocolMap.obj
 0001:0003b440       ??1?$_Tmap_traits@KPAVCProtocol@@U?$less@K@std@@V?$allocator@U?$pair@$$CBKPAVCProtocol@@@std@@@3@$0A@@std@@QAE@XZ 0043c440 f i ProtocolMap.obj
 0001:0003b460       ?_Isnil@?$_Tree@V?$_Tmap_traits@KPAVCProtocol@@U?$less@K@std@@V?$allocator@U?$pair@$$CBKPAVCProtocol@@@std@@@3@$0A@@std@@@std@@KAAADPAU_Node@?$_Tree_nod@V?$_Tmap_traits@KPAVCProtocol@@U?$less@K@std@@V?$allocator@U?$pair@$$CBKPAVCProtocol@@@std@@@3@$0A@@std@@@2@@Z 0043c460 f i ProtocolMap.obj
 0001:0003b470       ?_Key@?$_Tree@V?$_Tmap_traits@KPAVCProtocol@@U?$less@K@std@@V?$allocator@U?$pair@$$CBKPAVCProtocol@@@std@@@3@$0A@@std@@@std@@KAABKPAU_Node@?$_Tree_nod@V?$_Tmap_traits@KPAVCProtocol@@U?$less@K@std@@V?$allocator@U?$pair@$$CBKPAVCProtocol@@@std@@@3@$0A@@std@@@2@@Z 0043c470 f i ProtocolMap.obj
 0001:0003b490       ?_Left@?$_Tree@V?$_Tmap_traits@KPAVCProtocol@@U?$less@K@std@@V?$allocator@U?$pair@$$CBKPAVCProtocol@@@std@@@3@$0A@@std@@@std@@KAAAPAU_Node@?$_Tree_nod@V?$_Tmap_traits@KPAVCProtocol@@U?$less@K@std@@V?$allocator@U?$pair@$$CBKPAVCProtocol@@@std@@@3@$0A@@std@@@2@PAU342@@Z 0043c490 f i ProtocolMap.obj
 0001:0003b4a0       ?_Right@?$_Tree@V?$_Tmap_traits@KPAVCProtocol@@U?$less@K@std@@V?$allocator@U?$pair@$$CBKPAVCProtocol@@@std@@@3@$0A@@std@@@std@@KAAAPAU_Node@?$_Tree_nod@V?$_Tmap_traits@KPAVCProtocol@@U?$less@K@std@@V?$allocator@U?$pair@$$CBKPAVCProtocol@@@std@@@3@$0A@@std@@@2@PAU342@@Z 0043c4a0 f i ProtocolMap.obj
 0001:0003b4b0       ??0?$_Tree@V?$_Tmap_traits@KPAVCProtocol@@U?$less@K@std@@V?$allocator@U?$pair@$$CBKPAVCProtocol@@@std@@@3@$0A@@std@@@std@@QAE@ABU?$less@K@1@ABV?$allocator@U?$pair@$$CBKPAVCProtocol@@@std@@@1@@Z 0043c4b0 f i ProtocolMap.obj
 0001:0003b520       ?insert@?$_Tree@V?$_Tmap_traits@KPAVCProtocol@@U?$less@K@std@@V?$allocator@U?$pair@$$CBKPAVCProtocol@@@std@@@3@$0A@@std@@@std@@QAE?AViterator@12@Vconst_iterator@12@ABU?$pair@$$CBKPAVCProtocol@@@2@@Z 0043c520 f i ProtocolMap.obj
 0001:0003c0d0       ?size@?$_Tree@V?$_Tmap_traits@KPAVCProtocol@@U?$less@K@std@@V?$allocator@U?$pair@$$CBKPAVCProtocol@@@std@@@3@$0A@@std@@@std@@QBEIXZ 0043d0d0 f i ProtocolMap.obj
 0001:0003c0f0       ?lower_bound@?$_Tree@V?$_Tmap_traits@KPAVCProtocol@@U?$less@K@std@@V?$allocator@U?$pair@$$CBKPAVCProtocol@@@std@@@3@$0A@@std@@@std@@QAE?AViterator@12@ABK@Z 0043d0f0 f i ProtocolMap.obj
 0001:0003c130       ?_Insert@?$_Tree@V?$_Tmap_traits@KPAVCProtocol@@U?$less@K@std@@V?$allocator@U?$pair@$$CBKPAVCProtocol@@@std@@@3@$0A@@std@@@std@@IAE?AViterator@12@_NPAU_Node@?$_Tree_nod@V?$_Tmap_traits@KPAVCProtocol@@U?$less@K@std@@V?$allocator@U?$pair@$$CBKPAVCProtocol@@@std@@@3@$0A@@std@@@2@ABU?$pair@$$CBKPAVCProtocol@@@2@@Z 0043d130 f i ProtocolMap.obj
 0001:0003c5c0       ?_Lmost@?$_Tree@V?$_Tmap_traits@KPAVCProtocol@@U?$less@K@std@@V?$allocator@U?$pair@$$CBKPAVCProtocol@@@std@@@3@$0A@@std@@@std@@IBEAAPAU_Node@?$_Tree_nod@V?$_Tmap_traits@KPAVCProtocol@@U?$less@K@std@@V?$allocator@U?$pair@$$CBKPAVCProtocol@@@std@@@3@$0A@@std@@@2@XZ 0043d5c0 f i ProtocolMap.obj
 0001:0003c5e0       ?_Root@?$_Tree@V?$_Tmap_traits@KPAVCProtocol@@U?$less@K@std@@V?$allocator@U?$pair@$$CBKPAVCProtocol@@@std@@@3@$0A@@std@@@std@@IBEAAPAU_Node@?$_Tree_nod@V?$_Tmap_traits@KPAVCProtocol@@U?$less@K@std@@V?$allocator@U?$pair@$$CBKPAVCProtocol@@@std@@@3@$0A@@std@@@2@XZ 0043d5e0 f i ProtocolMap.obj
 0001:0003c600       ?_Tidy@?$_Tree@V?$_Tmap_traits@KPAVCProtocol@@U?$less@K@std@@V?$allocator@U?$pair@$$CBKPAVCProtocol@@@std@@@3@$0A@@std@@@std@@IAEXXZ 0043d600 f i ProtocolMap.obj
 0001:0003c750       ?_Kfn@?$_Tmap_traits@KPAVCProtocol@@U?$less@K@std@@V?$allocator@U?$pair@$$CBKPAVCProtocol@@@std@@@3@$0A@@std@@SAABKABU?$pair@$$CBKPAVCProtocol@@@2@@Z 0043d750 f i ProtocolMap.obj
 0001:0003c760       ??1?$_Container_base_aux_alloc_empty@V?$allocator@U?$pair@$$CBKPAVCProtocol@@@std@@@std@@@std@@IAE@XZ 0043d760 f i ProtocolMap.obj
 0001:0003c780       ??0?$allocator@U?$pair@$$CBKPAVCProtocol@@@std@@@std@@QAE@XZ 0043d780 f i ProtocolMap.obj
 0001:0003c790       ??0iterator@?$_Tree@V?$_Tmap_traits@KPAVCProtocol@@U?$less@K@std@@V?$allocator@U?$pair@$$CBKPAVCProtocol@@@std@@@3@$0A@@std@@@std@@QAE@PAU_Node@?$_Tree_nod@V?$_Tmap_traits@KPAVCProtocol@@U?$less@K@std@@V?$allocator@U?$pair@$$CBKPAVCProtocol@@@std@@@3@$0A@@std@@@2@PBV12@@Z 0043d790 f i ProtocolMap.obj
 0001:0003c7b0       ??Diterator@?$_Tree@V?$_Tmap_traits@KPAVCProtocol@@U?$less@K@std@@V?$allocator@U?$pair@$$CBKPAVCProtocol@@@std@@@3@$0A@@std@@@std@@QBEAAU?$pair@$$CBKPAVCProtocol@@@2@XZ 0043d7b0 f i ProtocolMap.obj
 0001:0003c7d0       ??Fiterator@?$_Tree@V?$_Tmap_traits@KPAVCProtocol@@U?$less@K@std@@V?$allocator@U?$pair@$$CBKPAVCProtocol@@@std@@@3@$0A@@std@@@std@@QAEAAV012@XZ 0043d7d0 f i ProtocolMap.obj
 0001:0003c7f0       ??Econst_iterator@?$_Tree@V?$_Tmap_traits@KPAVCProtocol@@U?$less@K@std@@V?$allocator@U?$pair@$$CBKPAVCProtocol@@@std@@@3@$0A@@std@@@std@@QAEAAV012@XZ 0043d7f0 f i ProtocolMap.obj
 0001:0003c810       ??8const_iterator@?$_Tree@V?$_Tmap_traits@KPAVCProtocol@@U?$less@K@std@@V?$allocator@U?$pair@$$CBKPAVCProtocol@@@std@@@3@$0A@@std@@@std@@QBE_NABV012@@Z 0043d810 f i ProtocolMap.obj
 0001:0003c8a0       ?_Mynode@const_iterator@?$_Tree@V?$_Tmap_traits@KPAVCProtocol@@U?$less@K@std@@V?$allocator@U?$pair@$$CBKPAVCProtocol@@@std@@@3@$0A@@std@@@std@@QBEPAU_Node@?$_Tree_nod@V?$_Tmap_traits@KPAVCProtocol@@U?$less@K@std@@V?$allocator@U?$pair@$$CBKPAVCProtocol@@@std@@@3@$0A@@std@@@3@XZ 0043d8a0 f i ProtocolMap.obj
 0001:0003c8c0       ??0?$pair@$$CBKPAVCProtocol@@@std@@QAE@ABKABQAVCProtocol@@@Z 0043d8c0 f i ProtocolMap.obj
 0001:0003c8f0       ??0?$pair@Viterator@?$_Tree@V?$_Tmap_traits@KPAVCProtocol@@U?$less@K@std@@V?$allocator@U?$pair@$$CBKPAVCProtocol@@@std@@@3@$0A@@std@@@std@@_N@std@@QAE@ABViterator@?$_Tree@V?$_Tmap_traits@KPAVCProtocol@@U?$less@K@std@@V?$allocator@U?$pair@$$CBKPAVCProtocol@@@std@@@3@$0A@@std@@@1@AB_N@Z 0043d8f0 f i ProtocolMap.obj
 0001:0003c920       ?_Color@?$_Tree@V?$_Tmap_traits@KPAVCProtocol@@U?$less@K@std@@V?$allocator@U?$pair@$$CBKPAVCProtocol@@@std@@@3@$0A@@std@@@std@@KAAADPAU_Node@?$_Tree_nod@V?$_Tmap_traits@KPAVCProtocol@@U?$less@K@std@@V?$allocator@U?$pair@$$CBKPAVCProtocol@@@std@@@3@$0A@@std@@@2@@Z 0043d920 f i ProtocolMap.obj
 0001:0003c930       ?_Parent@?$_Tree@V?$_Tmap_traits@KPAVCProtocol@@U?$less@K@std@@V?$allocator@U?$pair@$$CBKPAVCProtocol@@@std@@@3@$0A@@std@@@std@@KAAAPAU_Node@?$_Tree_nod@V?$_Tmap_traits@KPAVCProtocol@@U?$less@K@std@@V?$allocator@U?$pair@$$CBKPAVCProtocol@@@std@@@3@$0A@@std@@@2@PAU342@@Z 0043d930 f i ProtocolMap.obj
 0001:0003c940       ?_Myval@?$_Tree@V?$_Tmap_traits@KPAVCProtocol@@U?$less@K@std@@V?$allocator@U?$pair@$$CBKPAVCProtocol@@@std@@@3@$0A@@std@@@std@@KAAAU?$pair@$$CBKPAVCProtocol@@@2@PAU_Node@?$_Tree_nod@V?$_Tmap_traits@KPAVCProtocol@@U?$less@K@std@@V?$allocator@U?$pair@$$CBKPAVCProtocol@@@std@@@3@$0A@@std@@@2@@Z 0043d940 f i ProtocolMap.obj
 0001:0003c950       ?max_size@?$_Tree@V?$_Tmap_traits@KPAVCProtocol@@U?$less@K@std@@V?$allocator@U?$pair@$$CBKPAVCProtocol@@@std@@@3@$0A@@std@@@std@@QBEIXZ 0043d950 f i ProtocolMap.obj
 0001:0003c970       ?erase@?$_Tree@V?$_Tmap_traits@KPAVCProtocol@@U?$less@K@std@@V?$allocator@U?$pair@$$CBKPAVCProtocol@@@std@@@3@$0A@@std@@@std@@QAE?AViterator@12@Vconst_iterator@12@0@Z 0043d970 f i ProtocolMap.obj
 0001:0003cb60       ?_Init@?$_Tree@V?$_Tmap_traits@KPAVCProtocol@@U?$less@K@std@@V?$allocator@U?$pair@$$CBKPAVCProtocol@@@std@@@3@$0A@@std@@@std@@IAEXXZ 0043db60 f i ProtocolMap.obj
 0001:0003cbd0       ?_Lbound@?$_Tree@V?$_Tmap_traits@KPAVCProtocol@@U?$less@K@std@@V?$allocator@U?$pair@$$CBKPAVCProtocol@@@std@@@3@$0A@@std@@@std@@IBEPAU_Node@?$_Tree_nod@V?$_Tmap_traits@KPAVCProtocol@@U?$less@K@std@@V?$allocator@U?$pair@$$CBKPAVCProtocol@@@std@@@3@$0A@@std@@@2@ABK@Z 0043dbd0 f i ProtocolMap.obj
 0001:0003cc70       ?_Lrotate@?$_Tree@V?$_Tmap_traits@KPAVCProtocol@@U?$less@K@std@@V?$allocator@U?$pair@$$CBKPAVCProtocol@@@std@@@3@$0A@@std@@@std@@IAEXPAU_Node@?$_Tree_nod@V?$_Tmap_traits@KPAVCProtocol@@U?$less@K@std@@V?$allocator@U?$pair@$$CBKPAVCProtocol@@@std@@@3@$0A@@std@@@2@@Z 0043dc70 f i ProtocolMap.obj
 0001:0003cda0       ?_Rmost@?$_Tree@V?$_Tmap_traits@KPAVCProtocol@@U?$less@K@std@@V?$allocator@U?$pair@$$CBKPAVCProtocol@@@std@@@3@$0A@@std@@@std@@IBEAAPAU_Node@?$_Tree_nod@V?$_Tmap_traits@KPAVCProtocol@@U?$less@K@std@@V?$allocator@U?$pair@$$CBKPAVCProtocol@@@std@@@3@$0A@@std@@@2@XZ 0043dda0 f i ProtocolMap.obj
 0001:0003cdc0       ?_Rrotate@?$_Tree@V?$_Tmap_traits@KPAVCProtocol@@U?$less@K@std@@V?$allocator@U?$pair@$$CBKPAVCProtocol@@@std@@@3@$0A@@std@@@std@@IAEXPAU_Node@?$_Tree_nod@V?$_Tmap_traits@KPAVCProtocol@@U?$less@K@std@@V?$allocator@U?$pair@$$CBKPAVCProtocol@@@std@@@3@$0A@@std@@@2@@Z 0043ddc0 f i ProtocolMap.obj
 0001:0003cef0       ?_Buynode@?$_Tree@V?$_Tmap_traits@KPAVCProtocol@@U?$less@K@std@@V?$allocator@U?$pair@$$CBKPAVCProtocol@@@std@@@3@$0A@@std@@@std@@IAEPAU_Node@?$_Tree_nod@V?$_Tmap_traits@KPAVCProtocol@@U?$less@K@std@@V?$allocator@U?$pair@$$CBKPAVCProtocol@@@std@@@3@$0A@@std@@@2@PAU342@00ABU?$pair@$$CBKPAVCProtocol@@@2@D@Z 0043def0 f i ProtocolMap.obj
 0001:0003cfe0       ??0?$_Tree_val@V?$_Tmap_traits@KPAVCProtocol@@U?$less@K@std@@V?$allocator@U?$pair@$$CBKPAVCProtocol@@@std@@@3@$0A@@std@@@std@@IAE@ABU?$less@K@1@V?$allocator@U?$pair@$$CBKPAVCProtocol@@@std@@@1@@Z 0043dfe0 f i ProtocolMap.obj
 0001:0003d020       ??0?$allocator@U?$pair@$$CBKPAVCProtocol@@@std@@@std@@QAE@ABV01@@Z 0043e020 f i ProtocolMap.obj
 0001:0003d030       ?deallocate@?$allocator@U_Node@?$_Tree_nod@V?$_Tmap_traits@KPAVCProtocol@@U?$less@K@std@@V?$allocator@U?$pair@$$CBKPAVCProtocol@@@std@@@3@$0A@@std@@@std@@@std@@QAEXPAU_Node@?$_Tree_nod@V?$_Tmap_traits@KPAVCProtocol@@U?$less@K@std@@V?$allocator@U?$pair@$$CBKPAVCProtocol@@@std@@@3@$0A@@std@@@2@I@Z 0043e030 f i ProtocolMap.obj
 0001:0003d050       ?destroy@?$allocator@PAU_Node@?$_Tree_nod@V?$_Tmap_traits@KPAVCProtocol@@U?$less@K@std@@V?$allocator@U?$pair@$$CBKPAVCProtocol@@@std@@@3@$0A@@std@@@std@@@std@@QAEXPAPAU_Node@?$_Tree_nod@V?$_Tmap_traits@KPAVCProtocol@@U?$less@K@std@@V?$allocator@U?$pair@$$CBKPAVCProtocol@@@std@@@3@$0A@@std@@@2@@Z 0043e050 f i ProtocolMap.obj
 0001:0003d070       ??0const_iterator@?$_Tree@V?$_Tmap_traits@KPAVCProtocol@@U?$less@K@std@@V?$allocator@U?$pair@$$CBKPAVCProtocol@@@std@@@3@$0A@@std@@@std@@QAE@XZ 0043e070 f i ProtocolMap.obj
 0001:0003d090       ??0const_iterator@?$_Tree@V?$_Tmap_traits@KPAVCProtocol@@U?$less@K@std@@V?$allocator@U?$pair@$$CBKPAVCProtocol@@@std@@@3@$0A@@std@@@std@@QAE@PAU_Node@?$_Tree_nod@V?$_Tmap_traits@KPAVCProtocol@@U?$less@K@std@@V?$allocator@U?$pair@$$CBKPAVCProtocol@@@std@@@3@$0A@@std@@@2@PBV12@@Z 0043e090 f i ProtocolMap.obj
 0001:0003d100       ??Dconst_iterator@?$_Tree@V?$_Tmap_traits@KPAVCProtocol@@U?$less@K@std@@V?$allocator@U?$pair@$$CBKPAVCProtocol@@@std@@@3@$0A@@std@@@std@@QBEABU?$pair@$$CBKPAVCProtocol@@@2@XZ 0043e100 f i ProtocolMap.obj
 0001:0003d1a0       ??Fconst_iterator@?$_Tree@V?$_Tmap_traits@KPAVCProtocol@@U?$less@K@std@@V?$allocator@U?$pair@$$CBKPAVCProtocol@@@std@@@3@$0A@@std@@@std@@QAEAAV012@XZ 0043e1a0 f i ProtocolMap.obj
 0001:0003d1c0       ?_Inc@const_iterator@?$_Tree@V?$_Tmap_traits@KPAVCProtocol@@U?$less@K@std@@V?$allocator@U?$pair@$$CBKPAVCProtocol@@@std@@@3@$0A@@std@@@std@@QAEXXZ 0043e1c0 f i ProtocolMap.obj
 0001:0003d2f0       ??0?$_Bidit@U?$pair@$$CBKPAVCProtocol@@@std@@HPBU12@ABU12@@std@@QAE@XZ 0043e2f0 f i ProtocolMap.obj
 0001:0003d310       ??0?$_Iterator_with_base@Ubidirectional_iterator_tag@std@@U?$pair@$$CBKPAVCProtocol@@@2@HPBU32@ABU32@V_Iterator_base@2@@std@@QAE@XZ 0043e310 f i ProtocolMap.obj
 0001:0003d330       ?_Make_iter@?$_Tree@V?$_Tmap_traits@KPAVCProtocol@@U?$less@K@std@@V?$allocator@U?$pair@$$CBKPAVCProtocol@@@std@@@3@$0A@@std@@@std@@QBE?AViterator@12@Vconst_iterator@12@@Z 0043e330 f i ProtocolMap.obj
 0001:0003d3d0       ?erase@?$_Tree@V?$_Tmap_traits@KPAVCProtocol@@U?$less@K@std@@V?$allocator@U?$pair@$$CBKPAVCProtocol@@@std@@@3@$0A@@std@@@std@@QAE?AViterator@12@Vconst_iterator@12@@Z 0043e3d0 f i ProtocolMap.obj
 0001:0003dbd0       ?clear@?$_Tree@V?$_Tmap_traits@KPAVCProtocol@@U?$less@K@std@@V?$allocator@U?$pair@$$CBKPAVCProtocol@@@std@@@3@$0A@@std@@@std@@QAEXXZ 0043ebd0 f i ProtocolMap.obj
 0001:0003dc40       ?_Min@?$_Tree@V?$_Tmap_traits@KPAVCProtocol@@U?$less@K@std@@V?$allocator@U?$pair@$$CBKPAVCProtocol@@@std@@@3@$0A@@std@@@std@@KAPAU_Node@?$_Tree_nod@V?$_Tmap_traits@KPAVCProtocol@@U?$less@K@std@@V?$allocator@U?$pair@$$CBKPAVCProtocol@@@std@@@3@$0A@@std@@@2@PAU342@@Z 0043ec40 f i ProtocolMap.obj
 0001:0003dc80       ?_Buynode@?$_Tree@V?$_Tmap_traits@KPAVCProtocol@@U?$less@K@std@@V?$allocator@U?$pair@$$CBKPAVCProtocol@@@std@@@3@$0A@@std@@@std@@IAEPAU_Node@?$_Tree_nod@V?$_Tmap_traits@KPAVCProtocol@@U?$less@K@std@@V?$allocator@U?$pair@$$CBKPAVCProtocol@@@std@@@3@$0A@@std@@@2@XZ 0043ec80 f i ProtocolMap.obj
 0001:0003de00       ??0?$_Tree_ptr@V?$_Tmap_traits@KPAVCProtocol@@U?$less@K@std@@V?$allocator@U?$pair@$$CBKPAVCProtocol@@@std@@@3@$0A@@std@@@std@@QAE@ABU?$less@K@1@V?$allocator@U?$pair@$$CBKPAVCProtocol@@@std@@@1@@Z 0043ee00 f i ProtocolMap.obj
 0001:0003de40       ?max_size@?$allocator@U?$pair@$$CBKPAVCProtocol@@@std@@@std@@QBEIXZ 0043ee40 f i ProtocolMap.obj
 0001:0003de70       ?allocate@?$allocator@U_Node@?$_Tree_nod@V?$_Tmap_traits@KPAVCProtocol@@U?$less@K@std@@V?$allocator@U?$pair@$$CBKPAVCProtocol@@@std@@@3@$0A@@std@@@std@@@std@@QAEPAU_Node@?$_Tree_nod@V?$_Tmap_traits@KPAVCProtocol@@U?$less@K@std@@V?$allocator@U?$pair@$$CBKPAVCProtocol@@@std@@@3@$0A@@std@@@2@I@Z 0043ee70 f i ProtocolMap.obj
 0001:0003de90       ??Econst_iterator@?$_Tree@V?$_Tmap_traits@KPAVCProtocol@@U?$less@K@std@@V?$allocator@U?$pair@$$CBKPAVCProtocol@@@std@@@3@$0A@@std@@@std@@QAE?AV012@H@Z 0043ee90 f i ProtocolMap.obj
 0001:0003df20       ?_Dec@const_iterator@?$_Tree@V?$_Tmap_traits@KPAVCProtocol@@U?$less@K@std@@V?$allocator@U?$pair@$$CBKPAVCProtocol@@@std@@@3@$0A@@std@@@std@@QAEXXZ 0043ef20 f i ProtocolMap.obj
 0001:0003e150       ??0_Node@?$_Tree_nod@V?$_Tmap_traits@KPAVCProtocol@@U?$less@K@std@@V?$allocator@U?$pair@$$CBKPAVCProtocol@@@std@@@3@$0A@@std@@@std@@QAE@PAU012@00ABU?$pair@$$CBKPAVCProtocol@@@2@D@Z 0043f150 f i ProtocolMap.obj
 0001:0003e1a0       ?_Erase@?$_Tree@V?$_Tmap_traits@KPAVCProtocol@@U?$less@K@std@@V?$allocator@U?$pair@$$CBKPAVCProtocol@@@std@@@3@$0A@@std@@@std@@IAEXPAU_Node@?$_Tree_nod@V?$_Tmap_traits@KPAVCProtocol@@U?$less@K@std@@V?$allocator@U?$pair@$$CBKPAVCProtocol@@@std@@@3@$0A@@std@@@2@@Z 0043f1a0 f i ProtocolMap.obj
 0001:0003e220       ?_Max@?$_Tree@V?$_Tmap_traits@KPAVCProtocol@@U?$less@K@std@@V?$allocator@U?$pair@$$CBKPAVCProtocol@@@std@@@3@$0A@@std@@@std@@KAPAU_Node@?$_Tree_nod@V?$_Tmap_traits@KPAVCProtocol@@U?$less@K@std@@V?$allocator@U?$pair@$$CBKPAVCProtocol@@@std@@@3@$0A@@std@@@2@PAU342@@Z 0043f220 f i ProtocolMap.obj
 0001:0003e260       ?_Orphan_ptr@?$_Tree@V?$_Tmap_traits@KPAVCProtocol@@U?$less@K@std@@V?$allocator@U?$pair@$$CBKPAVCProtocol@@@std@@@3@$0A@@std@@@std@@IBEXAAV12@PAU_Node@?$_Tree_nod@V?$_Tmap_traits@KPAVCProtocol@@U?$less@K@std@@V?$allocator@U?$pair@$$CBKPAVCProtocol@@@std@@@3@$0A@@std@@@2@@Z 0043f260 f i ProtocolMap.obj
 0001:0003e2e0       ??0?$_Tree_nod@V?$_Tmap_traits@KPAVCProtocol@@U?$less@K@std@@V?$allocator@U?$pair@$$CBKPAVCProtocol@@@std@@@3@$0A@@std@@@std@@IAE@ABU?$less@K@1@V?$allocator@U?$pair@$$CBKPAVCProtocol@@@std@@@1@@Z 0043f2e0 f i ProtocolMap.obj
 0001:0003e320       ?destroy@?$allocator@U_Node@?$_Tree_nod@V?$_Tmap_traits@KPAVCProtocol@@U?$less@K@std@@V?$allocator@U?$pair@$$CBKPAVCProtocol@@@std@@@3@$0A@@std@@@std@@@std@@QAEXPAU_Node@?$_Tree_nod@V?$_Tmap_traits@KPAVCProtocol@@U?$less@K@std@@V?$allocator@U?$pair@$$CBKPAVCProtocol@@@std@@@3@$0A@@std@@@2@@Z 0043f320 f i ProtocolMap.obj
 0001:0003e340       ?construct@?$allocator@PAU_Node@?$_Tree_nod@V?$_Tmap_traits@KPAVCProtocol@@U?$less@K@std@@V?$allocator@U?$pair@$$CBKPAVCProtocol@@@std@@@3@$0A@@std@@@std@@@std@@QAEXPAPAU_Node@?$_Tree_nod@V?$_Tmap_traits@KPAVCProtocol@@U?$less@K@std@@V?$allocator@U?$pair@$$CBKPAVCProtocol@@@std@@@3@$0A@@std@@@2@ABQAU342@@Z 0043f340 f i ProtocolMap.obj
 0001:0003e360       ??0?$_Tmap_traits@KPAVCProtocol@@U?$less@K@std@@V?$allocator@U?$pair@$$CBKPAVCProtocol@@@std@@@3@$0A@@std@@QAE@U?$less@K@1@V?$allocator@U?$pair@$$CBKPAVCProtocol@@@std@@@1@@Z 0043f360 f i ProtocolMap.obj
 0001:0003e390       ??0?$_Container_base_aux_alloc_empty@V?$allocator@U?$pair@$$CBKPAVCProtocol@@@std@@@std@@@std@@IAE@V?$allocator@U?$pair@$$CBKPAVCProtocol@@@std@@@1@@Z 0043f390 f i ProtocolMap.obj
 0001:0003e3b0       ??$make_pair@KPAVCProtocol@@@std@@YA?AU?$pair@KPAVCProtocol@@@0@KPAVCProtocol@@@Z 0043f3b0 f i ProtocolMap.obj
 0001:0003e3d0       ??$?0KPAVCProtocol@@@?$pair@$$CBKPAVCProtocol@@@std@@QAE@ABU?$pair@KPAVCProtocol@@@1@@Z 0043f3d0 f i ProtocolMap.obj
 0001:0003e400       ??$_Destroy@PAU_Node@?$_Tree_nod@V?$_Tmap_traits@KPAVCProtocol@@U?$less@K@std@@V?$allocator@U?$pair@$$CBKPAVCProtocol@@@std@@@3@$0A@@std@@@std@@@std@@YAXPAPAU_Node@?$_Tree_nod@V?$_Tmap_traits@KPAVCProtocol@@U?$less@K@std@@V?$allocator@U?$pair@$$CBKPAVCProtocol@@@std@@@3@$0A@@std@@@0@@Z 0043f400 f i ProtocolMap.obj
 0001:0003e410       ??$?0U?$pair@$$CBKPAVCProtocol@@@std@@@?$allocator@PAU_Node@?$_Tree_nod@V?$_Tmap_traits@KPAVCProtocol@@U?$less@K@std@@V?$allocator@U?$pair@$$CBKPAVCProtocol@@@std@@@3@$0A@@std@@@std@@@std@@QAE@ABV?$allocator@U?$pair@$$CBKPAVCProtocol@@@std@@@1@@Z 0043f410 f i ProtocolMap.obj
 0001:0003e420       ??$_Allocate@U_Node@?$_Tree_nod@V?$_Tmap_traits@KPAVCProtocol@@U?$less@K@std@@V?$allocator@U?$pair@$$CBKPAVCProtocol@@@std@@@3@$0A@@std@@@std@@@std@@YAPAU_Node@?$_Tree_nod@V?$_Tmap_traits@KPAVCProtocol@@U?$less@K@std@@V?$allocator@U?$pair@$$CBKPAVCProtocol@@@std@@@3@$0A@@std@@@0@IPAU120@@Z 0043f420 f i ProtocolMap.obj
 0001:0003e470       ??$?0U?$pair@$$CBKPAVCProtocol@@@std@@@?$allocator@U_Node@?$_Tree_nod@V?$_Tmap_traits@KPAVCProtocol@@U?$less@K@std@@V?$allocator@U?$pair@$$CBKPAVCProtocol@@@std@@@3@$0A@@std@@@std@@@std@@QAE@ABV?$allocator@U?$pair@$$CBKPAVCProtocol@@@std@@@1@@Z 0043f470 f i ProtocolMap.obj
 0001:0003e480       ??$_Destroy@U_Node@?$_Tree_nod@V?$_Tmap_traits@KPAVCProtocol@@U?$less@K@std@@V?$allocator@U?$pair@$$CBKPAVCProtocol@@@std@@@3@$0A@@std@@@std@@@std@@YAXPAU_Node@?$_Tree_nod@V?$_Tmap_traits@KPAVCProtocol@@U?$less@K@std@@V?$allocator@U?$pair@$$CBKPAVCProtocol@@@std@@@3@$0A@@std@@@0@@Z 0043f480 f i ProtocolMap.obj
 0001:0003e490       ??$_Construct@PAU_Node@?$_Tree_nod@V?$_Tmap_traits@KPAVCProtocol@@U?$less@K@std@@V?$allocator@U?$pair@$$CBKPAVCProtocol@@@std@@@3@$0A@@std@@@std@@PAU123@@std@@YAXPAPAU_Node@?$_Tree_nod@V?$_Tmap_traits@KPAVCProtocol@@U?$less@K@std@@V?$allocator@U?$pair@$$CBKPAVCProtocol@@@std@@@3@$0A@@std@@@0@ABQAU120@@Z 0043f490 f i ProtocolMap.obj
 0001:0003e4d0       ??0?$pair@KPAVCProtocol@@@std@@QAE@ABKABQAVCProtocol@@@Z 0043f4d0 f i ProtocolMap.obj
 0001:0003e500       ??0CServer@@QAE@XZ         0043f500 f   Server.obj
 0001:0003e570       ??1CServer@@QAE@XZ         0043f570 f   Server.obj
 0001:0003e700       ?SetIsQuit@CServer@@QAEX_N@Z 0043f700 f i Server.obj
 0001:0003e720       ?WakeupToDoTask@CServer@@QAEXXZ 0043f720 f i Server.obj
 0001:0003e740       ?Init@CServer@@QAEXXZ      0043f740 f   Server.obj
 0001:0003e8a0       ?ClearClients@CServer@@QAEXXZ 0043f8a0 f   Server.obj
 0001:0003e990       ??1?$_Vector_iterator@PAVCClient@@V?$allocator@PAVCClient@@@std@@@std@@QAE@XZ 0043f990 f i Server.obj
 0001:0003e9b0       ??_GCClient@@QAEPAXI@Z     0043f9b0 f i Server.obj
 0001:0003e9e0       ??1?$_Vector_const_iterator@PAVCClient@@V?$allocator@PAVCClient@@@std@@@std@@QAE@XZ 0043f9e0 f i Server.obj
 0001:0003ea00       ??1?$_Ranit@PAVCClient@@HPBQAV1@ABQAV1@@std@@QAE@XZ 0043fa00 f i Server.obj
 0001:0003ea20       ??1?$_Iterator_with_base@Urandom_access_iterator_tag@std@@PAVCClient@@HPBQAV3@ABQAV3@V_Iterator_base@2@@std@@QAE@XZ 0043fa20 f i Server.obj
 0001:0003ea40       ?GetClientByHwnd@CServer@@QAEPAVCClient@@PAUHWND__@@@Z 0043fa40 f   Server.obj
 0001:0003eb30       ?GetClientById@CServer@@QAEPAVCClient@@H@Z 0043fb30 f   Server.obj
 0001:0003eb70       ?GetAvailableClientIndex@CServer@@QAEHXZ 0043fb70 f   Server.obj
 0001:0003ec50       ?IncClientLiveTime@CServer@@QAEXH@Z 0043fc50 f   Server.obj
 0001:0003ec90       ?DecClientLiveTime@CServer@@QAEXH@Z 0043fc90 f   Server.obj
 0001:0003ecd0       ?DecAllPlayerLiveTime@CServer@@QAEXXZ 0043fcd0 f   Server.obj
 0001:0003ed10       ?AddPlayerToClientList@CServer@@QAEXPAVCPlayer@@@Z 0043fd10 f   Server.obj
 0001:0003edb0       ?UpdateClientHwnd@CServer@@QAEHPAUHWND__@@H@Z 0043fdb0 f   Server.obj
 0001:0003ee40       ?DeleteClient@CServer@@QAEXH@Z 0043fe40 f   Server.obj
 0001:0003ef80       ??0?$_Vector_const_iterator@PAVCClient@@V?$allocator@PAVCClient@@@std@@@std@@QAE@ABV01@@Z 0043ff80 f i Server.obj
 0001:0003efb0       ??0?$_Ranit@PAVCClient@@HPBQAV1@ABQAV1@@std@@QAE@ABU01@@Z 0043ffb0 f i Server.obj
 0001:0003efd0       ??0?$_Iterator_with_base@Urandom_access_iterator_tag@std@@PAVCClient@@HPBQAV3@ABQAV3@V_Iterator_base@2@@std@@QAE@ABU01@@Z 0043ffd0 f i Server.obj
 0001:0003eff0       ?DecodeMessage@CServer@@QAEXPAUHWND__@@PADH@Z 0043fff0 f   Server.obj
 0001:0003f0d0       ?HandleMessage@CServer@@QAEXPAUHWND__@@PAVCBaseMessage@@@Z 004400d0 f   Server.obj
 0001:0003f4d0       ?GetPlayerInfoStatus@CMessageClientPlayerInfoStatus@@QAEPAVCInfoPlayerInfoStatus@@XZ 004404d0 f i Server.obj
 0001:0003f4f0       ?GetPlayerIndex@CMessageClientPlayerInfoStatus@@QAEHXZ 004404f0 f i Server.obj
 0001:0003f510       ?GetPlayerIndex@CMessageClientQuitReq@@QAEHXZ 00440510 f i Server.obj
 0001:0003f530       ?GetPlayerIndex@CMessageLoginReq@@QAEHXZ 00440530 f i Server.obj
 0001:0003f550       ?GetTaskStaus@CMessageClientPlayerTaskStatus@@QAE?AV?$basic_string@_WU?$char_traits@_W@std@@V?$allocator@_W@2@@std@@XZ 00440550 f i Server.obj
 0001:0003f590       ?GetPlayerIndex@CMessageClientPlayerTaskStatus@@QAEHXZ 00440590 f i Server.obj
 0001:0003f5b0       ?GetType@CMessageWriteText@@QAEHXZ 004405b0 f i Server.obj
 0001:0003f5d0       ?GetBuffer@CMessageWriteText@@QAEPADXZ 004405d0 f i Server.obj
 0001:0003f5f0       ?GetAccountName@CMessageWriteText@@QAE?AV?$basic_string@_WU?$char_traits@_W@std@@V?$allocator@_W@2@@std@@XZ 004405f0 f i Server.obj
 0001:0003f630       ?GetLength@CMessageWriteText@@QAEHXZ 00440630 f i Server.obj
 0001:0003f650       ?SendToMainWindowToWriteLog@CServer@@QAEXABV?$basic_string@_WU?$char_traits@_W@std@@V?$allocator@_W@2@@std@@PADH@Z 00440650 f   Server.obj
 0001:0003f700       ??0_GAME_LOG_MSG_@@QAE@XZ  00440700 f i Server.obj
 0001:0003f770       ?Init@_GAME_LOG_MSG_@@QAEXXZ 00440770 f i Server.obj
 0001:0003f7b0       ??1_GAME_LOG_MSG_@@QAE@XZ  004407b0 f i Server.obj
 0001:0003f7d0       ?SendToMainWindowToWriteText@CServer@@QAEXHABV?$basic_string@_WU?$char_traits@_W@std@@V?$allocator@_W@2@@std@@PADH@Z 004407d0 f   Server.obj
 0001:0003f810       ?ExecuteClientApp@CServer@@QAE_NPB_WPA_W@Z 00440810 f   Server.obj
 0001:0003f870       ?SendQuitMessageToClients@CServer@@QAEXXZ 00440870 f   Server.obj
 0001:0003f960       ?CopyMsgToStreamRead@CServer@@QAEXPAUHWND__@@PADH@Z 00440960 f   Server.obj
 0001:0003f9a0       ?Decode@CServer@@QAEXXZ    004409a0 f   Server.obj
 0001:0003fa20       ?CreateEvents@CServer@@QAEXXZ 00440a20 f   Server.obj
 0001:0003fa50       ?CreateMessageHandleThread@CServer@@QAE_NXZ 00440a50 f   Server.obj
 0001:0003faa0       ?CreateTaskThread@CServer@@QAE_NXZ 00440aa0 f   Server.obj
 0001:0003faf0       ?RunClientApp@CServer@@AAE_NXZ 00440af0 f   Server.obj
 0001:0003fb10       ?CheckClientExist@CServer@@AAEXXZ 00440b10 f   Server.obj
 0001:0003fbe0       ?ThreadHeartBeat@CServer@@SGKPAX@Z 00440be0 f   Server.obj
 0001:0003fc20       ?IsQuit@CServer@@QAE_NXZ   00440c20 f i Server.obj
 0001:0003fc40       ?ThreadMessageHandle@CServer@@SGKPAX@Z 00440c40 f   Server.obj
 0001:0003fcc0       ?GetEvtMessageHandle@CServer@@QAEPAXXZ 00440cc0 f i Server.obj
 0001:0003fce0       ?ThreadTask@CServer@@SGKPAX@Z 00440ce0 f   Server.obj
 0001:0003fd60       ?GetEvtTask@CServer@@QAEPAXXZ 00440d60 f i Server.obj
 0001:0003fd80       ??0?$vector@PAVCClient@@V?$allocator@PAVCClient@@@std@@@std@@QAE@XZ 00440d80 f i Server.obj
 0001:0003fdf0       ??1?$vector@PAVCClient@@V?$allocator@PAVCClient@@@std@@@std@@QAE@XZ 00440df0 f i Server.obj
 0001:0003fe50       ?begin@?$vector@PAVCClient@@V?$allocator@PAVCClient@@@std@@@std@@QAE?AV?$_Vector_iterator@PAVCClient@@V?$allocator@PAVCClient@@@std@@@2@XZ 00440e50 f i Server.obj
 0001:0003fe90       ?end@?$vector@PAVCClient@@V?$allocator@PAVCClient@@@std@@@std@@QAE?AV?$_Vector_iterator@PAVCClient@@V?$allocator@PAVCClient@@@std@@@2@XZ 00440e90 f i Server.obj
 0001:0003fed0       ?size@?$vector@PAVCClient@@V?$allocator@PAVCClient@@@std@@@std@@QBEIXZ 00440ed0 f i Server.obj
